(lp0
(dp1
S'englishNumChars'
p2
I404
sS'viewCount'
p3
I1291933
sS'numberImages'
p4
I0
sS'totalLinesOfCode'
p5
I13
sS'numberLinks'
p6
I1
sS'acceptedAnswerId'
p7
I231855
sS'acceptedAnswerScore'
p8
I9571
sS'numQuestionMarks'
p9
I7
sS'englishNumWords'
p10
I71
sS'numberOfCodeSnippets'
p11
I2
sS'averageLengthOfCodeSnippet'
p12
F6.5
sa(dp13
g2
I47
sg3
I480526
sg4
I0
sg5
I0
sg6
I0
sg7
I100146
sg8
I1430
sg9
I2
sg10
I8
sg11
I0
sg12
I0
sa(dp14
g2
I119
sg3
I908630
sg4
I0
sg5
I0
sg6
I0
sg7
I394814
sg8
I3717
sg9
I1
sg10
I18
sg11
I0
sg12
I0
sa(dp15
g2
I18
sg3
I1114058
sg4
I0
sg5
I13
sg6
I0
sg7
I419185
sg8
I3037
sg9
I1
sg10
I4
sg11
I1
sg12
F13.0
sa(dp16
g2
I128
sg3
I1910615
sg4
I0
sg5
I0
sg6
I0
sg7
I89243
sg8
I2595
sg9
I1
sg10
I24
sg11
I0
sg12
I0
sa(dp17
g2
I357
sg3
I787921
sg4
I0
sg5
I7
sg6
I0
sg7
I26853961
sg8
I1898
sg9
I1
sg10
I63
sg11
I1
sg12
F7.0
sa(dp18
g2
I441
sg3
I1292591
sg4
I0
sg5
I0
sg6
I1
sg7
I613218
sg8
I2664
sg9
I1
sg10
I86
sg11
I0
sg12
I0
sa(dp19
g2
I308
sg3
I1243561
sg4
I0
sg5
I15
sg6
I0
sg7
I273227
sg8
I2491
sg9
I2
sg10
I56
sg11
I2
sg12
F7.5
sa(dp20
g2
I218
sg3
I383586
sg4
I0
sg5
I5
sg6
I0
sg7
I739665
sg8
I2452
sg9
I1
sg10
I36
sg11
I2
sg12
F2.5
sa(dp21
g2
I193
sg3
I1997098
sg4
I0
sg5
I0
sg6
I0
sg7
I423596
sg8
I2776
sg9
I2
sg10
I35
sg11
I0
sg12
I0
sa(dp22
g2
I72
sg3
I1137521
sg4
I0
sg5
I1
sg6
I0
sg7
I53522
sg8
I2819
sg9
I1
sg10
I14
sg11
I1
sg12
F1.0
sa(dp23
g2
I53
sg3
I1473950
sg4
I0
sg5
I0
sg6
I0
sg7
I252711
sg8
I2949
sg9
I1
sg10
I9
sg11
I0
sg12
I0
sa(dp24
g2
I58
sg3
I350696
sg4
I0
sg5
I0
sg6
I2
sg7
I1669524
sg8
I1597
sg9
I1
sg10
I9
sg11
I0
sg12
I0
sa(dp25
g2
I53
sg3
I1595096
sg4
I0
sg5
I2
sg6
I0
sg7
I3437070
sg8
I2764
sg9
I0
sg10
I12
sg11
I1
sg12
F2.0
sa(dp26
g2
I66
sg3
I1648567
sg4
I0
sg5
I0
sg6
I2
sg7
I12476379
sg8
I1335
sg9
I2
sg10
I15
sg11
I0
sg12
I0
sa(dp27
g2
I158
sg3
I847499
sg4
I0
sg5
I1
sg6
I0
sg7
I522578
sg8
I3147
sg9
I2
sg10
I34
sg11
I1
sg12
F1.0
sa(dp28
g2
I1600
sg3
I90923
sg4
I0
sg5
I26
sg6
I0
sg7
I1145781
sg8
I1145
sg9
I3
sg10
I258
sg11
I3
sg12
F8.666666666666666
sa(dp29
g2
I229
sg3
I714897
sg4
I0
sg5
I8
sg6
I0
sg7
I986145
sg8
I1828
sg9
I1
sg10
I34
sg11
I1
sg12
F8.0
sa(dp30
g2
I195
sg3
I806914
sg4
I0
sg5
I0
sg6
I0
sg7
I509295
sg8
I2280
sg9
I0
sg10
I33
sg11
I0
sg12
I0
sa(dp31
g2
I41
sg3
I339944
sg4
I0
sg5
I0
sg6
I0
sg7
I2626364
sg8
I1691
sg9
I1
sg10
I9
sg11
I0
sg12
I0
sa(dp32
g2
I93
sg3
I1617987
sg4
I0
sg5
I0
sg6
I0
sg7
I176921
sg8
I2309
sg9
I1
sg10
I21
sg11
I0
sg12
I0
sa(dp33
g2
I182
sg3
I979679
sg4
I0
sg5
I14
sg6
I0
sg7
I576183
sg8
I1081
sg9
I0
sg10
I31
sg11
I1
sg12
F14.0
sa(dp34
g2
I209
sg3
I392426
sg4
I0
sg5
I0
sg6
I2
sg7
I8189603
sg8
I608
sg9
I1
sg10
I39
sg11
I0
sg12
I0
sa(dp35
g2
I231
sg3
I1406701
sg4
I0
sg5
I4
sg6
I0
sg7
I1602964
sg8
I1533
sg9
I1
sg10
I45
sg11
I1
sg12
F4.0
sa(dp36
g2
I423
sg3
I293815
sg4
I0
sg5
I24
sg6
I0
sg7
I6470452
sg8
I2030
sg9
I1
sg10
I82
sg11
I5
sg12
F4.8
sa(dp37
g2
I113
sg3
I1435083
sg4
I0
sg5
I0
sg6
I0
sg7
I1024851
sg8
I1839
sg9
I1
sg10
I23
sg11
I0
sg12
I0
sa(dp38
g2
I51
sg3
I1361347
sg4
I0
sg5
I0
sg6
I0
sg7
I415519
sg8
I1418
sg9
I1
sg10
I8
sg11
I0
sg12
I0
sa(dp39
g2
I221
sg3
I1808449
sg4
I0
sg5
I3
sg6
I0
sg7
I3294899
sg8
I2538
sg9
I3
sg10
I43
sg11
I1
sg12
F3.0
sa(dp40
g2
I224
sg3
I2212606
sg4
I0
sg5
I0
sg6
I0
sg7
I379910
sg8
I1605
sg9
I2
sg10
I46
sg11
I0
sg12
I0
sa(dp41
g2
I220
sg3
I724611
sg4
I0
sg5
I6
sg6
I0
sg7
I952952
sg8
I1976
sg9
I1
sg10
I42
sg11
I2
sg12
F3.0
sa(dp42
g2
I103
sg3
I687581
sg4
I0
sg5
I0
sg6
I0
sg7
I68672
sg8
I1172
sg9
I2
sg10
I18
sg11
I0
sg12
I0
sa(dp43
g2
I48
sg3
I1667269
sg4
I0
sg5
I7
sg6
I0
sg7
I1712236
sg8
I1624
sg9
I1
sg10
I10
sg11
I1
sg12
F7.0
sa(dp44
g2
I109
sg3
I660507
sg4
I0
sg5
I0
sg6
I0
sg7
I2612815
sg8
I1628
sg9
I2
sg10
I21
sg11
I0
sg12
I0
sa(dp45
g2
I235
sg3
I1414107
sg4
I0
sg5
I0
sg6
I0
sg7
I663175
sg8
I1790
sg9
I3
sg10
I46
sg11
I0
sg12
I0
sa(dp46
g2
I66
sg3
I880085
sg4
I0
sg5
I3
sg6
I0
sg7
I1720432
sg8
I1937
sg9
I1
sg10
I8
sg11
I2
sg12
F1.5
sa(dp47
g2
I132
sg3
I517540
sg4
I0
sg5
I0
sg6
I0
sg7
I1695250
sg8
I2016
sg9
I1
sg10
I23
sg11
I0
sg12
I0
sa(dp48
g2
I570
sg3
I434562
sg4
I0
sg5
I0
sg6
I1
sg7
I312464
sg8
I1481
sg9
I0
sg10
I103
sg11
I0
sg12
I0
sa(dp49
g2
I102
sg3
I556657
sg4
I0
sg5
I1
sg6
I0
sg7
I735978
sg8
I1389
sg9
I0
sg10
I18
sg11
I1
sg12
F1.0
sa(dp50
g2
I116
sg3
I764544
sg4
I0
sg5
I6
sg6
I0
sg7
I493842
sg8
I769
sg9
I1
sg10
I20
sg11
I2
sg12
F3.0
sa(dp51
g2
I122
sg3
I546857
sg4
I0
sg5
I0
sg6
I2
sg7
I3452888
sg8
I1243
sg9
I1
sg10
I22
sg11
I0
sg12
I0
sa(dp52
g2
I65
sg3
I245827
sg4
I0
sg5
I2
sg6
I0
sg7
I36908
sg8
I1080
sg9
I1
sg10
I13
sg11
I1
sg12
F2.0
sa(dp53
g2
I188
sg3
I890867
sg4
I0
sg5
I0
sg6
I0
sg7
I2225066
sg8
I1226
sg9
I1
sg10
I37
sg11
I0
sg12
I0
sa(dp54
g2
I142
sg3
I1118811
sg4
I0
sg5
I0
sg6
I0
sg7
I6797990
sg8
I1651
sg9
I1
sg10
I21
sg11
I0
sg12
I0
sa(dp55
g2
I4671
sg3
I125169
sg4
I0
sg5
I132
sg6
I2
sg7
I9371717
sg8
I893
sg9
I0
sg10
I806
sg11
I12
sg12
F11.0
sa(dp56
g2
I275
sg3
I741262
sg4
I0
sg5
I6
sg6
I0
sg7
I354130
sg8
I477
sg9
I1
sg10
I50
sg11
I1
sg12
F6.0
sa(dp57
g2
I53
sg3
I824569
sg4
I0
sg5
I0
sg6
I0
sg7
I930398
sg8
I1623
sg9
I1
sg10
I11
sg11
I0
sg12
I0
sa(dp58
g2
I373
sg3
I1129291
sg4
I0
sg5
I2
sg6
I0
sg7
I466376
sg8
I1658
sg9
I0
sg10
I67
sg11
I1
sg12
F2.0
sa(dp59
g2
I84
sg3
I655350
sg4
I0
sg5
I0
sg6
I0
sg7
I24065533
sg8
I1102
sg9
I1
sg10
I18
sg11
I0
sg12
I0
sa(dp60
g2
I64
sg3
I750235
sg4
I0
sg5
I0
sg6
I1
sg7
I123212
sg8
I1187
sg9
I1
sg10
I13
sg11
I0
sg12
I0
sa(dp61
g2
I161
sg3
I1044771
sg4
I0
sg5
I0
sg6
I0
sg7
I5137509
sg8
I1431
sg9
I1
sg10
I29
sg11
I0
sg12
I0
sa(dp62
g2
I429
sg3
I758649
sg4
I0
sg5
I15
sg6
I1
sg7
I5082482
sg8
I701
sg9
I5
sg10
I75
sg11
I2
sg12
F7.5
sa(dp63
g2
I268
sg3
I776974
sg4
I0
sg5
I0
sg6
I0
sg7
I60211
sg8
I748
sg9
I1
sg10
I50
sg11
I0
sg12
I0
sa(dp64
g2
I103
sg3
I589768
sg4
I0
sg5
I1
sg6
I0
sg7
I306417
sg8
I1662
sg9
I1
sg10
I18
sg11
I1
sg12
F1.0
sa(dp65
g2
I119
sg3
I365195
sg4
I0
sg5
I2
sg6
I0
sg7
I73050
sg8
I1330
sg9
I0
sg10
I21
sg11
I2
sg12
F1.0
sa(dp66
g2
I251
sg3
I927803
sg4
I0
sg5
I0
sg6
I2
sg7
I493399
sg8
I1345
sg9
I1
sg10
I53
sg11
I2
sg12
F0.0
sa(dp67
g2
I42
sg3
I369822
sg4
I0
sg5
I0
sg6
I0
sg7
I448279
sg8
I663
sg9
I1
sg10
I8
sg11
I0
sg12
I0
sa(dp68
g2
I924
sg3
I59998
sg4
I0
sg5
I8
sg6
I6
sg7
I30081318
sg8
I897
sg9
I1
sg10
I162
sg11
I3
sg12
F2.6666666666666665
sa(dp69
g2
I733
sg3
I574899
sg4
I0
sg5
I0
sg6
I0
sg7
I3394898
sg8
I1148
sg9
I5
sg10
I134
sg11
I0
sg12
I0
sa(dp70
g2
I43
sg3
I878652
sg4
I0
sg5
I0
sg6
I0
sg7
I6996628
sg8
I1497
sg9
I1
sg10
I9
sg11
I0
sg12
I0
sa(dp71
g2
I568
sg3
I327062
sg4
I0
sg5
I0
sg6
I0
sg7
I12179752
sg8
I1609
sg9
I4
sg10
I97
sg11
I0
sg12
I0
sa(dp72
g2
I492
sg3
I342631
sg4
I0
sg5
I0
sg6
I0
sg7
I3071
sg8
I1087
sg9
I1
sg10
I104
sg11
I0
sg12
I0
sa(dp73
g2
I110
sg3
I858573
sg4
I0
sg5
I0
sg6
I0
sg7
I4706520
sg8
I1444
sg9
I2
sg10
I20
sg11
I0
sg12
I0
sa(dp74
g2
I212
sg3
I638204
sg4
I0
sg5
I0
sg6
I0
sg7
I931095
sg8
I1797
sg9
I1
sg10
I37
sg11
I0
sg12
I0
sa(dp75
g2
I140
sg3
I402002
sg4
I0
sg5
I6
sg6
I0
sg7
I610893
sg8
I1177
sg9
I2
sg10
I28
sg11
I1
sg12
F6.0
sa(dp76
g2
I76
sg3
I766537
sg4
I0
sg5
I0
sg6
I0
sg7
I3964691
sg8
I1199
sg9
I1
sg10
I15
sg11
I0
sg12
I0
sa(dp77
g2
I502
sg3
I173047
sg4
I0
sg5
I0
sg6
I2
sg7
I30408520
sg8
I200
sg9
I3
sg10
I78
sg11
I0
sg12
I0
sa(dp78
g2
I293
sg3
I275967
sg4
I0
sg5
I0
sg6
I0
sg7
I582337
sg8
I852
sg9
I1
sg10
I52
sg11
I0
sg12
I0
sa(dp79
g2
I103
sg3
I673220
sg4
I0
sg5
I0
sg6
I0
sg7
I4907053
sg8
I1234
sg9
I1
sg10
I20
sg11
I0
sg12
I0
sa(dp80
g2
I362
sg3
I431879
sg4
I0
sg5
I0
sg6
I1
sg7
I511059
sg8
I1073
sg9
I1
sg10
I74
sg11
I0
sg12
I0
sa(dp81
g2
I234
sg3
I1257399
sg4
I0
sg5
I0
sg6
I0
sg7
I627453
sg8
I905
sg9
I2
sg10
I47
sg11
I0
sg12
I0
sa(dp82
g2
I143
sg3
I414803
sg4
I0
sg5
I1
sg6
I0
sg7
I1747827
sg8
I1271
sg9
I1
sg10
I23
sg11
I1
sg12
F1.0
sa(dp83
g2
I441
sg3
I249963
sg4
I0
sg5
I5
sg6
I0
sg7
I990779
sg8
I1310
sg9
I3
sg10
I80
sg11
I2
sg12
F2.5
sa(dp84
g2
I159
sg3
I429208
sg4
I0
sg5
I0
sg6
I1
sg7
I2257449
sg8
I1630
sg9
I1
sg10
I28
sg11
I0
sg12
I0
sa(dp85
g2
I272
sg3
I427545
sg4
I0
sg5
I8
sg6
I0
sg7
I14981125
sg8
I591
sg9
I2
sg10
I50
sg11
I1
sg12
F8.0
sa(dp86
g2
I67
sg3
I619327
sg4
I0
sg5
I0
sg6
I0
sg7
I2600208
sg8
I1049
sg9
I1
sg10
I13
sg11
I0
sg12
I0
sa(dp87
g2
I129
sg3
I390539
sg4
I0
sg5
I0
sg6
I0
sg7
I339013
sg8
I1169
sg9
I1
sg10
I24
sg11
I0
sg12
I0
sa(dp88
g2
I179
sg3
I1780966
sg4
I0
sg5
I11
sg6
I0
sg7
I961638
sg8
I1213
sg9
I0
sg10
I35
sg11
I1
sg12
F11.0
sa(dp89
g2
I340
sg3
I195068
sg4
I0
sg5
I0
sg6
I0
sg7
I1301369
sg8
I711
sg9
I2
sg10
I58
sg11
I0
sg12
I0
sa(dp90
g2
I1066
sg3
I112894
sg4
I0
sg5
I0
sg6
I0
sg7
I886645
sg8
I521
sg9
I3
sg10
I176
sg11
I0
sg12
I0
sa(dp91
g2
I124
sg3
I290284
sg4
I0
sg5
I0
sg6
I0
sg7
I56190
sg8
I525
sg9
I1
sg10
I19
sg11
I0
sg12
I0
sa(dp92
g2
I482
sg3
I635642
sg4
I0
sg5
I9
sg6
I1
sg7
I606199
sg8
I1189
sg9
I1
sg10
I89
sg11
I4
sg12
F2.25
sa(dp93
g2
I81
sg3
I693948
sg4
I0
sg5
I0
sg6
I0
sg7
I1185529
sg8
I1043
sg9
I1
sg10
I14
sg11
I0
sg12
I0
sa(dp94
g2
I132
sg3
I1190359
sg4
I0
sg5
I0
sg6
I0
sg7
I2835672
sg8
I1111
sg9
I1
sg10
I25
sg11
I1
sg12
F0.0
sa(dp95
g2
I134
sg3
I145137
sg4
I0
sg5
I0
sg6
I0
sg7
I54873
sg8
I393
sg9
I2
sg10
I24
sg11
I0
sg12
I0
sa(dp96
g2
I84
sg3
I693870
sg4
I0
sg5
I4
sg6
I0
sg7
I761825
sg8
I1054
sg9
I1
sg10
I13
sg11
I1
sg12
F4.0
sa(dp97
g2
I348
sg3
I393559
sg4
I0
sg5
I0
sg6
I1
sg7
I230774
sg8
I849
sg9
I1
sg10
I62
sg11
I0
sg12
I0
sa(dp98
g2
I272
sg3
I894710
sg4
I0
sg5
I4
sg6
I0
sg7
I1504742
sg8
I976
sg9
I1
sg10
I52
sg11
I1
sg12
F4.0
sa(dp99
g2
I159
sg3
I405974
sg4
I0
sg5
I10
sg6
I1
sg7
I1549854
sg8
I742
sg9
I2
sg10
I24
sg11
I2
sg12
F5.0
sa(dp100
g2
I93
sg3
I518440
sg4
I0
sg5
I2
sg6
I0
sg7
I11277439
sg8
I1151
sg9
I1
sg10
I18
sg11
I1
sg12
F2.0
sa(dp101
g2
I198
sg3
I412466
sg4
I0
sg5
I0
sg6
I0
sg7
I152596
sg8
I840
sg9
I3
sg10
I40
sg11
I0
sg12
I0
sa(dp102
g2
I61
sg3
I445448
sg4
I0
sg5
I0
sg6
I0
sg7
I541394
sg8
I1099
sg9
I1
sg10
I10
sg11
I0
sg12
I0
sa(dp103
g2
I1245
sg3
I297314
sg4
I0
sg5
I6
sg6
I0
sg7
I1319675
sg8
I671
sg9
I3
sg10
I221
sg11
I1
sg12
F6.0
sa(dp104
g2
I417
sg3
I477535
sg4
I0
sg5
I0
sg6
I0
sg7
I2709832
sg8
I445
sg9
I2
sg10
I75
sg11
I1
sg12
F0.0
sa(dp105
g2
I2162
sg3
I264471
sg4
I0
sg5
I0
sg6
I0
sg7
I2576240
sg8
I471
sg9
I0
sg10
I385
sg11
I0
sg12
I0
sa(dp106
g2
I3115
sg3
I53171
sg4
I5
sg5
I0
sg6
I6
sg7
I3689710
sg8
I219
sg9
I3
sg10
I575
sg11
I0
sg12
I0
sa(dp107
g2
I220
sg3
I632348
sg4
I0
sg5
I1
sg6
I0
sg7
I9573259
sg8
I920
sg9
I2
sg10
I38
sg11
I1
sg12
F1.0
sa(dp108
g2
I602
sg3
I361213
sg4
I0
sg5
I0
sg6
I0
sg7
I890188
sg8
I725
sg9
I2
sg10
I103
sg11
I0
sg12
I0
sa(dp109
g2
I114
sg3
I219619
sg4
I0
sg5
I1
sg6
I0
sg7
I1952481
sg8
I525
sg9
I1
sg10
I24
sg11
I1
sg12
F1.0
sa(dp110
g2
I80
sg3
I234659
sg4
I0
sg5
I0
sg6
I0
sg7
I626871
sg8
I725
sg9
I2
sg10
I11
sg11
I0
sg12
I0
sa(dp111
g2
I209
sg3
I44045
sg4
I0
sg5
I12
sg6
I0
sg7
I11242447
sg8
I376
sg9
I1
sg10
I39
sg11
I4
sg12
F3.0
sa(dp112
g2
I301
sg3
I634228
sg4
I0
sg5
I2
sg6
I0
sg7
I11346337
sg8
I659
sg9
I0
sg10
I57
sg11
I2
sg12
F1.0
sa(dp113
g2
I37
sg3
I129061
sg4
I0
sg5
I2
sg6
I0
sg7
I5466478
sg8
I856
sg9
I0
sg10
I7
sg11
I1
sg12
F2.0
sa(dp114
g2
I171
sg3
I821271
sg4
I0
sg5
I3
sg6
I0
sg7
I53180
sg8
I706
sg9
I1
sg10
I34
sg11
I2
sg12
F1.5
sa(dp115
g2
I81
sg3
I714972
sg4
I0
sg5
I0
sg6
I0
sg7
I1093331
sg8
I744
sg9
I1
sg10
I13
sg11
I0
sg12
I0
sa(dp116
g2
I1009
sg3
I638956
sg4
I0
sg5
I7
sg6
I0
sg7
I9942822
sg8
I700
sg9
I1
sg10
I172
sg11
I2
sg12
F3.5
sa(dp117
g2
I235
sg3
I669515
sg4
I0
sg5
I4
sg6
I0
sg7
I6098238
sg8
I277
sg9
I2
sg10
I43
sg11
I1
sg12
F4.0
sa(dp118
g2
I18
sg3
I688222
sg4
I0
sg5
I0
sg6
I2
sg7
I227472
sg8
I799
sg9
I1
sg10
I5
sg11
I0
sg12
I0
sa(dp119
g2
I208
sg3
I268356
sg4
I0
sg5
I0
sg6
I0
sg7
I2998228
sg8
I407
sg9
I1
sg10
I35
sg11
I0
sg12
I0
sa(dp120
g2
I587
sg3
I155577
sg4
I0
sg5
I0
sg6
I2
sg7
I547714
sg8
I431
sg9
I6
sg10
I98
sg11
I0
sg12
I0
sa(dp121
g2
I164
sg3
I603406
sg4
I0
sg5
I0
sg6
I0
sg7
I23885252
sg8
I335
sg9
I1
sg10
I29
sg11
I0
sg12
I0
sa(dp122
g2
I418
sg3
I405323
sg4
I0
sg5
I0
sg6
I0
sg7
I3297564
sg8
I554
sg9
I2
sg10
I69
sg11
I0
sg12
I0
sa(dp123
g2
I386
sg3
I265392
sg4
I0
sg5
I0
sg6
I0
sg7
I1534343
sg8
I884
sg9
I3
sg10
I66
sg11
I0
sg12
I0
sa(dp124
g2
I282
sg3
I685742
sg4
I0
sg5
I3
sg6
I1
sg7
I7696966
sg8
I971
sg9
I1
sg10
I46
sg11
I1
sg12
F3.0
sa(dp125
g2
I287
sg3
I671426
sg4
I0
sg5
I6
sg6
I0
sg7
I1912483
sg8
I441
sg9
I1
sg10
I54
sg11
I1
sg12
F6.0
sa(dp126
g2
I369
sg3
I423700
sg4
I0
sg5
I1
sg6
I1
sg7
I5226504
sg8
I456
sg9
I2
sg10
I60
sg11
I1
sg12
F1.0
sa(dp127
g2
I138
sg3
I394637
sg4
I0
sg5
I0
sg6
I0
sg7
I67692
sg8
I668
sg9
I1
sg10
I26
sg11
I0
sg12
I0
sa(dp128
g2
I227
sg3
I1160437
sg4
I0
sg5
I0
sg6
I0
sg7
I6159912
sg8
I758
sg9
I3
sg10
I37
sg11
I0
sg12
I0
sa(dp129
g2
I100
sg3
I770797
sg4
I0
sg5
I0
sg6
I0
sg7
I3996930
sg8
I925
sg9
I1
sg10
I19
sg11
I0
sg12
I0
sa(dp130
g2
I517
sg3
I585564
sg4
I0
sg5
I0
sg6
I0
sg7
I22682
sg8
I322
sg9
I1
sg10
I95
sg11
I0
sg12
I0
sa(dp131
g2
I44
sg3
I635172
sg4
I0
sg5
I0
sg6
I0
sg7
I3289606
sg8
I790
sg9
I1
sg10
I9
sg11
I0
sg12
I0
sa(dp132
g2
I89
sg3
I739571
sg4
I0
sg5
I0
sg6
I0
sg7
I73673
sg8
I772
sg9
I1
sg10
I19
sg11
I0
sg12
I0
sa(dp133
g2
I409
sg3
I628696
sg4
I0
sg5
I0
sg6
I0
sg7
I5844692
sg8
I801
sg9
I2
sg10
I70
sg11
I0
sg12
I0
sa(dp134
g2
I196
sg3
I405440
sg4
I0
sg5
I5
sg6
I0
sg7
I845081
sg8
I185
sg9
I2
sg10
I37
sg11
I1
sg12
F5.0
sa(dp135
g2
I33
sg3
I337632
sg4
I0
sg5
I6
sg6
I0
sg7
I1323426
sg8
I758
sg9
I0
sg10
I6
sg11
I2
sg12
F3.0
sa(dp136
g2
I228
sg3
I353292
sg4
I0
sg5
I0
sg6
I0
sg7
I303225
sg8
I877
sg9
I1
sg10
I40
sg11
I0
sg12
I0
sa(dp137
g2
I161
sg3
I302481
sg4
I0
sg5
I16
sg6
I0
sg7
I6618176
sg8
I475
sg9
I1
sg10
I27
sg11
I2
sg12
F8.0
sa(dp138
g2
I87
sg3
I444298
sg4
I0
sg5
I2
sg6
I0
sg7
I8933290
sg8
I829
sg9
I0
sg10
I17
sg11
I1
sg12
F2.0
sa(dp139
g2
I62
sg3
I269477
sg4
I0
sg5
I0
sg6
I0
sg7
I1550235
sg8
I683
sg9
I1
sg10
I11
sg11
I0
sg12
I0
sa(dp140
g2
I53
sg3
I325688
sg4
I0
sg5
I75
sg6
I0
sg7
I5178698
sg8
I868
sg9
I1
sg10
I11
sg11
I1
sg12
F75.0
sa(dp141
g2
I145
sg3
I557998
sg4
I0
sg5
I2
sg6
I0
sg7
I13485766
sg8
I320
sg9
I0
sg10
I27
sg11
I2
sg12
F1.0
sa(dp142
g2
I550
sg3
I164927
sg4
I0
sg5
I0
sg6
I1
sg7
I2970722
sg8
I738
sg9
I5
sg10
I88
sg11
I0
sg12
I0
sa(dp143
g2
I224
sg3
I389036
sg4
I0
sg5
I0
sg6
I0
sg7
I39501288
sg8
I99
sg9
I1
sg10
I35
sg11
I0
sg12
I0
sa(dp144
g2
I128
sg3
I440155
sg4
I0
sg5
I0
sg6
I0
sg7
I1155647
sg8
I747
sg9
I1
sg10
I23
sg11
I0
sg12
I0
sa(dp145
g2
I430
sg3
I110935
sg4
I0
sg5
I0
sg6
I5
sg7
I18946824
sg8
I566
sg9
I2
sg10
I71
sg11
I0
sg12
I0
sa(dp146
g2
I133
sg3
I275500
sg4
I0
sg5
I5
sg6
I0
sg7
I209854
sg8
I937
sg9
I1
sg10
I23
sg11
I3
sg12
F1.6666666666666667
sa(dp147
g2
I145
sg3
I359797
sg4
I0
sg5
I0
sg6
I1
sg7
I192365
sg8
I303
sg9
I0
sg10
I28
sg11
I0
sg12
I0
sa(dp148
g2
I4392
sg3
I143569
sg4
I0
sg5
I0
sg6
I0
sg7
I14268804
sg8
I343
sg9
I0
sg10
I744
sg11
I0
sg12
I0
sa(dp149
g2
I200
sg3
I227140
sg4
I0
sg5
I3
sg6
I0
sg7
I1207461
sg8
I422
sg9
I1
sg10
I38
sg11
I1
sg12
F3.0
sa(dp150
g2
I257
sg3
I403462
sg4
I0
sg5
I1
sg6
I0
sg7
I1267892
sg8
I587
sg9
I1
sg10
I56
sg11
I1
sg12
F1.0
sa(dp151
g2
I1544
sg3
I101165
sg4
I0
sg5
I121
sg6
I2
sg7
I6964760
sg8
I636
sg9
I6
sg10
I246
sg11
I9
sg12
F13.444444444444445
sa(dp152
g2
I1039
sg3
I56987
sg4
I0
sg5
I0
sg6
I1
sg7
I30216156
sg8
I575
sg9
I2
sg10
I188
sg11
I0
sg12
I0
sa(dp153
g2
I166
sg3
I493822
sg4
I0
sg5
I0
sg6
I0
sg7
I2682752
sg8
I503
sg9
I1
sg10
I29
sg11
I0
sg12
I0
sa(dp154
g2
I232
sg3
I207139
sg4
I0
sg5
I0
sg6
I0
sg7
I600612
sg8
I718
sg9
I1
sg10
I48
sg11
I0
sg12
I0
sa(dp155
g2
I761
sg3
I66035
sg4
I0
sg5
I0
sg6
I1
sg7
I14753678
sg8
I708
sg9
I3
sg10
I134
sg11
I0
sg12
I0
sa(dp156
g2
I374
sg3
I140473
sg4
I0
sg5
I0
sg6
I3
sg7
I110826
sg8
I225
sg9
I0
sg10
I64
sg11
I0
sg12
I0
sa(dp157
g2
I309
sg3
I533309
sg4
I0
sg5
I14
sg6
I1
sg7
I9890599
sg8
I624
sg9
I1
sg10
I61
sg11
I1
sg12
F14.0
sa(dp158
g2
I533
sg3
I366692
sg4
I0
sg5
I16
sg6
I0
sg7
I10660443
sg8
I850
sg9
I0
sg10
I98
sg11
I2
sg12
F8.0
sa(dp159
g2
I102
sg3
I633348
sg4
I0
sg5
I2
sg6
I0
sg7
I3940144
sg8
I592
sg9
I1
sg10
I21
sg11
I1
sg12
F2.0
sa(dp160
g2
I535
sg3
I372585
sg4
I0
sg5
I21
sg6
I0
sg7
I10429168
sg8
I215
sg9
I1
sg10
I84
sg11
I4
sg12
F5.25
sa(dp161
g2
I333
sg3
I379930
sg4
I0
sg5
I6
sg6
I3
sg7
I480227
sg8
I522
sg9
I1
sg10
I59
sg11
I1
sg12
F6.0
sa(dp162
g2
I164
sg3
I225589
sg4
I0
sg5
I2
sg6
I0
sg7
I94962
sg8
I551
sg9
I0
sg10
I30
sg11
I1
sg12
F2.0
sa(dp163
g2
I48
sg3
I553599
sg4
I0
sg5
I0
sg6
I0
sg7
I3501408
sg8
I547
sg9
I1
sg10
I9
sg11
I0
sg12
I0
sa(dp164
g2
I133
sg3
I123298
sg4
I0
sg5
I0
sg6
I0
sg7
I44842
sg8
I227
sg9
I1
sg10
I26
sg11
I0
sg12
I0
sa(dp165
g2
I211
sg3
I349997
sg4
I0
sg5
I0
sg6
I0
sg7
I1769475
sg8
I532
sg9
I5
sg10
I44
sg11
I0
sg12
I0
sa(dp166
g2
I57
sg3
I347557
sg4
I0
sg5
I0
sg6
I0
sg7
I12950101
sg8
I512
sg9
I1
sg10
I9
sg11
I0
sg12
I0
sa(dp167
g2
I145
sg3
I336060
sg4
I0
sg5
I4
sg6
I0
sg7
I437591
sg8
I435
sg9
I1
sg10
I26
sg11
I1
sg12
F4.0
sa(dp168
g2
I137
sg3
I719952
sg4
I0
sg5
I4
sg6
I0
sg7
I730778
sg8
I662
sg9
I2
sg10
I26
sg11
I1
sg12
F4.0
sa(dp169
g2
I95
sg3
I1031090
sg4
I0
sg5
I1
sg6
I1
sg7
I518038
sg8
I825
sg9
I2
sg10
I18
sg11
I1
sg12
F1.0
sa(dp170
g2
I81
sg3
I489172
sg4
I0
sg5
I0
sg6
I0
sg7
I209550
sg8
I657
sg9
I1
sg10
I19
sg11
I0
sg12
I0
sa(dp171
g2
I96
sg3
I378002
sg4
I0
sg5
I0
sg6
I0
sg7
I325528
sg8
I433
sg9
I1
sg10
I11
sg11
I0
sg12
I0
sa(dp172
g2
I134
sg3
I143775
sg4
I0
sg5
I2
sg6
I0
sg7
I4015466
sg8
I335
sg9
I1
sg10
I26
sg11
I1
sg12
F2.0
sa(dp173
g2
I621
sg3
I176407
sg4
I0
sg5
I0
sg6
I0
sg7
I193181
sg8
I235
sg9
I7
sg10
I89
sg11
I0
sg12
I0
sa(dp174
g2
I452
sg3
I146364
sg4
I0
sg5
I12
sg6
I1
sg7
I3277407
sg8
I379
sg9
I3
sg10
I77
sg11
I1
sg12
F12.0
sa(dp175
g2
I112
sg3
I446077
sg4
I0
sg5
I4
sg6
I0
sg7
I843293
sg8
I835
sg9
I1
sg10
I18
sg11
I1
sg12
F4.0
sa(dp176
g2
I492
sg3
I220453
sg4
I0
sg5
I27
sg6
I1
sg7
I17330273
sg8
I547
sg9
I1
sg10
I97
sg11
I2
sg12
F13.5
sa(dp177
g2
I121
sg3
I611207
sg4
I0
sg5
I0
sg6
I0
sg7
I9001529
sg8
I520
sg9
I1
sg10
I24
sg11
I0
sg12
I0
sa(dp178
g2
I313
sg3
I461178
sg4
I0
sg5
I0
sg6
I0
sg7
I1485854
sg8
I593
sg9
I2
sg10
I48
sg11
I0
sg12
I0
sa(dp179
g2
I231
sg3
I98513
sg4
I0
sg5
I0
sg6
I0
sg7
I8609425
sg8
I551
sg9
I1
sg10
I41
sg11
I0
sg12
I0
sa(dp180
g2
I36
sg3
I132231
sg4
I0
sg5
I0
sg6
I0
sg7
I7943768
sg8
I655
sg9
I1
sg10
I7
sg11
I0
sg12
I0
sa(dp181
g2
I220
sg3
I158848
sg4
I0
sg5
I1
sg6
I0
sg7
I4028943
sg8
I771
sg9
I1
sg10
I37
sg11
I1
sg12
F1.0
sa(dp182
g2
I82
sg3
I463886
sg4
I0
sg5
I0
sg6
I0
sg7
I120701
sg8
I528
sg9
I1
sg10
I16
sg11
I0
sg12
I0
sa(dp183
g2
I99
sg3
I693883
sg4
I0
sg5
I4
sg6
I0
sg7
I2793341
sg8
I737
sg9
I1
sg10
I19
sg11
I2
sg12
F2.0
sa(dp184
g2
I640
sg3
I167494
sg4
I0
sg5
I0
sg6
I0
sg7
I261645
sg8
I289
sg9
I1
sg10
I113
sg11
I0
sg12
I0
sa(dp185
g2
I217
sg3
I495273
sg4
I0
sg5
I5
sg6
I0
sg7
I8369345
sg8
I605
sg9
I1
sg10
I46
sg11
I3
sg12
F1.6666666666666667
sa(dp186
g2
I500
sg3
I319108
sg4
I0
sg5
I0
sg6
I0
sg7
I21548557
sg8
I6
sg9
I2
sg10
I85
sg11
I0
sg12
I0
sa(dp187
g2
I112
sg3
I26523
sg4
I0
sg5
I6
sg6
I0
sg7
I31421411
sg8
I683
sg9
I1
sg10
I23
sg11
I3
sg12
F2.0
sa(dp188
g2
I469
sg3
I145051
sg4
I0
sg5
I6
sg6
I0
sg7
I682513
sg8
I573
sg9
I3
sg10
I88
sg11
I1
sg12
F6.0
sa(dp189
g2
I160
sg3
I106621
sg4
I0
sg5
I0
sg6
I0
sg7
I1247490
sg8
I409
sg9
I2
sg10
I27
sg11
I0
sg12
I0
sa(dp190
g2
I85
sg3
I315730
sg4
I0
sg5
I6
sg6
I0
sg7
I134951
sg8
I481
sg9
I0
sg10
I15
sg11
I2
sg12
F3.0
sa(dp191
g2
I291
sg3
I440296
sg4
I0
sg5
I6
sg6
I0
sg7
I4760517
sg8
I428
sg9
I1
sg10
I55
sg11
I1
sg12
F6.0
sa(dp192
g2
I119
sg3
I164983
sg4
I0
sg5
I0
sg6
I1
sg7
I14804320
sg8
I423
sg9
I2
sg10
I23
sg11
I0
sg12
I0
sa(dp193
g2
I166
sg3
I239910
sg4
I0
sg5
I50
sg6
I0
sg7
I5450183
sg8
I634
sg9
I1
sg10
I27
sg11
I3
sg12
F16.666666666666668
sa(dp194
g2
I875
sg3
I147807
sg4
I0
sg5
I0
sg6
I2
sg7
I1118271
sg8
I386
sg9
I3
sg10
I173
sg11
I0
sg12
I0
sa(dp195
g2
I234
sg3
I212141
sg4
I0
sg5
I14
sg6
I3
sg7
I11536794
sg8
I304
sg9
I1
sg10
I37
sg11
I3
sg12
F4.666666666666667
sa(dp196
g2
I81
sg3
I796451
sg4
I0
sg5
I14
sg6
I0
sg7
I2485471
sg8
I734
sg9
I1
sg10
I14
sg11
I1
sg12
F14.0
sa(dp197
g2
I324
sg3
I305387
sg4
I0
sg5
I20
sg6
I2
sg7
I10458567
sg8
I505
sg9
I2
sg10
I49
sg11
I2
sg12
F10.0
sa(dp198
g2
I574
sg3
I531503
sg4
I0
sg5
I0
sg6
I3
sg7
I27909082
sg8
I492
sg9
I1
sg10
I87
sg11
I0
sg12
I0
sa(dp199
g2
I239
sg3
I556163
sg4
I0
sg5
I6
sg6
I0
sg7
I7961390
sg8
I713
sg9
I0
sg10
I49
sg11
I1
sg12
F6.0
sa(dp200
g2
I524
sg3
I319900
sg4
I0
sg5
I2
sg6
I0
sg7
I3013686
sg8
I279
sg9
I4
sg10
I93
sg11
I2
sg12
F1.0
sa(dp201
g2
I352
sg3
I321168
sg4
I0
sg5
I0
sg6
I2
sg7
I2711073
sg8
I659
sg9
I1
sg10
I63
sg11
I0
sg12
I0
sa(dp202
g2
I869
sg3
I127999
sg4
I0
sg5
I4
sg6
I1
sg7
I2982
sg8
I642
sg9
I2
sg10
I158
sg11
I1
sg12
F4.0
sa(dp203
g2
I15
sg3
I182320
sg4
I0
sg5
I0
sg6
I0
sg7
I135114
sg8
I398
sg9
I1
sg10
I3
sg11
I0
sg12
I0
sa(dp204
g2
I358
sg3
I676349
sg4
I0
sg5
I38
sg6
I0
sg7
I743186
sg8
I513
sg9
I1
sg10
I56
sg11
I3
sg12
F12.666666666666666
sa(dp205
g2
I230
sg3
I289653
sg4
I0
sg5
I0
sg6
I0
sg7
I2104107
sg8
I382
sg9
I1
sg10
I44
sg11
I0
sg12
I0
sa(dp206
g2
I219
sg3
I489705
sg4
I0
sg5
I4
sg6
I0
sg7
I12309296
sg8
I763
sg9
I1
sg10
I42
sg11
I2
sg12
F2.0
sa(dp207
g2
I190
sg3
I277238
sg4
I0
sg5
I0
sg6
I0
sg7
I248862
sg8
I453
sg9
I1
sg10
I33
sg11
I0
sg12
I0
sa(dp208
g2
I112
sg3
I177630
sg4
I0
sg5
I0
sg6
I0
sg7
I24385103
sg8
I359
sg9
I1
sg10
I18
sg11
I0
sg12
I0
sa(dp209
g2
I573
sg3
I201195
sg4
I0
sg5
I4
sg6
I1
sg7
I842096
sg8
I540
sg9
I0
sg10
I99
sg11
I1
sg12
F4.0
sa(dp210
g2
I220
sg3
I182101
sg4
I0
sg5
I5
sg6
I0
sg7
I1154977
sg8
I425
sg9
I1
sg10
I43
sg11
I3
sg12
F1.6666666666666667
sa(dp211
g2
I297
sg3
I417519
sg4
I0
sg5
I9
sg6
I0
sg7
I24884342
sg8
I560
sg9
I0
sg10
I53
sg11
I3
sg12
F3.0
sa(dp212
g2
I112
sg3
I498042
sg4
I0
sg5
I0
sg6
I0
sg7
I431715
sg8
I405
sg9
I1
sg10
I18
sg11
I0
sg12
I0
sa(dp213
g2
I435
sg3
I172994
sg4
I0
sg5
I0
sg6
I0
sg7
I3371287
sg8
I210
sg9
I1
sg10
I80
sg11
I0
sg12
I0
sa(dp214
g2
I504
sg3
I286776
sg4
I0
sg5
I0
sg6
I0
sg7
I4700674
sg8
I67
sg9
I0
sg10
I106
sg11
I0
sg12
I0
sa(dp215
g2
I287
sg3
I326647
sg4
I0
sg5
I2
sg6
I0
sg7
I1059596
sg8
I302
sg9
I1
sg10
I54
sg11
I2
sg12
F1.0
sa(dp216
g2
I638
sg3
I477075
sg4
I0
sg5
I0
sg6
I0
sg7
I2967249
sg8
I493
sg9
I2
sg10
I123
sg11
I0
sg12
I0
sa(dp217
g2
I265
sg3
I197137
sg4
I0
sg5
I6
sg6
I0
sg7
I159745
sg8
I468
sg9
I1
sg10
I42
sg11
I2
sg12
F3.0
sa(dp218
g2
I66
sg3
I228245
sg4
I0
sg5
I0
sg6
I1
sg7
I441152
sg8
I632
sg9
I1
sg10
I14
sg11
I0
sg12
I0
sa(dp219
g2
I299
sg3
I303103
sg4
I0
sg5
I1
sg6
I0
sg7
I988251
sg8
I644
sg9
I2
sg10
I60
sg11
I1
sg12
F1.0
sa(dp220
g2
I239
sg3
I364629
sg4
I0
sg5
I0
sg6
I0
sg7
I1557584
sg8
I681
sg9
I0
sg10
I47
sg11
I0
sg12
I0
sa(dp221
g2
I876
sg3
I234433
sg4
I0
sg5
I34
sg6
I0
sg7
I70900
sg8
I387
sg9
I4
sg10
I143
sg11
I6
sg12
F5.666666666666667
sa(dp222
g2
I307
sg3
I473081
sg4
I0
sg5
I1
sg6
I1
sg7
I2632687
sg8
I685
sg9
I3
sg10
I50
sg11
I1
sg12
F1.0
sa(dp223
g2
I405
sg3
I219187
sg4
I0
sg5
I24
sg6
I2
sg7
I6504860
sg8
I859
sg9
I0
sg10
I75
sg11
I3
sg12
F8.0
sa(dp224
g2
I218
sg3
I577526
sg4
I0
sg5
I5
sg6
I0
sg7
I9257122
sg8
I666
sg9
I1
sg10
I36
sg11
I2
sg12
F2.5
sa(dp225
g2
I237
sg3
I390932
sg4
I0
sg5
I0
sg6
I0
sg7
I678242
sg8
I548
sg9
I2
sg10
I48
sg11
I0
sg12
I0
sa(dp226
g2
I134
sg3
I251261
sg4
I0
sg5
I2
sg6
I0
sg7
I3845453
sg8
I620
sg9
I1
sg10
I25
sg11
I1
sg12
F2.0
sa(dp227
g2
I258
sg3
I635199
sg4
I0
sg5
I9
sg6
I0
sg7
I311655
sg8
I574
sg9
I1
sg10
I43
sg11
I3
sg12
F3.0
sa(dp228
g2
I279
sg3
I215351
sg4
I0
sg5
I5
sg6
I0
sg7
I403426
sg8
I668
sg9
I0
sg10
I50
sg11
I2
sg12
F2.5
sa(dp229
g2
I232
sg3
I94775
sg4
I0
sg5
I1
sg6
I0
sg7
I4480202
sg8
I499
sg9
I0
sg10
I44
sg11
I1
sg12
F1.0
sa(dp230
g2
I74
sg3
I210268
sg4
I0
sg5
I0
sg6
I0
sg7
I24377
sg8
I438
sg9
I1
sg10
I11
sg11
I0
sg12
I0
sa(dp231
g2
I136
sg3
I264251
sg4
I0
sg5
I5
sg6
I0
sg7
I2186565
sg8
I720
sg9
I0
sg10
I23
sg11
I2
sg12
F2.5
sa(dp232
g2
I175
sg3
I117985
sg4
I0
sg5
I1
sg6
I0
sg7
I624939
sg8
I480
sg9
I0
sg10
I34
sg11
I2
sg12
F0.5
sa(dp233
g2
I108
sg3
I355056
sg4
I0
sg5
I0
sg6
I0
sg7
I944733
sg8
I493
sg9
I1
sg10
I22
sg11
I0
sg12
I0
sa(dp234
g2
I211
sg3
I142745
sg4
I0
sg5
I0
sg6
I0
sg7
I1937636
sg8
I453
sg9
I2
sg10
I46
sg11
I0
sg12
I0
sa(dp235
g2
I119
sg3
I237025
sg4
I0
sg5
I4
sg6
I0
sg7
I3768975
sg8
I294
sg9
I1
sg10
I21
sg11
I2
sg12
F2.0
sa(dp236
g2
I273
sg3
I151855
sg4
I0
sg5
I17
sg6
I1
sg7
I133024
sg8
I537
sg9
I3
sg10
I49
sg11
I2
sg12
F8.5
sa(dp237
g2
I104
sg3
I92388
sg4
I0
sg5
I0
sg6
I1
sg7
I28059785
sg8
I240
sg9
I1
sg10
I22
sg11
I0
sg12
I0
sa(dp238
g2
I261
sg3
I275822
sg4
I0
sg5
I3
sg6
I0
sg7
I268285
sg8
I288
sg9
I1
sg10
I44
sg11
I2
sg12
F1.5
sa(dp239
g2
I177
sg3
I1014353
sg4
I0
sg5
I5
sg6
I0
sg7
I6667288
sg8
I508
sg9
I1
sg10
I29
sg11
I3
sg12
F1.6666666666666667
sa(dp240
g2
I607
sg3
I682080
sg4
I0
sg5
I0
sg6
I0
sg7
I2988117
sg8
I458
sg9
I1
sg10
I113
sg11
I0
sg12
I0
sa(dp241
g2
I188
sg3
I404944
sg4
I0
sg5
I0
sg6
I0
sg7
I4344029
sg8
I642
sg9
I1
sg10
I31
sg11
I0
sg12
I0
sa(dp242
g2
I120
sg3
I234019
sg4
I0
sg5
I1
sg6
I0
sg7
I4260304
sg8
I574
sg9
I1
sg10
I18
sg11
I1
sg12
F1.0
sa(dp243
g2
I93
sg3
I790580
sg4
I0
sg5
I0
sg6
I0
sg7
I4435752
sg8
I359
sg9
I1
sg10
I16
sg11
I0
sg12
I0
sa(dp244
g2
I281
sg3
I83420
sg4
I0
sg5
I0
sg6
I1
sg7
I2921893
sg8
I555
sg9
I6
sg10
I52
sg11
I0
sg12
I0
sa(dp245
g2
I138
sg3
I254674
sg4
I0
sg5
I0
sg6
I0
sg7
I4271755
sg8
I581
sg9
I0
sg10
I24
sg11
I0
sg12
I0
sa(dp246
g2
I114
sg3
I279718
sg4
I0
sg5
I0
sg6
I0
sg7
I529427
sg8
I600
sg9
I0
sg10
I25
sg11
I0
sg12
I0
sa(dp247
g2
I188
sg3
I133521
sg4
I0
sg5
I0
sg6
I2
sg7
I3044626
sg8
I286
sg9
I1
sg10
I28
sg11
I0
sg12
I0
sa(dp248
g2
I207
sg3
I140386
sg4
I0
sg5
I0
sg6
I0
sg7
I43663
sg8
I650
sg9
I2
sg10
I33
sg11
I0
sg12
I0
sa(dp249
g2
I130
sg3
I251092
sg4
I0
sg5
I0
sg6
I0
sg7
I5142453
sg8
I407
sg9
I2
sg10
I25
sg11
I0
sg12
I0
sa(dp250
g2
I231
sg3
I386381
sg4
I0
sg5
I10
sg6
I0
sg7
I976918
sg8
I594
sg9
I1
sg10
I46
sg11
I1
sg12
F10.0
sa(dp251
g2
I269
sg3
I309969
sg4
I0
sg5
I14
sg6
I1
sg7
I433161
sg8
I754
sg9
I1
sg10
I53
sg11
I2
sg12
F7.0
sa(dp252
g2
I149
sg3
I322575
sg4
I0
sg5
I1
sg6
I0
sg7
I51523
sg8
I495
sg9
I1
sg10
I28
sg11
I1
sg12
F1.0
sa(dp253
g2
I277
sg3
I123743
sg4
I0
sg5
I8
sg6
I0
sg7
I1305663
sg8
I520
sg9
I1
sg10
I47
sg11
I2
sg12
F4.0
sa(dp254
g2
I475
sg3
I207171
sg4
I0
sg5
I8
sg6
I1
sg7
I73149
sg8
I210
sg9
I2
sg10
I81
sg11
I1
sg12
F8.0
sa(dp255
g2
I214
sg3
I83705
sg4
I0
sg5
I3
sg6
I0
sg7
I11011846
sg8
I705
sg9
I0
sg10
I42
sg11
I2
sg12
F1.5
sa(dp256
g2
I61
sg3
I340184
sg4
I0
sg5
I5
sg6
I0
sg7
I3965129
sg8
I508
sg9
I1
sg10
I10
sg11
I1
sg12
F5.0
sa(dp257
g2
I1778
sg3
I132708
sg4
I0
sg5
I56
sg6
I2
sg7
I6798042
sg8
I255
sg9
I3
sg10
I304
sg11
I4
sg12
F14.0
sa(dp258
g2
I395
sg3
I147258
sg4
I0
sg5
I2
sg6
I1
sg7
I4896288
sg8
I294
sg9
I1
sg10
I79
sg11
I1
sg12
F2.0
sa(dp259
g2
I397
sg3
I164493
sg4
I0
sg5
I27
sg6
I1
sg7
I674369
sg8
I379
sg9
I2
sg10
I66
sg11
I2
sg12
F13.5
sa(dp260
g2
I227
sg3
I184376
sg4
I0
sg5
I6
sg6
I0
sg7
I279586
sg8
I420
sg9
I3
sg10
I36
sg11
I1
sg12
F6.0
sa(dp261
g2
I734
sg3
I270026
sg4
I0
sg5
I8
sg6
I0
sg7
I16946886
sg8
I182
sg9
I0
sg10
I130
sg11
I2
sg12
F4.0
sa(dp262
g2
I86
sg3
I359785
sg4
I0
sg5
I0
sg6
I1
sg7
I4426727
sg8
I557
sg9
I1
sg10
I18
sg11
I0
sg12
I0
sa(dp263
g2
I166
sg3
I209226
sg4
I0
sg5
I4
sg6
I0
sg7
I255297
sg8
I422
sg9
I3
sg10
I31
sg11
I1
sg12
F4.0
sa(dp264
g2
I67
sg3
I167750
sg4
I0
sg5
I0
sg6
I0
sg7
I855764
sg8
I584
sg9
I1
sg10
I13
sg11
I0
sg12
I0
sa(dp265
g2
I96
sg3
I145841
sg4
I0
sg5
I0
sg6
I0
sg7
I129522
sg8
I303
sg9
I1
sg10
I16
sg11
I0
sg12
I0
sa(dp266
g2
I381
sg3
I175458
sg4
I0
sg5
I0
sg6
I0
sg7
I1823101
sg8
I219
sg9
I1
sg10
I67
sg11
I0
sg12
I0
sa(dp267
g2
I208
sg3
I244679
sg4
I0
sg5
I10
sg6
I0
sg7
I1663826
sg8
I594
sg9
I1
sg10
I40
sg11
I3
sg12
F3.3333333333333335
sa(dp268
g2
I213
sg3
I686952
sg4
I0
sg5
I3
sg6
I0
sg7
I8270146
sg8
I758
sg9
I1
sg10
I37
sg11
I1
sg12
F3.0
sa(dp269
g2
I169
sg3
I359026
sg4
I0
sg5
I0
sg6
I4
sg7
I1009864
sg8
I231
sg9
I1
sg10
I27
sg11
I0
sg12
I0
sa(dp270
g2
I73
sg3
I188187
sg4
I0
sg5
I0
sg6
I0
sg7
I1472014
sg8
I245
sg9
I1
sg10
I14
sg11
I0
sg12
I0
sa(dp271
g2
I70
sg3
I238743
sg4
I0
sg5
I0
sg6
I0
sg7
I372121
sg8
I390
sg9
I1
sg10
I10
sg11
I0
sg12
I0
sa(dp272
g2
I775
sg3
I93755
sg4
I0
sg5
I0
sg6
I0
sg7
I573659
sg8
I245
sg9
I1
sg10
I141
sg11
I0
sg12
I0
sa(dp273
g2
I183
sg3
I338189
sg4
I0
sg5
I2
sg6
I0
sg7
I477635
sg8
I421
sg9
I1
sg10
I36
sg11
I1
sg12
F2.0
sa(dp274
g2
I399
sg3
I424773
sg4
I0
sg5
I5
sg6
I1
sg7
I2802748
sg8
I684
sg9
I3
sg10
I67
sg11
I2
sg12
F2.5
sa(dp275
g2
I58
sg3
I283715
sg4
I0
sg5
I3
sg6
I0
sg7
I266162
sg8
I462
sg9
I1
sg10
I10
sg11
I1
sg12
F3.0
sa(dp276
g2
I242
sg3
I109804
sg4
I0
sg5
I5
sg6
I0
sg7
I4617069
sg8
I518
sg9
I1
sg10
I44
sg11
I1
sg12
F5.0
sa(dp277
g2
I976
sg3
I67533
sg4
I0
sg5
I7
sg6
I1
sg7
I24266885
sg8
I298
sg9
I2
sg10
I184
sg11
I1
sg12
F7.0
sa(dp278
g2
I131
sg3
I332623
sg4
I0
sg5
I3
sg6
I1
sg7
I8858026
sg8
I477
sg9
I1
sg10
I27
sg11
I1
sg12
F3.0
sa(dp279
g2
I113
sg3
I434170
sg4
I0
sg5
I3
sg6
I0
sg7
I3430395
sg8
I709
sg9
I1
sg10
I17
sg11
I2
sg12
F1.5
sa(dp280
g2
I223
sg3
I280236
sg4
I0
sg5
I3
sg6
I0
sg7
I3462160
sg8
I508
sg9
I1
sg10
I41
sg11
I2
sg12
F1.5
sa(dp281
g2
I190
sg3
I236167
sg4
I0
sg5
I8
sg6
I0
sg7
I2504457
sg8
I369
sg9
I2
sg10
I29
sg11
I2
sg12
F4.0
sa(dp282
g2
I347
sg3
I454983
sg4
I0
sg5
I6
sg6
I0
sg7
I181557
sg8
I360
sg9
I1
sg10
I56
sg11
I2
sg12
F3.0
sa(dp283
g2
I212
sg3
I384175
sg4
I0
sg5
I10
sg6
I1
sg7
I642895
sg8
I133
sg9
I1
sg10
I38
sg11
I4
sg12
F2.5
sa(dp284
g2
I134
sg3
I347660
sg4
I0
sg5
I0
sg6
I0
sg7
I166520
sg8
I260
sg9
I1
sg10
I20
sg11
I0
sg12
I0
sa(dp285
g2
I325
sg3
I160924
sg4
I0
sg5
I0
sg6
I0
sg7
I107717
sg8
I286
sg9
I3
sg10
I55
sg11
I0
sg12
I0
sa(dp286
g2
I814
sg3
I32105
sg4
I0
sg5
I28
sg6
I0
sg7
I29489919
sg8
I548
sg9
I1
sg10
I140
sg11
I2
sg12
F14.0
sa(dp287
g2
I247
sg3
I213702
sg4
I0
sg5
I0
sg6
I0
sg7
I1112350
sg8
I473
sg9
I1
sg10
I44
sg11
I0
sg12
I0
sa(dp288
g2
I778
sg3
I18148
sg4
I6
sg5
I0
sg6
I0
sg7
I20850922
sg8
I151
sg9
I2
sg10
I109
sg11
I0
sg12
I0
sa(dp289
g2
I841
sg3
I169831
sg4
I0
sg5
I16
sg6
I0
sg7
I301146
sg8
I202
sg9
I0
sg10
I143
sg11
I3
sg12
F5.333333333333333
sa(dp290
g2
I78
sg3
I168520
sg4
I0
sg5
I0
sg6
I0
sg7
I3743240
sg8
I489
sg9
I1
sg10
I18
sg11
I0
sg12
I0
sa(dp291
g2
I140
sg3
I173341
sg4
I0
sg5
I2
sg6
I2
sg7
I19305076
sg8
I452
sg9
I4
sg10
I22
sg11
I2
sg12
F1.0
sa(dp292
g2
I228
sg3
I165052
sg4
I0
sg5
I0
sg6
I0
sg7
I10215100
sg8
I395
sg9
I1
sg10
I45
sg11
I0
sg12
I0
sa(dp293
g2
I446
sg3
I154304
sg4
I0
sg5
I3
sg6
I0
sg7
I944660
sg8
I108
sg9
I2
sg10
I86
sg11
I2
sg12
F1.5
sa(dp294
g2
I261
sg3
I112220
sg4
I0
sg5
I0
sg6
I0
sg7
I2051195
sg8
I388
sg9
I1
sg10
I47
sg11
I0
sg12
I0
sa(dp295
g2
I223
sg3
I207879
sg4
I0
sg5
I0
sg6
I0
sg7
I920181
sg8
I192
sg9
I1
sg10
I34
sg11
I0
sg12
I0
sa(dp296
g2
I60
sg3
I293824
sg4
I0
sg5
I2
sg6
I0
sg7
I538374
sg8
I252
sg9
I1
sg10
I12
sg11
I1
sg12
F2.0
sa(dp297
g2
I310
sg3
I322392
sg4
I0
sg5
I19
sg6
I0
sg7
I104436
sg8
I221
sg9
I1
sg10
I48
sg11
I2
sg12
F9.5
sa(dp298
g2
I62
sg3
I114837
sg4
I0
sg5
I0
sg6
I0
sg7
I1857
sg8
I401
sg9
I1
sg10
I14
sg11
I0
sg12
I0
sa(dp299
g2
I173
sg3
I160916
sg4
I0
sg5
I2
sg6
I0
sg7
I483833
sg8
I419
sg9
I0
sg10
I30
sg11
I2
sg12
F1.0
sa(dp300
g2
I354
sg3
I146855
sg4
I0
sg5
I0
sg6
I2
sg7
I22045954
sg8
I115
sg9
I0
sg10
I71
sg11
I0
sg12
I0
sa(dp301
g2
I635
sg3
I332840
sg4
I0
sg5
I13
sg6
I0
sg7
I805081
sg8
I380
sg9
I1
sg10
I113
sg11
I1
sg12
F13.0
sa(dp302
g2
I1054
sg3
I132802
sg4
I0
sg5
I9
sg6
I1
sg7
I406199
sg8
I260
sg9
I1
sg10
I185
sg11
I6
sg12
F1.5
sa(dp303
g2
I106
sg3
I92844
sg4
I0
sg5
I0
sg6
I0
sg7
I1429145
sg8
I234
sg9
I0
sg10
I16
sg11
I0
sg12
I0
sa(dp304
g2
I44
sg3
I116810
sg4
I0
sg5
I4
sg6
I0
sg7
I5893946
sg8
I447
sg9
I1
sg10
I10
sg11
I1
sg12
F4.0
sa(dp305
g2
I395
sg3
I343090
sg4
I0
sg5
I1
sg6
I0
sg7
I645318
sg8
I467
sg9
I2
sg10
I82
sg11
I1
sg12
F1.0
sa(dp306
g2
I261
sg3
I248859
sg4
I0
sg5
I2
sg6
I1
sg7
I715455
sg8
I417
sg9
I1
sg10
I54
sg11
I1
sg12
F2.0
sa(dp307
g2
I624
sg3
I207442
sg4
I0
sg5
I13
sg6
I0
sg7
I1641236
sg8
I638
sg9
I1
sg10
I106
sg11
I2
sg12
F6.5
sa(dp308
g2
I238
sg3
I75662
sg4
I0
sg5
I0
sg6
I1
sg7
I427160
sg8
I400
sg9
I1
sg10
I49
sg11
I0
sg12
I0
sa(dp309
g2
I839
sg3
I125531
sg4
I0
sg5
I0
sg6
I0
sg7
I5844931
sg8
I217
sg9
I1
sg10
I146
sg11
I0
sg12
I0
sa(dp310
g2
I467
sg3
I452109
sg4
I0
sg5
I5
sg6
I0
sg7
I8010133
sg8
I831
sg9
I1
sg10
I83
sg11
I1
sg12
F5.0
sa(dp311
g2
I102
sg3
I545934
sg4
I0
sg5
I0
sg6
I0
sg7
I1207479
sg8
I418
sg9
I1
sg10
I17
sg11
I0
sg12
I0
sa(dp312
g2
I853
sg3
I677141
sg4
I0
sg5
I22
sg6
I0
sg7
I7571665
sg8
I636
sg9
I2
sg10
I151
sg11
I6
sg12
F3.6666666666666665
sa(dp313
g2
I331
sg3
I334125
sg4
I0
sg5
I0
sg6
I0
sg7
I319435
sg8
I324
sg9
I1
sg10
I59
sg11
I0
sg12
I0
sa(dp314
g2
I114
sg3
I211324
sg4
I0
sg5
I0
sg6
I0
sg7
I145436
sg8
I85
sg9
I1
sg10
I20
sg11
I0
sg12
I0
sa(dp315
g2
I291
sg3
I352611
sg4
I0
sg5
I1
sg6
I0
sg7
I1835044
sg8
I249
sg9
I1
sg10
I61
sg11
I1
sg12
F1.0
sa(dp316
g2
I200
sg3
I73306
sg4
I0
sg5
I0
sg6
I0
sg7
I712799
sg8
I322
sg9
I1
sg10
I31
sg11
I0
sg12
I0
sa(dp317
g2
I306
sg3
I296772
sg4
I0
sg5
I2
sg6
I0
sg7
I3121985
sg8
I568
sg9
I2
sg10
I58
sg11
I1
sg12
F2.0
sa(dp318
g2
I242
sg3
I272190
sg4
I0
sg5
I0
sg6
I0
sg7
I269825
sg8
I250
sg9
I2
sg10
I45
sg11
I0
sg12
I0
sa(dp319
g2
I68
sg3
I250875
sg4
I0
sg5
I2
sg6
I0
sg7
I1549644
sg8
I500
sg9
I1
sg10
I10
sg11
I2
sg12
F1.0
sa(dp320
g2
I458
sg3
I294479
sg4
I0
sg5
I12
sg6
I1
sg7
I16476974
sg8
I455
sg9
I1
sg10
I91
sg11
I5
sg12
F2.4
sa(dp321
g2
I525
sg3
I138896
sg4
I0
sg5
I0
sg6
I2
sg7
I7286
sg8
I455
sg9
I2
sg10
I93
sg11
I0
sg12
I0
sa(dp322
g2
I253
sg3
I223780
sg4
I0
sg5
I0
sg6
I0
sg7
I12944035
sg8
I497
sg9
I1
sg10
I51
sg11
I0
sg12
I0
sa(dp323
g2
I464
sg3
I478808
sg4
I0
sg5
I8
sg6
I0
sg7
I12555510
sg8
I356
sg9
I0
sg10
I89
sg11
I2
sg12
F4.0
sa(dp324
g2
I405
sg3
I308067
sg4
I0
sg5
I0
sg6
I1
sg7
I50905
sg8
I182
sg9
I1
sg10
I69
sg11
I0
sg12
I0
sa(dp325
g2
I54
sg3
I221124
sg4
I0
sg5
I0
sg6
I0
sg7
I4990739
sg8
I243
sg9
I1
sg10
I10
sg11
I0
sg12
I0
sa(dp326
g2
I216
sg3
I159746
sg4
I0
sg5
I0
sg6
I1
sg7
I383953
sg8
I193
sg9
I1
sg10
I42
sg11
I0
sg12
I0
sa(dp327
g2
I140
sg3
I329363
sg4
I0
sg5
I0
sg6
I0
sg7
I7604981
sg8
I352
sg9
I1
sg10
I27
sg11
I0
sg12
I0
sa(dp328
g2
I290
sg3
I377695
sg4
I0
sg5
I0
sg6
I0
sg7
I2759130
sg8
I476
sg9
I0
sg10
I52
sg11
I0
sg12
I0
sa(dp329
g2
I101
sg3
I168130
sg4
I0
sg5
I0
sg6
I1
sg7
I31887
sg8
I271
sg9
I1
sg10
I17
sg11
I0
sg12
I0
sa(dp330
g2
I228
sg3
I56779
sg4
I0
sg5
I0
sg6
I1
sg7
I309000
sg8
I533
sg9
I1
sg10
I39
sg11
I0
sg12
I0
sa(dp331
g2
I43
sg3
I153099
sg4
I0
sg5
I0
sg6
I0
sg7
I3654936
sg8
I318
sg9
I1
sg10
I9
sg11
I0
sg12
I0
sa(dp332
g2
I295
sg3
I198131
sg4
I0
sg5
I6
sg6
I0
sg7
I1523456
sg8
I358
sg9
I2
sg10
I45
sg11
I1
sg12
F6.0
sa(dp333
g2
I508
sg3
I165761
sg4
I0
sg5
I0
sg6
I1
sg7
I2081708
sg8
I326
sg9
I5
sg10
I98
sg11
I0
sg12
I0
sa(dp334
g2
I568
sg3
I37574
sg4
I0
sg5
I10
sg6
I0
sg7
I306353
sg8
I243
sg9
I3
sg10
I95
sg11
I1
sg12
F10.0
sa(dp335
g2
I53
sg3
I325457
sg4
I0
sg5
I1
sg6
I0
sg7
I5607708
sg8
I275
sg9
I0
sg10
I9
sg11
I1
sg12
F1.0
sa(dp336
g2
I176
sg3
I321000
sg4
I0
sg5
I1
sg6
I0
sg7
I17071908
sg8
I572
sg9
I1
sg10
I31
sg11
I1
sg12
F1.0
sa(dp337
g2
I168
sg3
I184331
sg4
I0
sg5
I0
sg6
I1
sg7
I25689
sg8
I94
sg9
I1
sg10
I32
sg11
I0
sg12
I0
sa(dp338
g2
I354
sg3
I300408
sg4
I0
sg5
I40
sg6
I0
sg7
I2428119
sg8
I634
sg9
I0
sg10
I59
sg11
I2
sg12
F20.0
sa(dp339
g2
I449
sg3
I508095
sg4
I0
sg5
I4
sg6
I0
sg7
I2349998
sg8
I209
sg9
I4
sg10
I87
sg11
I2
sg12
F2.0
sa(dp340
g2
I232
sg3
I361051
sg4
I0
sg5
I14
sg6
I1
sg7
I4041253
sg8
I330
sg9
I3
sg10
I42
sg11
I2
sg12
F7.0
sa(dp341
g2
I580
sg3
I102232
sg4
I0
sg5
I11
sg6
I2
sg7
I9719731
sg8
I217
sg9
I3
sg10
I105
sg11
I2
sg12
F5.5
sa(dp342
g2
I243
sg3
I135762
sg4
I0
sg5
I6
sg6
I0
sg7
I222922
sg8
I188
sg9
I0
sg10
I43
sg11
I2
sg12
F3.0
sa(dp343
g2
I229
sg3
I243700
sg4
I0
sg5
I8
sg6
I0
sg7
I2776392
sg8
I133
sg9
I1
sg10
I45
sg11
I1
sg12
F8.0
sa(dp344
g2
I325
sg3
I160083
sg4
I0
sg5
I0
sg6
I1
sg7
I1466036
sg8
I369
sg9
I1
sg10
I54
sg11
I0
sg12
I0
sa(dp345
g2
I198
sg3
I152797
sg4
I0
sg5
I0
sg6
I0
sg7
I534847
sg8
I195
sg9
I2
sg10
I36
sg11
I0
sg12
I0
sa(dp346
g2
I78
sg3
I182793
sg4
I0
sg5
I0
sg6
I0
sg7
I1206856
sg8
I255
sg9
I1
sg10
I15
sg11
I0
sg12
I0
sa(dp347
g2
I328
sg3
I70497
sg4
I0
sg5
I12
sg6
I5
sg7
I2158532
sg8
I245
sg9
I3
sg10
I59
sg11
I3
sg12
F4.0
sa(dp348
g2
I587
sg3
I247938
sg4
I0
sg5
I5
sg6
I0
sg7
I10538412
sg8
I496
sg9
I1
sg10
I97
sg11
I2
sg12
F2.5
sa(dp349
g2
I222
sg3
I66520
sg4
I0
sg5
I3
sg6
I0
sg7
I19343
sg8
I460
sg9
I1
sg10
I41
sg11
I1
sg12
F3.0
sa(dp350
g2
I418
sg3
I693464
sg4
I0
sg5
I0
sg6
I0
sg7
I675448
sg8
I261
sg9
I1
sg10
I78
sg11
I0
sg12
I0
sa(dp351
g2
I258
sg3
I245466
sg4
I0
sg5
I9
sg6
I1
sg7
I865272
sg8
I400
sg9
I2
sg10
I46
sg11
I1
sg12
F9.0
sa(dp352
g2
I176
sg3
I191309
sg4
I0
sg5
I1
sg6
I0
sg7
I10763461
sg8
I173
sg9
I1
sg10
I37
sg11
I1
sg12
F1.0
sa(dp353
g2
I197
sg3
I1007143
sg4
I0
sg5
I10
sg6
I0
sg7
I743823
sg8
I226
sg9
I1
sg10
I40
sg11
I1
sg12
F10.0
sa(dp354
g2
I166
sg3
I119125
sg4
I0
sg5
I2
sg6
I1
sg7
I8538295
sg8
I401
sg9
I1
sg10
I31
sg11
I2
sg12
F1.0
sa(dp355
g2
I222
sg3
I179635
sg4
I0
sg5
I0
sg6
I3
sg7
I206964
sg8
I340
sg9
I1
sg10
I41
sg11
I0
sg12
I0
sa(dp356
g2
I467
sg3
I321598
sg4
I0
sg5
I1
sg6
I0
sg7
I1535336
sg8
I314
sg9
I2
sg10
I82
sg11
I1
sg12
F1.0
sa(dp357
g2
I220
sg3
I336794
sg4
I0
sg5
I0
sg6
I0
sg7
I5458807
sg8
I111
sg9
I1
sg10
I35
sg11
I0
sg12
I0
sa(dp358
g2
I147
sg3
I735660
sg4
I0
sg5
I5
sg6
I0
sg7
I6416142
sg8
I620
sg9
I1
sg10
I27
sg11
I2
sg12
F2.5
sa(dp359
g2
I116
sg3
I591400
sg4
I0
sg5
I8
sg6
I0
sg7
I492399
sg8
I325
sg9
I1
sg10
I16
sg11
I1
sg12
F8.0
sa(dp360
g2
I566
sg3
I58196
sg4
I0
sg5
I6
sg6
I1
sg7
I434411
sg8
I200
sg9
I1
sg10
I100
sg11
I2
sg12
F3.0
sa(dp361
g2
I367
sg3
I172929
sg4
I0
sg5
I3
sg6
I0
sg7
I11875813
sg8
I163
sg9
I1
sg10
I65
sg11
I1
sg12
F3.0
sa(dp362
g2
I277
sg3
I11687
sg4
I0
sg5
I4
sg6
I0
sg7
I240205
sg8
I229
sg9
I1
sg10
I50
sg11
I4
sg12
F1.0
sa(dp363
g2
I554
sg3
I136143
sg4
I0
sg5
I8
sg6
I0
sg7
I13107
sg8
I222
sg9
I2
sg10
I99
sg11
I2
sg12
F4.0
sa(dp364
g2
I139
sg3
I662227
sg4
I0
sg5
I1
sg6
I0
sg7
I899176
sg8
I391
sg9
I1
sg10
I25
sg11
I1
sg12
F1.0
sa(dp365
g2
I219
sg3
I512035
sg4
I0
sg5
I2
sg6
I0
sg7
I4843172
sg8
I460
sg9
I2
sg10
I52
sg11
I2
sg12
F1.0
sa(dp366
g2
I508
sg3
I158536
sg4
I0
sg5
I8
sg6
I0
sg7
I292502
sg8
I244
sg9
I3
sg10
I75
sg11
I1
sg12
F8.0
sa(dp367
g2
I60
sg3
I211738
sg4
I0
sg5
I0
sg6
I0
sg7
I377463
sg8
I399
sg9
I1
sg10
I11
sg11
I0
sg12
I0
sa(dp368
g2
I409
sg3
I82429
sg4
I0
sg5
I11
sg6
I0
sg7
I256260
sg8
I293
sg9
I1
sg10
I70
sg11
I1
sg12
F11.0
sa(dp369
g2
I74
sg3
I124562
sg4
I0
sg5
I3
sg6
I0
sg7
I452143
sg8
I289
sg9
I1
sg10
I11
sg11
I2
sg12
F1.5
sa(dp370
g2
I153
sg3
I640001
sg4
I0
sg5
I0
sg6
I0
sg7
I70833
sg8
I218
sg9
I1
sg10
I30
sg11
I0
sg12
I0
sa(dp371
g2
I107
sg3
I130305
sg4
I0
sg5
I3
sg6
I0
sg7
I10109941
sg8
I443
sg9
I1
sg10
I19
sg11
I1
sg12
F3.0
sa(dp372
g2
I720
sg3
I10954
sg4
I0
sg5
I7
sg6
I0
sg7
I30100743
sg8
I341
sg9
I0
sg10
I121
sg11
I2
sg12
F3.5
sa(dp373
g2
I370
sg3
I210491
sg4
I0
sg5
I4
sg6
I0
sg7
I1098556
sg8
I277
sg9
I4
sg10
I74
sg11
I1
sg12
F4.0
sa(dp374
g2
I99
sg3
I85780
sg4
I0
sg5
I0
sg6
I1
sg7
I7948504
sg8
I196
sg9
I1
sg10
I15
sg11
I0
sg12
I0
sa(dp375
g2
I179
sg3
I379121
sg4
I0
sg5
I7
sg6
I0
sg7
I8384788
sg8
I319
sg9
I1
sg10
I32
sg11
I1
sg12
F7.0
sa(dp376
g2
I76
sg3
I474723
sg4
I0
sg5
I0
sg6
I0
sg7
I13891070
sg8
I384
sg9
I1
sg10
I15
sg11
I0
sg12
I0
sa(dp377
g2
I1293
sg3
I103285
sg4
I0
sg5
I0
sg6
I3
sg7
I947846
sg8
I259
sg9
I2
sg10
I232
sg11
I0
sg12
I0
sa(dp378
g2
I256
sg3
I121255
sg4
I0
sg5
I18
sg6
I0
sg7
I2068548
sg8
I271
sg9
I1
sg10
I48
sg11
I2
sg12
F9.0
sa(dp379
g2
I67
sg3
I415961
sg4
I0
sg5
I2
sg6
I0
sg7
I4481731
sg8
I371
sg9
I1
sg10
I14
sg11
I2
sg12
F1.0
sa(dp380
g2
I337
sg3
I129258
sg4
I0
sg5
I0
sg6
I0
sg7
I16985066
sg8
I207
sg9
I1
sg10
I58
sg11
I0
sg12
I0
sa(dp381
g2
I42
sg3
I127415
sg4
I0
sg5
I0
sg6
I1
sg7
I1653974
sg8
I149
sg9
I1
sg10
I8
sg11
I0
sg12
I0
sa(dp382
g2
I159
sg3
I132780
sg4
I0
sg5
I0
sg6
I1
sg7
I20101940
sg8
I396
sg9
I1
sg10
I30
sg11
I0
sg12
I0
sa(dp383
g2
I394
sg3
I294324
sg4
I0
sg5
I2
sg6
I0
sg7
I24888331
sg8
I154
sg9
I2
sg10
I76
sg11
I2
sg12
F1.0
sa(dp384
g2
I585
sg3
I209704
sg4
I0
sg5
I2
sg6
I1
sg7
I9350788
sg8
I425
sg9
I2
sg10
I114
sg11
I1
sg12
F2.0
sa(dp385
g2
I156
sg3
I379902
sg4
I0
sg5
I4
sg6
I0
sg7
I954840
sg8
I476
sg9
I1
sg10
I31
sg11
I1
sg12
F4.0
sa(dp386
g2
I203
sg3
I305208
sg4
I0
sg5
I2
sg6
I0
sg7
I12836173
sg8
I373
sg9
I1
sg10
I38
sg11
I1
sg12
F2.0
sa(dp387
g2
I197
sg3
I112008
sg4
I1
sg5
I7
sg6
I0
sg7
I3584933
sg8
I252
sg9
I1
sg10
I34
sg11
I1
sg12
F7.0
sa(dp388
g2
I73
sg3
I410185
sg4
I0
sg5
I0
sg6
I0
sg7
I1135035
sg8
I216
sg9
I1
sg10
I15
sg11
I0
sg12
I0
sa(dp389
g2
I159
sg3
I502951
sg4
I0
sg5
I5
sg6
I0
sg7
I5214587
sg8
I516
sg9
I1
sg10
I28
sg11
I1
sg12
F5.0
sa(dp390
g2
I4863
sg3
I111304
sg4
I0
sg5
I66
sg6
I5
sg7
I1113613
sg8
I5
sg9
I0
sg10
I790
sg11
I19
sg12
F3.473684210526316
sa(dp391
g2
I233
sg3
I89083
sg4
I0
sg5
I0
sg6
I2
sg7
I133384
sg8
I267
sg9
I2
sg10
I37
sg11
I0
sg12
I0
sa(dp392
g2
I186
sg3
I575768
sg4
I0
sg5
I3
sg6
I0
sg7
I3939381
sg8
I363
sg9
I1
sg10
I32
sg11
I1
sg12
F3.0
sa(dp393
g2
I952
sg3
I137156
sg4
I0
sg5
I11
sg6
I0
sg7
I9620295
sg8
I374
sg9
I4
sg10
I164
sg11
I1
sg12
F11.0
sa(dp394
g2
I266
sg3
I71848
sg4
I0
sg5
I0
sg6
I1
sg7
I5172833
sg8
I523
sg9
I1
sg10
I43
sg11
I0
sg12
I0
sa(dp395
g2
I569
sg3
I71251
sg4
I0
sg5
I0
sg6
I1
sg7
I994010
sg8
I435
sg9
I3
sg10
I103
sg11
I0
sg12
I0
sa(dp396
g2
I208
sg3
I101091
sg4
I0
sg5
I0
sg6
I0
sg7
I29456463
sg8
I216
sg9
I1
sg10
I38
sg11
I0
sg12
I0
sa(dp397
g2
I743
sg3
I146139
sg4
I0
sg5
I1
sg6
I2
sg7
I6269785
sg8
I145
sg9
I3
sg10
I135
sg11
I1
sg12
F1.0
sa(dp398
g2
I166
sg3
I101684
sg4
I0
sg5
I0
sg6
I0
sg7
I1006301
sg8
I122
sg9
I0
sg10
I30
sg11
I0
sg12
I0
sa(dp399
g2
I164
sg3
I79025
sg4
I0
sg5
I0
sg6
I0
sg7
I5626250
sg8
I263
sg9
I3
sg10
I23
sg11
I0
sg12
I0
sa(dp400
g2
I235
sg3
I53724
sg4
I0
sg5
I113
sg6
I0
sg7
I22322645
sg8
I437
sg9
I0
sg10
I40
sg11
I2
sg12
F56.5
sa(dp401
g2
I136
sg3
I156264
sg4
I0
sg5
I0
sg6
I0
sg7
I8822377
sg8
I291
sg9
I2
sg10
I20
sg11
I0
sg12
I0
sa(dp402
g2
I217
sg3
I725597
sg4
I0
sg5
I3
sg6
I0
sg7
I9542768
sg8
I594
sg9
I1
sg10
I41
sg11
I1
sg12
F3.0
sa(dp403
g2
I117
sg3
I172148
sg4
I0
sg5
I0
sg6
I2
sg7
I1405971
sg8
I278
sg9
I0
sg10
I24
sg11
I0
sg12
I0
sa(dp404
g2
I373
sg3
I175412
sg4
I0
sg5
I7
sg6
I0
sg7
I189685
sg8
I291
sg9
I2
sg10
I66
sg11
I1
sg12
F7.0
sa(dp405
g2
I8
sg3
I72116
sg4
I0
sg5
I2
sg6
I0
sg7
I1176023
sg8
I413
sg9
I0
sg10
I0
sg11
I1
sg12
F2.0
sa(dp406
g2
I569
sg3
I113009
sg4
I0
sg5
I0
sg6
I0
sg7
I2633310
sg8
I179
sg9
I2
sg10
I95
sg11
I0
sg12
I0
sa(dp407
g2
I269
sg3
I355218
sg4
I0
sg5
I14
sg6
I0
sg7
I19483025
sg8
I472
sg9
I0
sg10
I53
sg11
I2
sg12
F7.0
sa(dp408
g2
I274
sg3
I224627
sg4
I0
sg5
I5
sg6
I0
sg7
I714070
sg8
I51
sg9
I1
sg10
I51
sg11
I1
sg12
F5.0
sa(dp409
g2
I238
sg3
I178615
sg4
I0
sg5
I1
sg6
I0
sg7
I1708610
sg8
I145
sg9
I2
sg10
I45
sg11
I1
sg12
F1.0
sa(dp410
g2
I519
sg3
I59236
sg4
I0
sg5
I0
sg6
I0
sg7
I3012921
sg8
I266
sg9
I6
sg10
I89
sg11
I0
sg12
I0
sa(dp411
g2
I630
sg3
I122083
sg4
I0
sg5
I7
sg6
I0
sg7
I492711
sg8
I129
sg9
I3
sg10
I101
sg11
I2
sg12
F3.5
sa(dp412
g2
I108
sg3
I406479
sg4
I0
sg5
I2
sg6
I2
sg7
I7368801
sg8
I551
sg9
I0
sg10
I20
sg11
I2
sg12
F1.0
sa(dp413
g2
I430
sg3
I48807
sg4
I0
sg5
I5
sg6
I0
sg7
I773472
sg8
I297
sg9
I2
sg10
I74
sg11
I1
sg12
F5.0
sa(dp414
g2
I88
sg3
I214275
sg4
I0
sg5
I1
sg6
I0
sg7
I3097896
sg8
I307
sg9
I1
sg10
I18
sg11
I1
sg12
F1.0
sa(dp415
g2
I96
sg3
I77429
sg4
I0
sg5
I5
sg6
I0
sg7
I47826
sg8
I188
sg9
I1
sg10
I14
sg11
I1
sg12
F5.0
sa(dp416
g2
I236
sg3
I130687
sg4
I0
sg5
I0
sg6
I0
sg7
I8689983
sg8
I306
sg9
I2
sg10
I40
sg11
I0
sg12
I0
sa(dp417
g2
I656
sg3
I96221
sg4
I0
sg5
I24
sg6
I0
sg7
I25176504
sg8
I118
sg9
I3
sg10
I119
sg11
I3
sg12
F8.0
sa(dp418
g2
I227
sg3
I937556
sg4
I0
sg5
I4
sg6
I0
sg7
I642169
sg8
I382
sg9
I0
sg10
I44
sg11
I2
sg12
F2.0
sa(dp419
g2
I156
sg3
I15801
sg4
I0
sg5
I12
sg6
I0
sg7
I28889838
sg8
I232
sg9
I0
sg10
I24
sg11
I2
sg12
F6.0
sa(dp420
g2
I73
sg3
I338260
sg4
I0
sg5
I0
sg6
I0
sg7
I36156
sg8
I314
sg9
I1
sg10
I12
sg11
I0
sg12
I0
sa(dp421
g2
I363
sg3
I146881
sg4
I0
sg5
I6
sg6
I0
sg7
I23294659
sg8
I324
sg9
I2
sg10
I66
sg11
I1
sg12
F6.0
sa(dp422
g2
I38
sg3
I155063
sg4
I0
sg5
I0
sg6
I0
sg7
I1774043
sg8
I333
sg9
I1
sg10
I8
sg11
I0
sg12
I0
sa(dp423
g2
I62
sg3
I125629
sg4
I0
sg5
I0
sg6
I0
sg7
I93179
sg8
I237
sg9
I1
sg10
I12
sg11
I0
sg12
I0
sa(dp424
g2
I734
sg3
I86783
sg4
I0
sg5
I0
sg6
I1
sg7
I1017937
sg8
I301
sg9
I3
sg10
I119
sg11
I0
sg12
I0
sa(dp425
g2
I269
sg3
I57614
sg4
I0
sg5
I0
sg6
I0
sg7
I6921760
sg8
I317
sg9
I3
sg10
I59
sg11
I0
sg12
I0
sa(dp426
g2
I137
sg3
I320666
sg4
I0
sg5
I0
sg6
I1
sg7
I4172465
sg8
I324
sg9
I1
sg10
I28
sg11
I0
sg12
I0
sa(dp427
g2
I1428
sg3
I122321
sg4
I0
sg5
I27
sg6
I1
sg7
I7065242
sg8
I303
sg9
I0
sg10
I260
sg11
I3
sg12
F9.0
sa(dp428
g2
I309
sg3
I141425
sg4
I0
sg5
I0
sg6
I0
sg7
I606858
sg8
I178
sg9
I1
sg10
I47
sg11
I0
sg12
I0
sa(dp429
g2
I1019
sg3
I71264
sg4
I0
sg5
I0
sg6
I2
sg7
I195144
sg8
I111
sg9
I1
sg10
I170
sg11
I0
sg12
I0
sa(dp430
g2
I200
sg3
I202682
sg4
I0
sg5
I3
sg6
I0
sg7
I5676676
sg8
I375
sg9
I1
sg10
I39
sg11
I2
sg12
F1.5
sa(dp431
g2
I51
sg3
I243849
sg4
I0
sg5
I0
sg6
I0
sg7
I1810760
sg8
I345
sg9
I1
sg10
I8
sg11
I0
sg12
I0
sa(dp432
g2
I610
sg3
I110895
sg4
I0
sg5
I12
sg6
I0
sg7
I3975388
sg8
I583
sg9
I2
sg10
I114
sg11
I2
sg12
F6.0
sa(dp433
g2
I164
sg3
I103471
sg4
I0
sg5
I8
sg6
I0
sg7
I577241
sg8
I406
sg9
I1
sg10
I28
sg11
I3
sg12
F2.6666666666666665
sa(dp434
g2
I224
sg3
I91170
sg4
I0
sg5
I0
sg6
I0
sg7
I6392768
sg8
I130
sg9
I0
sg10
I44
sg11
I0
sg12
I0
sa(dp435
g2
I122
sg3
I154793
sg4
I0
sg5
I0
sg6
I0
sg7
I6501134
sg8
I322
sg9
I1
sg10
I21
sg11
I0
sg12
I0
sa(dp436
g2
I300
sg3
I504199
sg4
I0
sg5
I6
sg6
I0
sg7
I8023337
sg8
I224
sg9
I0
sg10
I60
sg11
I1
sg12
F6.0
sa(dp437
g2
I82
sg3
I250120
sg4
I0
sg5
I1
sg6
I0
sg7
I1400622
sg8
I423
sg9
I1
sg10
I16
sg11
I1
sg12
F1.0
sa(dp438
g2
I217
sg3
I302354
sg4
I0
sg5
I9
sg6
I0
sg7
I4142178
sg8
I373
sg9
I2
sg10
I30
sg11
I2
sg12
F4.5
sa(dp439
g2
I368
sg3
I141614
sg4
I0
sg5
I0
sg6
I3
sg7
I180993
sg8
I253
sg9
I1
sg10
I76
sg11
I0
sg12
I0
sa(dp440
g2
I1025
sg3
I24607
sg4
I0
sg5
I0
sg6
I16
sg7
I2184521
sg8
I85
sg9
I1
sg10
I158
sg11
I0
sg12
I0
sa(dp441
g2
I1139
sg3
I46184
sg4
I0
sg5
I20
sg6
I0
sg7
I12857584
sg8
I323
sg9
I3
sg10
I190
sg11
I2
sg12
F10.0
sa(dp442
g2
I557
sg3
I733721
sg4
I0
sg5
I7
sg6
I0
sg7
I339220
sg8
I183
sg9
I3
sg10
I113
sg11
I4
sg12
F1.75
sa(dp443
g2
I252
sg3
I55441
sg4
I0
sg5
I14
sg6
I0
sg7
I15112149
sg8
I333
sg9
I1
sg10
I44
sg11
I2
sg12
F7.0
sa(dp444
g2
I325
sg3
I183414
sg4
I0
sg5
I1
sg6
I0
sg7
I3459131
sg8
I354
sg9
I2
sg10
I60
sg11
I1
sg12
F1.0
sa(dp445
g2
I92
sg3
I183886
sg4
I0
sg5
I0
sg6
I0
sg7
I151211
sg8
I369
sg9
I1
sg10
I20
sg11
I0
sg12
I0
sa(dp446
g2
I125
sg3
I268627
sg4
I0
sg5
I3
sg6
I0
sg7
I432289
sg8
I298
sg9
I1
sg10
I22
sg11
I1
sg12
F3.0
sa(dp447
g2
I188
sg3
I150514
sg4
I0
sg5
I0
sg6
I0
sg7
I775075
sg8
I373
sg9
I1
sg10
I32
sg11
I0
sg12
I0
sa(dp448
g2
I194
sg3
I328294
sg4
I0
sg5
I5
sg6
I0
sg7
I11287278
sg8
I417
sg9
I1
sg10
I39
sg11
I2
sg12
F2.5
sa(dp449
g2
I472
sg3
I128597
sg4
I0
sg5
I0
sg6
I0
sg7
I119576
sg8
I204
sg9
I4
sg10
I83
sg11
I0
sg12
I0
sa(dp450
g2
I104
sg3
I201376
sg4
I0
sg5
I17
sg6
I0
sg7
I27425458
sg8
I370
sg9
I1
sg10
I21
sg11
I1
sg12
F17.0
sa(dp451
g2
I313
sg3
I179723
sg4
I0
sg5
I1
sg6
I0
sg7
I3908349
sg8
I408
sg9
I1
sg10
I55
sg11
I1
sg12
F1.0
sa(dp452
g2
I56
sg3
I157376
sg4
I0
sg5
I4
sg6
I1
sg7
I1369553
sg8
I182
sg9
I1
sg10
I8
sg11
I1
sg12
F4.0
sa(dp453
g2
I437
sg3
I131283
sg4
I0
sg5
I0
sg6
I0
sg7
I175130
sg8
I96
sg9
I0
sg10
I74
sg11
I0
sg12
I0
sa(dp454
g2
I117
sg3
I65798
sg4
I0
sg5
I0
sg6
I1
sg7
I3278104
sg8
I281
sg9
I1
sg10
I23
sg11
I0
sg12
I0
sa(dp455
g2
I325
sg3
I48857
sg4
I0
sg5
I11
sg6
I1
sg7
I128577
sg8
I156
sg9
I2
sg10
I52
sg11
I2
sg12
F5.5
sa(dp456
g2
I453
sg3
I226772
sg4
I0
sg5
I30
sg6
I1
sg7
I3782998
sg8
I7
sg9
I2
sg10
I69
sg11
I1
sg12
F30.0
sa(dp457
g2
I386
sg3
I155550
sg4
I0
sg5
I0
sg6
I2
sg7
I7143496
sg8
I308
sg9
I2
sg10
I74
sg11
I0
sg12
I0
sa(dp458
g2
I248
sg3
I189214
sg4
I0
sg5
I15
sg6
I1
sg7
I23842752
sg8
I420
sg9
I1
sg10
I47
sg11
I2
sg12
F7.5
sa(dp459
g2
I145
sg3
I135165
sg4
I0
sg5
I0
sg6
I0
sg7
I1697907
sg8
I313
sg9
I1
sg10
I28
sg11
I0
sg12
I0
sa(dp460
g2
I197
sg3
I308957
sg4
I0
sg5
I3
sg6
I1
sg7
I7585619
sg8
I226
sg9
I2
sg10
I36
sg11
I1
sg12
F3.0
sa(dp461
g2
I217
sg3
I243139
sg4
I0
sg5
I0
sg6
I0
sg7
I699891
sg8
I306
sg9
I1
sg10
I38
sg11
I0
sg12
I0
sa.