(lp0
(dp1
S'englishNumChars'
p2
I413
sS'viewCount'
p3
I1293577
sS'numberImages'
p4
I0
sS'totalLinesOfCode'
p5
I13
sS'numberLinks'
p6
I1
sS'acceptedAnswerId'
p7
I231855
sS'acceptedAnswerScore'
p8
I9581
sS'numQuestionMarks'
p9
I7
sS'englishNumWords'
p10
I71
sS'numberOfCodeSnippets'
p11
I2
sS'averageLengthOfCodeSnippet'
p12
F6.5
sa(dp13
g2
I48
sg3
I480945
sg4
I0
sg5
I0
sg6
I0
sg7
I100146
sg8
I1433
sg9
I2
sg10
I8
sg11
I0
sg12
I0
sa(dp14
g2
I120
sg3
I910055
sg4
I0
sg5
I0
sg6
I0
sg7
I394814
sg8
I3717
sg9
I1
sg10
I18
sg11
I0
sg12
I0
sa(dp15
g2
I20
sg3
I1116079
sg4
I0
sg5
I13
sg6
I0
sg7
I419185
sg8
I3041
sg9
I1
sg10
I4
sg11
I1
sg12
F13.0
sa(dp16
g2
I129
sg3
I1912761
sg4
I0
sg5
I0
sg6
I0
sg7
I89243
sg8
I2595
sg9
I1
sg10
I24
sg11
I0
sg12
I0
sa(dp17
g2
I361
sg3
I788978
sg4
I0
sg5
I7
sg6
I0
sg7
I26853961
sg8
I1904
sg9
I1
sg10
I63
sg11
I1
sg12
F7.0
sa(dp18
g2
I444
sg3
I1294243
sg4
I0
sg5
I0
sg6
I1
sg7
I613218
sg8
I2666
sg9
I1
sg10
I86
sg11
I0
sg12
I0
sa(dp19
g2
I313
sg3
I1245162
sg4
I0
sg5
I15
sg6
I0
sg7
I273227
sg8
I2496
sg9
I2
sg10
I56
sg11
I2
sg12
F7.5
sa(dp20
g2
I223
sg3
I383769
sg4
I0
sg5
I5
sg6
I0
sg7
I739665
sg8
I2453
sg9
I1
sg10
I36
sg11
I2
sg12
F2.5
sa(dp21
g2
I195
sg3
I1999493
sg4
I0
sg5
I0
sg6
I0
sg7
I423596
sg8
I2780
sg9
I2
sg10
I35
sg11
I0
sg12
I0
sa(dp22
g2
I75
sg3
I1139063
sg4
I0
sg5
I1
sg6
I0
sg7
I53522
sg8
I2822
sg9
I1
sg10
I14
sg11
I1
sg12
F1.0
sa(dp23
g2
I54
sg3
I1476826
sg4
I0
sg5
I0
sg6
I0
sg7
I252711
sg8
I2952
sg9
I1
sg10
I9
sg11
I0
sg12
I0
sa(dp24
g2
I59
sg3
I351277
sg4
I0
sg5
I0
sg6
I2
sg7
I1669524
sg8
I1602
sg9
I1
sg10
I9
sg11
I0
sg12
I0
sa(dp25
g2
I56
sg3
I1597514
sg4
I0
sg5
I2
sg6
I0
sg7
I3437070
sg8
I2770
sg9
I0
sg10
I12
sg11
I1
sg12
F2.0
sa(dp26
g2
I67
sg3
I1651226
sg4
I0
sg5
I0
sg6
I2
sg7
I12476379
sg8
I1335
sg9
I2
sg10
I15
sg11
I0
sg12
I0
sa(dp27
g2
I161
sg3
I848979
sg4
I0
sg5
I1
sg6
I0
sg7
I522578
sg8
I3151
sg9
I2
sg10
I34
sg11
I1
sg12
F1.0
sa(dp28
g2
I1612
sg3
I90996
sg4
I0
sg5
I26
sg6
I0
sg7
I1145781
sg8
I1147
sg9
I3
sg10
I259
sg11
I3
sg12
F8.666666666666666
sa(dp29
g2
I232
sg3
I715801
sg4
I0
sg5
I8
sg6
I0
sg7
I986145
sg8
I1830
sg9
I1
sg10
I34
sg11
I1
sg12
F8.0
sa(dp30
g2
I200
sg3
I808088
sg4
I0
sg5
I0
sg6
I0
sg7
I509295
sg8
I2284
sg9
I0
sg10
I35
sg11
I0
sg12
I0
sa(dp31
g2
I42
sg3
I340368
sg4
I0
sg5
I0
sg6
I0
sg7
I2626364
sg8
I1692
sg9
I1
sg10
I9
sg11
I0
sg12
I0
sa(dp32
g2
I94
sg3
I1620599
sg4
I0
sg5
I0
sg6
I0
sg7
I176921
sg8
I2310
sg9
I1
sg10
I21
sg11
I0
sg12
I0
sa(dp33
g2
I184
sg3
I980843
sg4
I0
sg5
I14
sg6
I0
sg7
I576183
sg8
I1082
sg9
I0
sg10
I31
sg11
I1
sg12
F14.0
sa(dp34
g2
I212
sg3
I392789
sg4
I0
sg5
I0
sg6
I2
sg7
I8189603
sg8
I608
sg9
I1
sg10
I40
sg11
I0
sg12
I0
sa(dp35
g2
I234
sg3
I1408910
sg4
I0
sg5
I4
sg6
I0
sg7
I1602964
sg8
I1537
sg9
I1
sg10
I45
sg11
I1
sg12
F4.0
sa(dp36
g2
I435
sg3
I294254
sg4
I0
sg5
I24
sg6
I0
sg7
I6470452
sg8
I2031
sg9
I1
sg10
I82
sg11
I5
sg12
F4.8
sa(dp37
g2
I114
sg3
I1437107
sg4
I0
sg5
I0
sg6
I0
sg7
I1024851
sg8
I1842
sg9
I1
sg10
I23
sg11
I0
sg12
I0
sa(dp38
g2
I52
sg3
I1363604
sg4
I0
sg5
I0
sg6
I0
sg7
I415519
sg8
I1419
sg9
I1
sg10
I8
sg11
I0
sg12
I0
sa(dp39
g2
I224
sg3
I1811606
sg4
I0
sg5
I3
sg6
I0
sg7
I3294899
sg8
I2541
sg9
I3
sg10
I43
sg11
I1
sg12
F3.0
sa(dp40
g2
I226
sg3
I2215055
sg4
I0
sg5
I0
sg6
I0
sg7
I379910
sg8
I1607
sg9
I2
sg10
I46
sg11
I0
sg12
I0
sa(dp41
g2
I227
sg3
I725795
sg4
I0
sg5
I6
sg6
I0
sg7
I952952
sg8
I1979
sg9
I1
sg10
I43
sg11
I2
sg12
F3.0
sa(dp42
g2
I104
sg3
I688336
sg4
I0
sg5
I0
sg6
I0
sg7
I68672
sg8
I1172
sg9
I2
sg10
I18
sg11
I0
sg12
I0
sa(dp43
g2
I50
sg3
I1669811
sg4
I0
sg5
I7
sg6
I0
sg7
I1712236
sg8
I1626
sg9
I1
sg10
I10
sg11
I1
sg12
F7.0
sa(dp44
g2
I112
sg3
I661708
sg4
I0
sg5
I0
sg6
I0
sg7
I2612815
sg8
I1630
sg9
I2
sg10
I21
sg11
I0
sg12
I0
sa(dp45
g2
I238
sg3
I1415942
sg4
I0
sg5
I0
sg6
I0
sg7
I663175
sg8
I1791
sg9
I3
sg10
I46
sg11
I0
sg12
I0
sa(dp46
g2
I71
sg3
I881522
sg4
I0
sg5
I3
sg6
I0
sg7
I1720432
sg8
I1938
sg9
I1
sg10
I8
sg11
I2
sg12
F1.5
sa(dp47
g2
I136
sg3
I517990
sg4
I0
sg5
I0
sg6
I0
sg7
I1695250
sg8
I2018
sg9
I1
sg10
I25
sg11
I0
sg12
I0
sa(dp48
g2
I575
sg3
I435143
sg4
I0
sg5
I0
sg6
I1
sg7
I312464
sg8
I1483
sg9
I0
sg10
I104
sg11
I0
sg12
I0
sa(dp49
g2
I104
sg3
I557309
sg4
I0
sg5
I1
sg6
I0
sg7
I735978
sg8
I1391
sg9
I0
sg10
I18
sg11
I1
sg12
F1.0
sa(dp50
g2
I121
sg3
I765329
sg4
I0
sg5
I6
sg6
I0
sg7
I493842
sg8
I769
sg9
I1
sg10
I20
sg11
I2
sg12
F3.0
sa(dp51
g2
I125
sg3
I547938
sg4
I0
sg5
I0
sg6
I2
sg7
I3452888
sg8
I1244
sg9
I1
sg10
I23
sg11
I0
sg12
I0
sa(dp52
g2
I67
sg3
I246308
sg4
I0
sg5
I2
sg6
I0
sg7
I36908
sg8
I1080
sg9
I1
sg10
I13
sg11
I1
sg12
F2.0
sa(dp53
g2
I189
sg3
I892210
sg4
I0
sg5
I0
sg6
I0
sg7
I2225066
sg8
I1226
sg9
I1
sg10
I37
sg11
I0
sg12
I0
sa(dp54
g2
I145
sg3
I1120258
sg4
I0
sg5
I0
sg6
I0
sg7
I6797990
sg8
I1652
sg9
I1
sg10
I22
sg11
I0
sg12
I0
sa(dp55
g2
I4733
sg3
I125269
sg4
I0
sg5
I132
sg6
I2
sg7
I9371717
sg8
I894
sg9
I0
sg10
I823
sg11
I12
sg12
F11.0
sa(dp56
g2
I281
sg3
I742060
sg4
I0
sg5
I6
sg6
I0
sg7
I354130
sg8
I477
sg9
I1
sg10
I52
sg11
I1
sg12
F6.0
sa(dp57
g2
I379
sg3
I1130943
sg4
I0
sg5
I2
sg6
I0
sg7
I466376
sg8
I1660
sg9
I0
sg10
I68
sg11
I1
sg12
F2.0
sa(dp58
g2
I54
sg3
I825875
sg4
I0
sg5
I0
sg6
I0
sg7
I930398
sg8
I1627
sg9
I1
sg10
I11
sg11
I0
sg12
I0
sa(dp59
g2
I85
sg3
I656442
sg4
I0
sg5
I0
sg6
I0
sg7
I24065533
sg8
I1103
sg9
I1
sg10
I18
sg11
I0
sg12
I0
sa(dp60
g2
I65
sg3
I751189
sg4
I0
sg5
I0
sg6
I1
sg7
I123212
sg8
I1188
sg9
I1
sg10
I13
sg11
I0
sg12
I0
sa(dp61
g2
I166
sg3
I1046672
sg4
I0
sg5
I0
sg6
I0
sg7
I5137509
sg8
I1437
sg9
I1
sg10
I29
sg11
I0
sg12
I0
sa(dp62
g2
I436
sg3
I759190
sg4
I0
sg5
I15
sg6
I1
sg7
I5082482
sg8
I701
sg9
I5
sg10
I75
sg11
I2
sg12
F7.5
sa(dp63
g2
I272
sg3
I778247
sg4
I0
sg5
I0
sg6
I0
sg7
I60211
sg8
I749
sg9
I1
sg10
I52
sg11
I0
sg12
I0
sa(dp64
g2
I106
sg3
I591034
sg4
I0
sg5
I1
sg6
I0
sg7
I306417
sg8
I1662
sg9
I1
sg10
I18
sg11
I1
sg12
F1.0
sa(dp65
g2
I124
sg3
I365587
sg4
I0
sg5
I2
sg6
I0
sg7
I73050
sg8
I1331
sg9
I0
sg10
I21
sg11
I2
sg12
F1.0
sa(dp66
g2
I259
sg3
I929208
sg4
I0
sg5
I0
sg6
I2
sg7
I493399
sg8
I1346
sg9
I1
sg10
I53
sg11
I2
sg12
F0.0
sa(dp67
g2
I43
sg3
I370504
sg4
I0
sg5
I0
sg6
I0
sg7
I448279
sg8
I663
sg9
I1
sg10
I8
sg11
I0
sg12
I0
sa(dp68
g2
I945
sg3
I60079
sg4
I0
sg5
I8
sg6
I6
sg7
I30081318
sg8
I898
sg9
I1
sg10
I171
sg11
I3
sg12
F2.6666666666666665
sa(dp69
g2
I749
sg3
I575576
sg4
I0
sg5
I0
sg6
I0
sg7
I3394898
sg8
I1150
sg9
I5
sg10
I137
sg11
I0
sg12
I0
sa(dp70
g2
I44
sg3
I880097
sg4
I0
sg5
I0
sg6
I0
sg7
I6996628
sg8
I1498
sg9
I1
sg10
I9
sg11
I0
sg12
I0
sa(dp71
g2
I579
sg3
I327571
sg4
I0
sg5
I0
sg6
I0
sg7
I12179752
sg8
I1610
sg9
I4
sg10
I104
sg11
I0
sg12
I0
sa(dp72
g2
I494
sg3
I343039
sg4
I0
sg5
I0
sg6
I0
sg7
I3071
sg8
I1088
sg9
I1
sg10
I104
sg11
I0
sg12
I0
sa(dp73
g2
I111
sg3
I859662
sg4
I0
sg5
I0
sg6
I0
sg7
I4706520
sg8
I1444
sg9
I2
sg10
I20
sg11
I0
sg12
I0
sa(dp74
g2
I215
sg3
I639144
sg4
I0
sg5
I0
sg6
I0
sg7
I931095
sg8
I1799
sg9
I1
sg10
I38
sg11
I0
sg12
I0
sa(dp75
g2
I143
sg3
I402470
sg4
I0
sg5
I6
sg6
I0
sg7
I610893
sg8
I1178
sg9
I2
sg10
I28
sg11
I1
sg12
F6.0
sa(dp76
g2
I77
sg3
I767575
sg4
I0
sg5
I0
sg6
I0
sg7
I3964691
sg8
I1199
sg9
I1
sg10
I15
sg11
I0
sg12
I0
sa(dp77
g2
I511
sg3
I173135
sg4
I0
sg5
I0
sg6
I2
sg7
I30408520
sg8
I200
sg9
I3
sg10
I81
sg11
I0
sg12
I0
sa(dp78
g2
I295
sg3
I276320
sg4
I0
sg5
I0
sg6
I0
sg7
I582337
sg8
I854
sg9
I1
sg10
I52
sg11
I0
sg12
I0
sa(dp79
g2
I104
sg3
I674121
sg4
I0
sg5
I0
sg6
I0
sg7
I4907053
sg8
I1234
sg9
I1
sg10
I20
sg11
I0
sg12
I0
sa(dp80
g2
I364
sg3
I432355
sg4
I0
sg5
I0
sg6
I1
sg7
I511059
sg8
I1073
sg9
I1
sg10
I74
sg11
I0
sg12
I0
sa(dp81
g2
I236
sg3
I1259650
sg4
I0
sg5
I0
sg6
I0
sg7
I627453
sg8
I905
sg9
I2
sg10
I47
sg11
I0
sg12
I0
sa(dp82
g2
I146
sg3
I415356
sg4
I0
sg5
I1
sg6
I0
sg7
I1747827
sg8
I1273
sg9
I1
sg10
I23
sg11
I1
sg12
F1.0
sa(dp83
g2
I447
sg3
I250551
sg4
I0
sg5
I5
sg6
I0
sg7
I990779
sg8
I1311
sg9
I3
sg10
I81
sg11
I2
sg12
F2.5
sa(dp84
g2
I167
sg3
I429798
sg4
I0
sg5
I0
sg6
I1
sg7
I2257449
sg8
I1631
sg9
I1
sg10
I28
sg11
I0
sg12
I0
sa(dp85
g2
I279
sg3
I428001
sg4
I0
sg5
I8
sg6
I0
sg7
I14981125
sg8
I592
sg9
I2
sg10
I53
sg11
I1
sg12
F8.0
sa(dp86
g2
I68
sg3
I620579
sg4
I0
sg5
I0
sg6
I0
sg7
I2600208
sg8
I1051
sg9
I1
sg10
I13
sg11
I0
sg12
I0
sa(dp87
g2
I130
sg3
I391126
sg4
I0
sg5
I0
sg6
I0
sg7
I339013
sg8
I1171
sg9
I1
sg10
I24
sg11
I0
sg12
I0
sa(dp88
g2
I182
sg3
I1783157
sg4
I0
sg5
I11
sg6
I0
sg7
I961638
sg8
I1213
sg9
I0
sg10
I35
sg11
I1
sg12
F11.0
sa(dp89
g2
I341
sg3
I195328
sg4
I0
sg5
I0
sg6
I0
sg7
I1301369
sg8
I713
sg9
I2
sg10
I58
sg11
I0
sg12
I0
sa(dp90
g2
I1081
sg3
I113004
sg4
I0
sg5
I0
sg6
I0
sg7
I886645
sg8
I521
sg9
I3
sg10
I176
sg11
I0
sg12
I0
sa(dp91
g2
I125
sg3
I290594
sg4
I0
sg5
I0
sg6
I0
sg7
I56190
sg8
I525
sg9
I1
sg10
I19
sg11
I0
sg12
I0
sa(dp92
g2
I491
sg3
I637082
sg4
I0
sg5
I9
sg6
I1
sg7
I606199
sg8
I1190
sg9
I1
sg10
I89
sg11
I4
sg12
F2.25
sa(dp93
g2
I82
sg3
I694734
sg4
I0
sg5
I0
sg6
I0
sg7
I1185529
sg8
I1043
sg9
I1
sg10
I14
sg11
I0
sg12
I0
sa(dp94
g2
I137
sg3
I1192768
sg4
I0
sg5
I0
sg6
I0
sg7
I2835672
sg8
I1112
sg9
I1
sg10
I25
sg11
I1
sg12
F0.0
sa(dp95
g2
I135
sg3
I145305
sg4
I0
sg5
I0
sg6
I0
sg7
I54873
sg8
I394
sg9
I2
sg10
I24
sg11
I0
sg12
I0
sa(dp96
g2
I87
sg3
I694569
sg4
I0
sg5
I4
sg6
I0
sg7
I761825
sg8
I1059
sg9
I1
sg10
I13
sg11
I1
sg12
F4.0
sa(dp97
g2
I350
sg3
I394035
sg4
I0
sg5
I0
sg6
I1
sg7
I230774
sg8
I850
sg9
I1
sg10
I62
sg11
I0
sg12
I0
sa(dp98
g2
I96
sg3
I519316
sg4
I0
sg5
I2
sg6
I0
sg7
I11277439
sg8
I1155
sg9
I1
sg10
I18
sg11
I1
sg12
F2.0
sa(dp99
g2
I276
sg3
I895736
sg4
I0
sg5
I4
sg6
I0
sg7
I1504742
sg8
I976
sg9
I1
sg10
I52
sg11
I1
sg12
F4.0
sa(dp100
g2
I166
sg3
I406451
sg4
I0
sg5
I10
sg6
I1
sg7
I1549854
sg8
I743
sg9
I2
sg10
I25
sg11
I2
sg12
F5.0
sa(dp101
g2
I200
sg3
I413026
sg4
I0
sg5
I0
sg6
I0
sg7
I152596
sg8
I840
sg9
I3
sg10
I40
sg11
I0
sg12
I0
sa(dp102
g2
I62
sg3
I445938
sg4
I0
sg5
I0
sg6
I0
sg7
I541394
sg8
I1100
sg9
I1
sg10
I10
sg11
I0
sg12
I0
sa(dp103
g2
I422
sg3
I478132
sg4
I0
sg5
I0
sg6
I0
sg7
I2709832
sg8
I446
sg9
I2
sg10
I75
sg11
I1
sg12
F0.0
sa(dp104
g2
I1254
sg3
I297750
sg4
I0
sg5
I6
sg6
I0
sg7
I1319675
sg8
I672
sg9
I3
sg10
I223
sg11
I1
sg12
F6.0
sa(dp105
g2
I2186
sg3
I264738
sg4
I0
sg5
I0
sg6
I0
sg7
I2576240
sg8
I471
sg9
I0
sg10
I385
sg11
I0
sg12
I0
sa(dp106
g2
I223
sg3
I633301
sg4
I0
sg5
I1
sg6
I0
sg7
I9573259
sg8
I921
sg9
I2
sg10
I38
sg11
I1
sg12
F1.0
sa(dp107
g2
I3153
sg3
I53199
sg4
I5
sg5
I0
sg6
I6
sg7
I3689710
sg8
I219
sg9
I3
sg10
I584
sg11
I0
sg12
I0
sa(dp108
g2
I117
sg3
I219853
sg4
I0
sg5
I1
sg6
I0
sg7
I1952481
sg8
I527
sg9
I1
sg10
I24
sg11
I1
sg12
F1.0
sa(dp109
g2
I608
sg3
I361681
sg4
I0
sg5
I0
sg6
I0
sg7
I890188
sg8
I725
sg9
I2
sg10
I106
sg11
I0
sg12
I0
sa(dp110
g2
I82
sg3
I235016
sg4
I0
sg5
I0
sg6
I0
sg7
I626871
sg8
I725
sg9
I2
sg10
I11
sg11
I0
sg12
I0
sa(dp111
g2
I218
sg3
I44071
sg4
I0
sg5
I12
sg6
I0
sg7
I11242447
sg8
I377
sg9
I1
sg10
I40
sg11
I4
sg12
F3.0
sa(dp112
g2
I309
sg3
I635934
sg4
I0
sg5
I2
sg6
I0
sg7
I11346337
sg8
I662
sg9
I0
sg10
I59
sg11
I2
sg12
F1.0
sa(dp113
g2
I42
sg3
I129277
sg4
I0
sg5
I2
sg6
I0
sg7
I5466478
sg8
I857
sg9
I0
sg10
I9
sg11
I1
sg12
F2.0
sa(dp114
g2
I176
sg3
I822307
sg4
I0
sg5
I3
sg6
I0
sg7
I53180
sg8
I707
sg9
I1
sg10
I34
sg11
I2
sg12
F1.5
sa(dp115
g2
I82
sg3
I716062
sg4
I0
sg5
I0
sg6
I0
sg7
I1093331
sg8
I746
sg9
I1
sg10
I13
sg11
I0
sg12
I0
sa(dp116
g2
I1018
sg3
I640392
sg4
I0
sg5
I7
sg6
I0
sg7
I9942822
sg8
I701
sg9
I1
sg10
I173
sg11
I2
sg12
F3.5
sa(dp117
g2
I241
sg3
I670026
sg4
I0
sg5
I4
sg6
I0
sg7
I6098238
sg8
I277
sg9
I2
sg10
I44
sg11
I1
sg12
F4.0
sa(dp118
g2
I19
sg3
I689134
sg4
I0
sg5
I0
sg6
I2
sg7
I227472
sg8
I799
sg9
I1
sg10
I5
sg11
I0
sg12
I0
sa(dp119
g2
I593
sg3
I155729
sg4
I0
sg5
I0
sg6
I2
sg7
I547714
sg8
I432
sg9
I6
sg10
I100
sg11
I0
sg12
I0
sa(dp120
g2
I209
sg3
I268631
sg4
I0
sg5
I0
sg6
I0
sg7
I2998228
sg8
I408
sg9
I1
sg10
I35
sg11
I0
sg12
I0
sa(dp121
g2
I166
sg3
I604164
sg4
I0
sg5
I0
sg6
I0
sg7
I23885252
sg8
I335
sg9
I1
sg10
I29
sg11
I0
sg12
I0
sa(dp122
g2
I388
sg3
I265921
sg4
I0
sg5
I0
sg6
I0
sg7
I1534343
sg8
I884
sg9
I3
sg10
I66
sg11
I0
sg12
I0
sa(dp123
g2
I420
sg3
I405625
sg4
I0
sg5
I0
sg6
I0
sg7
I3297564
sg8
I554
sg9
I2
sg10
I69
sg11
I0
sg12
I0
sa(dp124
g2
I286
sg3
I686898
sg4
I0
sg5
I3
sg6
I1
sg7
I7696966
sg8
I970
sg9
I1
sg10
I47
sg11
I1
sg12
F3.0
sa(dp125
g2
I290
sg3
I672224
sg4
I0
sg5
I6
sg6
I0
sg7
I1912483
sg8
I444
sg9
I1
sg10
I54
sg11
I1
sg12
F6.0
sa(dp126
g2
I139
sg3
I395181
sg4
I0
sg5
I0
sg6
I0
sg7
I67692
sg8
I668
sg9
I1
sg10
I26
sg11
I0
sg12
I0
sa(dp127
g2
I372
sg3
I424553
sg4
I0
sg5
I1
sg6
I1
sg7
I5226504
sg8
I456
sg9
I2
sg10
I60
sg11
I1
sg12
F1.0
sa(dp128
g2
I106
sg3
I772869
sg4
I0
sg5
I0
sg6
I0
sg7
I3996930
sg8
I926
sg9
I1
sg10
I23
sg11
I0
sg12
I0
sa(dp129
g2
I231
sg3
I1161941
sg4
I0
sg5
I0
sg6
I0
sg7
I6159912
sg8
I758
sg9
I3
sg10
I38
sg11
I0
sg12
I0
sa(dp130
g2
I521
sg3
I586450
sg4
I0
sg5
I0
sg6
I0
sg7
I22682
sg8
I322
sg9
I1
sg10
I95
sg11
I0
sg12
I0
sa(dp131
g2
I45
sg3
I636163
sg4
I0
sg5
I0
sg6
I0
sg7
I3289606
sg8
I791
sg9
I1
sg10
I9
sg11
I0
sg12
I0
sa(dp132
g2
I91
sg3
I740757
sg4
I0
sg5
I0
sg6
I0
sg7
I73673
sg8
I772
sg9
I1
sg10
I19
sg11
I0
sg12
I0
sa(dp133
g2
I415
sg3
I629711
sg4
I0
sg5
I0
sg6
I0
sg7
I5844692
sg8
I801
sg9
I2
sg10
I73
sg11
I0
sg12
I0
sa(dp134
g2
I200
sg3
I405911
sg4
I0
sg5
I5
sg6
I0
sg7
I845081
sg8
I185
sg9
I2
sg10
I37
sg11
I1
sg12
F5.0
sa(dp135
g2
I37
sg3
I338028
sg4
I0
sg5
I6
sg6
I0
sg7
I1323426
sg8
I759
sg9
I0
sg10
I6
sg11
I2
sg12
F3.0
sa(dp136
g2
I231
sg3
I353637
sg4
I0
sg5
I0
sg6
I0
sg7
I303225
sg8
I878
sg9
I1
sg10
I41
sg11
I0
sg12
I0
sa(dp137
g2
I89
sg3
I444882
sg4
I0
sg5
I2
sg6
I0
sg7
I8933290
sg8
I830
sg9
I0
sg10
I17
sg11
I1
sg12
F2.0
sa(dp138
g2
I168
sg3
I302706
sg4
I0
sg5
I16
sg6
I0
sg7
I6618176
sg8
I475
sg9
I1
sg10
I29
sg11
I2
sg12
F8.0
sa(dp139
g2
I64
sg3
I269777
sg4
I0
sg5
I0
sg6
I0
sg7
I1550235
sg8
I684
sg9
I1
sg10
I11
sg11
I0
sg12
I0
sa(dp140
g2
I150
sg3
I559810
sg4
I0
sg5
I2
sg6
I0
sg7
I13485766
sg8
I321
sg9
I0
sg10
I27
sg11
I2
sg12
F1.0
sa(dp141
g2
I56
sg3
I326075
sg4
I0
sg5
I75
sg6
I0
sg7
I5178698
sg8
I869
sg9
I1
sg10
I11
sg11
I1
sg12
F75.0
sa(dp142
g2
I564
sg3
I165108
sg4
I0
sg5
I0
sg6
I1
sg7
I2970722
sg8
I739
sg9
I5
sg10
I89
sg11
I0
sg12
I0
sa(dp143
g2
I131
sg3
I440785
sg4
I0
sg5
I0
sg6
I0
sg7
I1155647
sg8
I749
sg9
I1
sg10
I24
sg11
I0
sg12
I0
sa(dp144
g2
I216
sg3
I389349
sg4
I0
sg5
I0
sg6
I0
sg7
I39501288
sg8
I99
sg9
I1
sg10
I37
sg11
I0
sg12
I0
sa(dp145
g2
I436
sg3
I111072
sg4
I0
sg5
I0
sg6
I5
sg7
I18946824
sg8
I566
sg9
I2
sg10
I73
sg11
I0
sg12
I0
sa(dp146
g2
I139
sg3
I275978
sg4
I0
sg5
I5
sg6
I0
sg7
I209854
sg8
I937
sg9
I1
sg10
I23
sg11
I3
sg12
F1.6666666666666667
sa(dp147
g2
I146
sg3
I360250
sg4
I0
sg5
I0
sg6
I1
sg7
I192365
sg8
I303
sg9
I0
sg10
I28
sg11
I0
sg12
I0
sa(dp148
g2
I4420
sg3
I143808
sg4
I0
sg5
I0
sg6
I0
sg7
I14268804
sg8
I344
sg9
I0
sg10
I744
sg11
I0
sg12
I0
sa(dp149
g2
I204
sg3
I227430
sg4
I0
sg5
I3
sg6
I0
sg7
I1207461
sg8
I422
sg9
I1
sg10
I39
sg11
I1
sg12
F3.0
sa(dp150
g2
I260
sg3
I404068
sg4
I0
sg5
I1
sg6
I0
sg7
I1267892
sg8
I587
sg9
I1
sg10
I56
sg11
I1
sg12
F1.0
sa(dp151
g2
I1583
sg3
I101265
sg4
I0
sg5
I121
sg6
I2
sg7
I6964760
sg8
I636
sg9
I6
sg10
I246
sg11
I9
sg12
F13.444444444444445
sa(dp152
g2
I1046
sg3
I57013
sg4
I0
sg5
I0
sg6
I1
sg7
I30216156
sg8
I575
sg9
I2
sg10
I190
sg11
I0
sg12
I0
sa(dp153
g2
I169
sg3
I494559
sg4
I0
sg5
I0
sg6
I0
sg7
I2682752
sg8
I504
sg9
I1
sg10
I29
sg11
I0
sg12
I0
sa(dp154
g2
I233
sg3
I207360
sg4
I0
sg5
I0
sg6
I0
sg7
I600612
sg8
I718
sg9
I1
sg10
I48
sg11
I0
sg12
I0
sa(dp155
g2
I774
sg3
I66073
sg4
I0
sg5
I0
sg6
I1
sg7
I14753678
sg8
I709
sg9
I3
sg10
I138
sg11
I0
sg12
I0
sa(dp156
g2
I381
sg3
I140543
sg4
I0
sg5
I0
sg6
I3
sg7
I110826
sg8
I225
sg9
I0
sg10
I64
sg11
I0
sg12
I0
sa(dp157
g2
I312
sg3
I534419
sg4
I0
sg5
I14
sg6
I1
sg7
I9890599
sg8
I624
sg9
I1
sg10
I61
sg11
I1
sg12
F14.0
sa(dp158
g2
I537
sg3
I367461
sg4
I0
sg5
I16
sg6
I0
sg7
I10660443
sg8
I850
sg9
I0
sg10
I98
sg11
I2
sg12
F8.0
sa(dp159
g2
I546
sg3
I373283
sg4
I0
sg5
I21
sg6
I0
sg7
I10429168
sg8
I215
sg9
I1
sg10
I84
sg11
I4
sg12
F5.25
sa(dp160
g2
I105
sg3
I634527
sg4
I0
sg5
I2
sg6
I0
sg7
I3940144
sg8
I592
sg9
I1
sg10
I21
sg11
I1
sg12
F2.0
sa(dp161
g2
I339
sg3
I380234
sg4
I0
sg5
I6
sg6
I3
sg7
I480227
sg8
I522
sg9
I1
sg10
I60
sg11
I1
sg12
F6.0
sa(dp162
g2
I166
sg3
I225992
sg4
I0
sg5
I2
sg6
I0
sg7
I94962
sg8
I552
sg9
I0
sg10
I30
sg11
I1
sg12
F2.0
sa(dp163
g2
I49
sg3
I554392
sg4
I0
sg5
I0
sg6
I0
sg7
I3501408
sg8
I549
sg9
I1
sg10
I9
sg11
I0
sg12
I0
sa(dp164
g2
I134
sg3
I123404
sg4
I0
sg5
I0
sg6
I0
sg7
I44842
sg8
I227
sg9
I1
sg10
I26
sg11
I0
sg12
I0
sa(dp165
g2
I58
sg3
I348245
sg4
I0
sg5
I0
sg6
I0
sg7
I12950101
sg8
I515
sg9
I1
sg10
I9
sg11
I0
sg12
I0
sa(dp166
g2
I211
sg3
I350366
sg4
I0
sg5
I0
sg6
I0
sg7
I1769475
sg8
I532
sg9
I5
sg10
I45
sg11
I0
sg12
I0
sa(dp167
g2
I140
sg3
I720893
sg4
I0
sg5
I4
sg6
I0
sg7
I730778
sg8
I664
sg9
I2
sg10
I26
sg11
I1
sg12
F4.0
sa(dp168
g2
I147
sg3
I336468
sg4
I0
sg5
I4
sg6
I0
sg7
I437591
sg8
I435
sg9
I1
sg10
I26
sg11
I1
sg12
F4.0
sa(dp169
g2
I98
sg3
I1032494
sg4
I0
sg5
I1
sg6
I1
sg7
I518038
sg8
I827
sg9
I2
sg10
I18
sg11
I1
sg12
F1.0
sa(dp170
g2
I84
sg3
I489671
sg4
I0
sg5
I0
sg6
I0
sg7
I209550
sg8
I657
sg9
I1
sg10
I20
sg11
I0
sg12
I0
sa(dp171
g2
I137
sg3
I143975
sg4
I0
sg5
I2
sg6
I0
sg7
I4015466
sg8
I336
sg9
I1
sg10
I26
sg11
I1
sg12
F2.0
sa(dp172
g2
I97
sg3
I378478
sg4
I0
sg5
I0
sg6
I0
sg7
I325528
sg8
I433
sg9
I1
sg10
I11
sg11
I0
sg12
I0
sa(dp173
g2
I632
sg3
I176644
sg4
I0
sg5
I0
sg6
I0
sg7
I193181
sg8
I235
sg9
I7
sg10
I89
sg11
I0
sg12
I0
sa(dp174
g2
I458
sg3
I146567
sg4
I0
sg5
I12
sg6
I1
sg7
I3277407
sg8
I380
sg9
I3
sg10
I78
sg11
I1
sg12
F12.0
sa(dp175
g2
I124
sg3
I612022
sg4
I0
sg5
I0
sg6
I0
sg7
I9001529
sg8
I523
sg9
I1
sg10
I25
sg11
I0
sg12
I0
sa(dp176
g2
I115
sg3
I446608
sg4
I0
sg5
I4
sg6
I0
sg7
I843293
sg8
I835
sg9
I1
sg10
I18
sg11
I1
sg12
F4.0
sa(dp177
g2
I499
sg3
I220848
sg4
I0
sg5
I27
sg6
I1
sg7
I17330273
sg8
I547
sg9
I1
sg10
I97
sg11
I2
sg12
F13.5
sa(dp178
g2
I242
sg3
I98677
sg4
I0
sg5
I0
sg6
I0
sg7
I8609425
sg8
I552
sg9
I1
sg10
I45
sg11
I0
sg12
I0
sa(dp179
g2
I317
sg3
I461814
sg4
I0
sg5
I0
sg6
I0
sg7
I1485854
sg8
I594
sg9
I2
sg10
I49
sg11
I0
sg12
I0
sa(dp180
g2
I37
sg3
I132603
sg4
I0
sg5
I0
sg6
I0
sg7
I7943768
sg8
I655
sg9
I1
sg10
I7
sg11
I0
sg12
I0
sa(dp181
g2
I223
sg3
I159050
sg4
I0
sg5
I1
sg6
I0
sg7
I4028943
sg8
I771
sg9
I1
sg10
I37
sg11
I1
sg12
F1.0
sa(dp182
g2
I83
sg3
I464151
sg4
I0
sg5
I0
sg6
I0
sg7
I120701
sg8
I528
sg9
I1
sg10
I16
sg11
I0
sg12
I0
sa(dp183
g2
I105
sg3
I695100
sg4
I0
sg5
I4
sg6
I0
sg7
I2793341
sg8
I737
sg9
I1
sg10
I19
sg11
I2
sg12
F2.0
sa(dp184
g2
I645
sg3
I167676
sg4
I0
sg5
I0
sg6
I0
sg7
I261645
sg8
I290
sg9
I1
sg10
I113
sg11
I0
sg12
I0
sa(dp185
g2
I224
sg3
I496173
sg4
I0
sg5
I5
sg6
I0
sg7
I8369345
sg8
I606
sg9
I1
sg10
I46
sg11
I3
sg12
F1.6666666666666667
sa(dp186
g2
I507
sg3
I319859
sg4
I0
sg5
I0
sg6
I0
sg7
I21548557
sg8
I6
sg9
I2
sg10
I85
sg11
I0
sg12
I0
sa(dp187
g2
I120
sg3
I26526
sg4
I0
sg5
I6
sg6
I0
sg7
I31421411
sg8
I683
sg9
I1
sg10
I23
sg11
I3
sg12
F2.0
sa(dp188
g2
I481
sg3
I145260
sg4
I0
sg5
I6
sg6
I0
sg7
I682513
sg8
I573
sg9
I3
sg10
I91
sg11
I1
sg12
F6.0
sa(dp189
g2
I89
sg3
I316182
sg4
I0
sg5
I6
sg6
I0
sg7
I134951
sg8
I482
sg9
I0
sg10
I15
sg11
I2
sg12
F3.0
sa(dp190
g2
I161
sg3
I106734
sg4
I0
sg5
I0
sg6
I0
sg7
I1247490
sg8
I409
sg9
I2
sg10
I27
sg11
I0
sg12
I0
sa(dp191
g2
I120
sg3
I165260
sg4
I0
sg5
I0
sg6
I1
sg7
I14804320
sg8
I424
sg9
I2
sg10
I23
sg11
I0
sg12
I0
sa(dp192
g2
I296
sg3
I441068
sg4
I0
sg5
I6
sg6
I0
sg7
I4760517
sg8
I428
sg9
I1
sg10
I56
sg11
I1
sg12
F6.0
sa(dp193
g2
I175
sg3
I240077
sg4
I0
sg5
I50
sg6
I0
sg7
I5450183
sg8
I634
sg9
I1
sg10
I29
sg11
I3
sg12
F16.666666666666668
sa(dp194
g2
I84
sg3
I797788
sg4
I0
sg5
I14
sg6
I0
sg7
I2485471
sg8
I738
sg9
I1
sg10
I14
sg11
I1
sg12
F14.0
sa(dp195
g2
I878
sg3
I147939
sg4
I0
sg5
I0
sg6
I2
sg7
I1118271
sg8
I386
sg9
I3
sg10
I173
sg11
I0
sg12
I0
sa(dp196
g2
I242
sg3
I212569
sg4
I0
sg5
I14
sg6
I3
sg7
I11536794
sg8
I304
sg9
I1
sg10
I37
sg11
I3
sg12
F4.666666666666667
sa(dp197
g2
I338
sg3
I305888
sg4
I0
sg5
I20
sg6
I2
sg7
I10458567
sg8
I506
sg9
I2
sg10
I53
sg11
I2
sg12
F10.0
sa(dp198
g2
I585
sg3
I532855
sg4
I0
sg5
I0
sg6
I3
sg7
I27909082
sg8
I494
sg9
I1
sg10
I87
sg11
I0
sg12
I0
sa(dp199
g2
I533
sg3
I320431
sg4
I0
sg5
I2
sg6
I0
sg7
I3013686
sg8
I279
sg9
I4
sg10
I95
sg11
I2
sg12
F1.0
sa(dp200
g2
I241
sg3
I557191
sg4
I0
sg5
I6
sg6
I0
sg7
I7961390
sg8
I715
sg9
I0
sg10
I49
sg11
I1
sg12
F6.0
sa(dp201
g2
I887
sg3
I128120
sg4
I0
sg5
I4
sg6
I1
sg7
I2982
sg8
I643
sg9
I2
sg10
I170
sg11
I1
sg12
F4.0
sa(dp202
g2
I357
sg3
I321588
sg4
I0
sg5
I0
sg6
I2
sg7
I2711073
sg8
I659
sg9
I1
sg10
I63
sg11
I0
sg12
I0
sa(dp203
g2
I366
sg3
I677206
sg4
I0
sg5
I38
sg6
I0
sg7
I743186
sg8
I514
sg9
I1
sg10
I56
sg11
I3
sg12
F12.666666666666666
sa(dp204
g2
I16
sg3
I182490
sg4
I0
sg5
I0
sg6
I0
sg7
I135114
sg8
I398
sg9
I1
sg10
I3
sg11
I0
sg12
I0
sa(dp205
g2
I233
sg3
I289941
sg4
I0
sg5
I0
sg6
I0
sg7
I2104107
sg8
I382
sg9
I1
sg10
I45
sg11
I0
sg12
I0
sa(dp206
g2
I227
sg3
I490858
sg4
I0
sg5
I4
sg6
I0
sg7
I12309296
sg8
I767
sg9
I1
sg10
I43
sg11
I2
sg12
F2.0
sa(dp207
g2
I113
sg3
I177864
sg4
I0
sg5
I0
sg6
I0
sg7
I24385103
sg8
I360
sg9
I1
sg10
I18
sg11
I0
sg12
I0
sa(dp208
g2
I192
sg3
I277569
sg4
I0
sg5
I0
sg6
I0
sg7
I248862
sg8
I453
sg9
I1
sg10
I33
sg11
I0
sg12
I0
sa(dp209
g2
I576
sg3
I201374
sg4
I0
sg5
I4
sg6
I1
sg7
I842096
sg8
I540
sg9
I0
sg10
I99
sg11
I1
sg12
F4.0
sa(dp210
g2
I305
sg3
I418587
sg4
I0
sg5
I9
sg6
I0
sg7
I24884342
sg8
I561
sg9
I0
sg10
I53
sg11
I3
sg12
F3.0
sa(dp211
g2
I229
sg3
I182302
sg4
I0
sg5
I5
sg6
I0
sg7
I1154977
sg8
I426
sg9
I1
sg10
I43
sg11
I3
sg12
F1.6666666666666667
sa(dp212
g2
I115
sg3
I498755
sg4
I0
sg5
I0
sg6
I0
sg7
I431715
sg8
I406
sg9
I1
sg10
I19
sg11
I0
sg12
I0
sa(dp213
g2
I442
sg3
I173226
sg4
I0
sg5
I0
sg6
I0
sg7
I3371287
sg8
I211
sg9
I1
sg10
I83
sg11
I0
sg12
I0
sa(dp214
g2
I509
sg3
I287262
sg4
I0
sg5
I0
sg6
I0
sg7
I4700674
sg8
I67
sg9
I0
sg10
I106
sg11
I0
sg12
I0
sa(dp215
g2
I293
sg3
I327086
sg4
I0
sg5
I2
sg6
I0
sg7
I1059596
sg8
I302
sg9
I1
sg10
I55
sg11
I2
sg12
F1.0
sa(dp216
g2
I645
sg3
I477623
sg4
I0
sg5
I0
sg6
I0
sg7
I2967249
sg8
I494
sg9
I2
sg10
I123
sg11
I0
sg12
I0
sa(dp217
g2
I270
sg3
I197494
sg4
I0
sg5
I6
sg6
I0
sg7
I159745
sg8
I469
sg9
I1
sg10
I42
sg11
I2
sg12
F3.0
sa(dp218
g2
I67
sg3
I228573
sg4
I0
sg5
I0
sg6
I1
sg7
I441152
sg8
I633
sg9
I1
sg10
I14
sg11
I0
sg12
I0
sa(dp219
g2
I303
sg3
I303497
sg4
I0
sg5
I1
sg6
I0
sg7
I988251
sg8
I644
sg9
I2
sg10
I60
sg11
I1
sg12
F1.0
sa(dp220
g2
I241
sg3
I365457
sg4
I0
sg5
I0
sg6
I0
sg7
I1557584
sg8
I682
sg9
I0
sg10
I47
sg11
I0
sg12
I0
sa(dp221
g2
I894
sg3
I234660
sg4
I0
sg5
I34
sg6
I0
sg7
I70900
sg8
I387
sg9
I4
sg10
I145
sg11
I6
sg12
F5.666666666666667
sa(dp222
g2
I314
sg3
I473960
sg4
I0
sg5
I1
sg6
I1
sg7
I2632687
sg8
I685
sg9
I3
sg10
I50
sg11
I1
sg12
F1.0
sa(dp223
g2
I415
sg3
I219330
sg4
I0
sg5
I24
sg6
I2
sg7
I6504860
sg8
I859
sg9
I0
sg10
I75
sg11
I3
sg12
F8.0
sa(dp224
g2
I225
sg3
I578392
sg4
I0
sg5
I5
sg6
I0
sg7
I9257122
sg8
I667
sg9
I1
sg10
I37
sg11
I2
sg12
F2.5
sa(dp225
g2
I239
sg3
I391571
sg4
I0
sg5
I0
sg6
I0
sg7
I678242
sg8
I548
sg9
I2
sg10
I48
sg11
I0
sg12
I0
sa(dp226
g2
I138
sg3
I251656
sg4
I0
sg5
I2
sg6
I0
sg7
I3845453
sg8
I621
sg9
I1
sg10
I25
sg11
I1
sg12
F2.0
sa(dp227
g2
I285
sg3
I215704
sg4
I0
sg5
I5
sg6
I0
sg7
I403426
sg8
I670
sg9
I0
sg10
I50
sg11
I2
sg12
F2.5
sa(dp228
g2
I266
sg3
I636075
sg4
I0
sg5
I9
sg6
I0
sg7
I311655
sg8
I573
sg9
I1
sg10
I44
sg11
I3
sg12
F3.0
sa(dp229
g2
I239
sg3
I94930
sg4
I0
sg5
I1
sg6
I0
sg7
I4480202
sg8
I499
sg9
I0
sg10
I45
sg11
I1
sg12
F1.0
sa(dp230
g2
I75
sg3
I210486
sg4
I0
sg5
I0
sg6
I0
sg7
I24377
sg8
I438
sg9
I1
sg10
I11
sg11
I0
sg12
I0
sa(dp231
g2
I141
sg3
I264627
sg4
I0
sg5
I5
sg6
I0
sg7
I2186565
sg8
I720
sg9
I0
sg10
I23
sg11
I2
sg12
F2.5
sa(dp232
g2
I212
sg3
I142872
sg4
I0
sg5
I0
sg6
I0
sg7
I1937636
sg8
I453
sg9
I2
sg10
I46
sg11
I0
sg12
I0
sa(dp233
g2
I183
sg3
I118112
sg4
I0
sg5
I1
sg6
I0
sg7
I624939
sg8
I481
sg9
I0
sg10
I35
sg11
I2
sg12
F0.5
sa(dp234
g2
I110
sg3
I355786
sg4
I0
sg5
I0
sg6
I0
sg7
I944733
sg8
I493
sg9
I1
sg10
I23
sg11
I0
sg12
I0
sa(dp235
g2
I127
sg3
I237409
sg4
I0
sg5
I4
sg6
I0
sg7
I3768975
sg8
I294
sg9
I1
sg10
I23
sg11
I2
sg12
F2.0
sa(dp236
g2
I280
sg3
I152155
sg4
I0
sg5
I17
sg6
I1
sg7
I133024
sg8
I538
sg9
I3
sg10
I49
sg11
I2
sg12
F8.5
sa(dp237
g2
I105
sg3
I92536
sg4
I0
sg5
I0
sg6
I1
sg7
I28059785
sg8
I242
sg9
I1
sg10
I22
sg11
I0
sg12
I0
sa(dp238
g2
I269
sg3
I276328
sg4
I0
sg5
I3
sg6
I0
sg7
I268285
sg8
I289
sg9
I1
sg10
I45
sg11
I2
sg12
F1.5
sa(dp239
g2
I185
sg3
I1016412
sg4
I0
sg5
I5
sg6
I0
sg7
I6667288
sg8
I508
sg9
I1
sg10
I29
sg11
I3
sg12
F1.6666666666666667
sa(dp240
g2
I189
sg3
I405592
sg4
I0
sg5
I0
sg6
I0
sg7
I4344029
sg8
I642
sg9
I1
sg10
I31
sg11
I0
sg12
I0
sa(dp241
g2
I610
sg3
I682723
sg4
I0
sg5
I0
sg6
I0
sg7
I2988117
sg8
I458
sg9
I1
sg10
I114
sg11
I0
sg12
I0
sa(dp242
g2
I127
sg3
I234459
sg4
I0
sg5
I1
sg6
I0
sg7
I4260304
sg8
I575
sg9
I1
sg10
I18
sg11
I1
sg12
F1.0
sa(dp243
g2
I95
sg3
I791747
sg4
I0
sg5
I0
sg6
I0
sg7
I4435752
sg8
I359
sg9
I1
sg10
I16
sg11
I0
sg12
I0
sa(dp244
g2
I296
sg3
I83534
sg4
I0
sg5
I0
sg6
I1
sg7
I2921893
sg8
I555
sg9
I6
sg10
I56
sg11
I0
sg12
I0
sa(dp245
g2
I139
sg3
I254964
sg4
I0
sg5
I0
sg6
I0
sg7
I4271755
sg8
I581
sg9
I0
sg10
I24
sg11
I0
sg12
I0
sa(dp246
g2
I274
sg3
I310394
sg4
I0
sg5
I14
sg6
I1
sg7
I433161
sg8
I755
sg9
I1
sg10
I53
sg11
I2
sg12
F7.0
sa(dp247
g2
I116
sg3
I280226
sg4
I0
sg5
I0
sg6
I0
sg7
I529427
sg8
I601
sg9
I0
sg10
I25
sg11
I0
sg12
I0
sa(dp248
g2
I133
sg3
I251593
sg4
I0
sg5
I0
sg6
I0
sg7
I5142453
sg8
I407
sg9
I2
sg10
I26
sg11
I0
sg12
I0
sa(dp249
g2
I234
sg3
I387071
sg4
I0
sg5
I10
sg6
I0
sg7
I976918
sg8
I595
sg9
I1
sg10
I46
sg11
I1
sg12
F10.0
sa(dp250
g2
I193
sg3
I133777
sg4
I0
sg5
I0
sg6
I2
sg7
I3044626
sg8
I286
sg9
I1
sg10
I32
sg11
I0
sg12
I0
sa(dp251
g2
I209
sg3
I140494
sg4
I0
sg5
I0
sg6
I0
sg7
I43663
sg8
I650
sg9
I2
sg10
I33
sg11
I0
sg12
I0
sa(dp252
g2
I151
sg3
I323118
sg4
I0
sg5
I1
sg6
I0
sg7
I51523
sg8
I495
sg9
I1
sg10
I28
sg11
I1
sg12
F1.0
sa(dp253
g2
I284
sg3
I123866
sg4
I0
sg5
I8
sg6
I0
sg7
I1305663
sg8
I521
sg9
I1
sg10
I47
sg11
I2
sg12
F4.0
sa(dp254
g2
I490
sg3
I207382
sg4
I0
sg5
I8
sg6
I1
sg7
I73149
sg8
I210
sg9
I2
sg10
I87
sg11
I1
sg12
F8.0
sa(dp255
g2
I219
sg3
I83812
sg4
I0
sg5
I3
sg6
I0
sg7
I11011846
sg8
I705
sg9
I0
sg10
I42
sg11
I2
sg12
F1.5
sa(dp256
g2
I64
sg3
I340677
sg4
I0
sg5
I5
sg6
I0
sg7
I3965129
sg8
I508
sg9
I1
sg10
I10
sg11
I1
sg12
F5.0
sa(dp257
g2
I398
sg3
I147359
sg4
I0
sg5
I2
sg6
I1
sg7
I4896288
sg8
I295
sg9
I1
sg10
I79
sg11
I1
sg12
F2.0
sa(dp258
g2
I1832
sg3
I132904
sg4
I0
sg5
I56
sg6
I2
sg7
I6798042
sg8
I255
sg9
I3
sg10
I306
sg11
I4
sg12
F14.0
sa(dp259
g2
I404
sg3
I164666
sg4
I0
sg5
I27
sg6
I1
sg7
I674369
sg8
I379
sg9
I2
sg10
I66
sg11
I2
sg12
F13.5
sa(dp260
g2
I230
sg3
I184597
sg4
I0
sg5
I6
sg6
I0
sg7
I279586
sg8
I420
sg9
I3
sg10
I36
sg11
I1
sg12
F6.0
sa(dp261
g2
I741
sg3
I270347
sg4
I0
sg5
I8
sg6
I0
sg7
I16946886
sg8
I182
sg9
I0
sg10
I132
sg11
I2
sg12
F4.0
sa(dp262
g2
I170
sg3
I209460
sg4
I0
sg5
I4
sg6
I0
sg7
I255297
sg8
I423
sg9
I3
sg10
I31
sg11
I1
sg12
F4.0
sa(dp263
g2
I92
sg3
I360479
sg4
I0
sg5
I0
sg6
I1
sg7
I4426727
sg8
I558
sg9
I1
sg10
I19
sg11
I0
sg12
I0
sa(dp264
g2
I97
sg3
I146047
sg4
I0
sg5
I0
sg6
I0
sg7
I129522
sg8
I304
sg9
I1
sg10
I16
sg11
I0
sg12
I0
sa(dp265
g2
I68
sg3
I167921
sg4
I0
sg5
I0
sg6
I0
sg7
I855764
sg8
I584
sg9
I1
sg10
I13
sg11
I0
sg12
I0
sa(dp266
g2
I216
sg3
I245123
sg4
I0
sg5
I10
sg6
I0
sg7
I1663826
sg8
I596
sg9
I1
sg10
I41
sg11
I3
sg12
F3.3333333333333335
sa(dp267
g2
I385
sg3
I175732
sg4
I0
sg5
I0
sg6
I0
sg7
I1823101
sg8
I219
sg9
I1
sg10
I69
sg11
I0
sg12
I0
sa(dp268
g2
I179
sg3
I359638
sg4
I0
sg5
I0
sg6
I4
sg7
I1009864
sg8
I231
sg9
I1
sg10
I28
sg11
I0
sg12
I0
sa(dp269
g2
I217
sg3
I687934
sg4
I0
sg5
I3
sg6
I0
sg7
I8270146
sg8
I758
sg9
I1
sg10
I37
sg11
I1
sg12
F3.0
sa(dp270
g2
I781
sg3
I93869
sg4
I0
sg5
I0
sg6
I0
sg7
I573659
sg8
I246
sg9
I1
sg10
I142
sg11
I0
sg12
I0
sa(dp271
g2
I74
sg3
I188532
sg4
I0
sg5
I0
sg6
I0
sg7
I1472014
sg8
I245
sg9
I1
sg10
I14
sg11
I0
sg12
I0
sa(dp272
g2
I71
sg3
I239030
sg4
I0
sg5
I0
sg6
I0
sg7
I372121
sg8
I390
sg9
I1
sg10
I10
sg11
I0
sg12
I0
sa(dp273
g2
I188
sg3
I338750
sg4
I0
sg5
I2
sg6
I0
sg7
I477635
sg8
I422
sg9
I1
sg10
I37
sg11
I1
sg12
F2.0
sa(dp274
g2
I61
sg3
I284111
sg4
I0
sg5
I3
sg6
I0
sg7
I266162
sg8
I464
sg9
I1
sg10
I10
sg11
I1
sg12
F3.0
sa(dp275
g2
I413
sg3
I425476
sg4
I0
sg5
I5
sg6
I1
sg7
I2802748
sg8
I684
sg9
I3
sg10
I68
sg11
I2
sg12
F2.5
sa(dp276
g2
I247
sg3
I109965
sg4
I0
sg5
I5
sg6
I0
sg7
I4617069
sg8
I518
sg9
I1
sg10
I46
sg11
I1
sg12
F5.0
sa(dp277
g2
I985
sg3
I67677
sg4
I0
sg5
I7
sg6
I1
sg7
I24266885
sg8
I298
sg9
I2
sg10
I186
sg11
I1
sg12
F7.0
sa(dp278
g2
I133
sg3
I333232
sg4
I0
sg5
I3
sg6
I1
sg7
I8858026
sg8
I477
sg9
I1
sg10
I27
sg11
I1
sg12
F3.0
sa(dp279
g2
I228
sg3
I280796
sg4
I0
sg5
I3
sg6
I0
sg7
I3462160
sg8
I508
sg9
I1
sg10
I41
sg11
I2
sg12
F1.5
sa(dp280
g2
I119
sg3
I434796
sg4
I0
sg5
I3
sg6
I0
sg7
I3430395
sg8
I710
sg9
I1
sg10
I18
sg11
I2
sg12
F1.5
sa(dp281
g2
I196
sg3
I236311
sg4
I0
sg5
I8
sg6
I0
sg7
I2504457
sg8
I369
sg9
I2
sg10
I29
sg11
I2
sg12
F4.0
sa(dp282
g2
I354
sg3
I455735
sg4
I0
sg5
I6
sg6
I0
sg7
I181557
sg8
I361
sg9
I1
sg10
I56
sg11
I2
sg12
F3.0
sa(dp283
g2
I226
sg3
I384725
sg4
I0
sg5
I10
sg6
I1
sg7
I642895
sg8
I133
sg9
I1
sg10
I39
sg11
I4
sg12
F2.5
sa(dp284
g2
I135
sg3
I348063
sg4
I0
sg5
I0
sg6
I0
sg7
I166520
sg8
I260
sg9
I1
sg10
I20
sg11
I0
sg12
I0
sa(dp285
g2
I335
sg3
I161068
sg4
I0
sg5
I0
sg6
I0
sg7
I107717
sg8
I286
sg9
I3
sg10
I55
sg11
I0
sg12
I0
sa(dp286
g2
I823
sg3
I32124
sg4
I0
sg5
I28
sg6
I0
sg7
I29489919
sg8
I548
sg9
I1
sg10
I140
sg11
I2
sg12
F14.0
sa(dp287
g2
I253
sg3
I213940
sg4
I0
sg5
I0
sg6
I0
sg7
I1112350
sg8
I473
sg9
I1
sg10
I46
sg11
I0
sg12
I0
sa(dp288
g2
I804
sg3
I18158
sg4
I6
sg5
I0
sg6
I0
sg7
I20850922
sg8
I152
sg9
I2
sg10
I125
sg11
I0
sg12
I0
sa(dp289
g2
I850
sg3
I169989
sg4
I0
sg5
I16
sg6
I0
sg7
I301146
sg8
I202
sg9
I0
sg10
I143
sg11
I3
sg12
F5.333333333333333
sa(dp290
g2
I79
sg3
I168740
sg4
I0
sg5
I0
sg6
I0
sg7
I3743240
sg8
I489
sg9
I1
sg10
I18
sg11
I0
sg12
I0
sa(dp291
g2
I147
sg3
I173708
sg4
I0
sg5
I2
sg6
I2
sg7
I19305076
sg8
I452
sg9
I4
sg10
I23
sg11
I2
sg12
F1.0
sa(dp292
g2
I230
sg3
I165425
sg4
I0
sg5
I0
sg6
I0
sg7
I10215100
sg8
I396
sg9
I1
sg10
I45
sg11
I0
sg12
I0
sa(dp293
g2
I262
sg3
I112350
sg4
I0
sg5
I0
sg6
I0
sg7
I2051195
sg8
I388
sg9
I1
sg10
I47
sg11
I0
sg12
I0
sa(dp294
g2
I455
sg3
I154427
sg4
I0
sg5
I3
sg6
I0
sg7
I944660
sg8
I109
sg9
I2
sg10
I87
sg11
I2
sg12
F1.5
sa(dp295
g2
I225
sg3
I208020
sg4
I0
sg5
I0
sg6
I0
sg7
I920181
sg8
I192
sg9
I1
sg10
I34
sg11
I0
sg12
I0
sa(dp296
g2
I317
sg3
I322873
sg4
I0
sg5
I19
sg6
I0
sg7
I104436
sg8
I221
sg9
I1
sg10
I50
sg11
I2
sg12
F9.5
sa(dp297
g2
I63
sg3
I114984
sg4
I0
sg5
I0
sg6
I0
sg7
I1857
sg8
I401
sg9
I1
sg10
I14
sg11
I0
sg12
I0
sa(dp298
g2
I63
sg3
I294310
sg4
I0
sg5
I2
sg6
I0
sg7
I538374
sg8
I252
sg9
I1
sg10
I12
sg11
I1
sg12
F2.0
sa(dp299
g2
I178
sg3
I161113
sg4
I0
sg5
I2
sg6
I0
sg7
I483833
sg8
I419
sg9
I0
sg10
I30
sg11
I2
sg12
F1.0
sa(dp300
g2
I356
sg3
I147063
sg4
I0
sg5
I0
sg6
I2
sg7
I22045954
sg8
I115
sg9
I0
sg10
I72
sg11
I0
sg12
I0
sa(dp301
g2
I644
sg3
I333202
sg4
I0
sg5
I13
sg6
I0
sg7
I805081
sg8
I381
sg9
I1
sg10
I117
sg11
I1
sg12
F13.0
sa(dp302
g2
I1071
sg3
I132917
sg4
I0
sg5
I9
sg6
I1
sg7
I406199
sg8
I261
sg9
I1
sg10
I186
sg11
I6
sg12
F1.5
sa(dp303
g2
I46
sg3
I117047
sg4
I0
sg5
I4
sg6
I0
sg7
I5893946
sg8
I448
sg9
I1
sg10
I10
sg11
I1
sg12
F4.0
sa(dp304
g2
I112
sg3
I92910
sg4
I0
sg5
I0
sg6
I0
sg7
I1429145
sg8
I234
sg9
I0
sg10
I16
sg11
I0
sg12
I0
sa(dp305
g2
I402
sg3
I343753
sg4
I0
sg5
I1
sg6
I0
sg7
I645318
sg8
I467
sg9
I2
sg10
I82
sg11
I1
sg12
F1.0
sa(dp306
g2
I265
sg3
I249127
sg4
I0
sg5
I2
sg6
I1
sg7
I715455
sg8
I418
sg9
I1
sg10
I54
sg11
I1
sg12
F2.0
sa(dp307
g2
I639
sg3
I207748
sg4
I0
sg5
I13
sg6
I0
sg7
I1641236
sg8
I638
sg9
I1
sg10
I112
sg11
I2
sg12
F6.5
sa(dp308
g2
I241
sg3
I75746
sg4
I0
sg5
I0
sg6
I1
sg7
I427160
sg8
I401
sg9
I1
sg10
I50
sg11
I0
sg12
I0
sa(dp309
g2
I852
sg3
I125598
sg4
I0
sg5
I0
sg6
I0
sg7
I5844931
sg8
I217
sg9
I1
sg10
I149
sg11
I0
sg12
I0
sa(dp310
g2
I473
sg3
I452905
sg4
I0
sg5
I5
sg6
I0
sg7
I8010133
sg8
I832
sg9
I1
sg10
I83
sg11
I1
sg12
F5.0
sa(dp311
g2
I103
sg3
I546574
sg4
I0
sg5
I0
sg6
I0
sg7
I1207479
sg8
I418
sg9
I1
sg10
I17
sg11
I0
sg12
I0
sa(dp312
g2
I869
sg3
I678564
sg4
I0
sg5
I22
sg6
I0
sg7
I7571665
sg8
I636
sg9
I2
sg10
I151
sg11
I6
sg12
F3.6666666666666665
sa(dp313
g2
I333
sg3
I334486
sg4
I0
sg5
I0
sg6
I0
sg7
I319435
sg8
I324
sg9
I1
sg10
I59
sg11
I0
sg12
I0
sa(dp314
g2
I116
sg3
I211596
sg4
I0
sg5
I0
sg6
I0
sg7
I145436
sg8
I85
sg9
I1
sg10
I20
sg11
I0
sg12
I0
sa(dp315
g2
I294
sg3
I352984
sg4
I0
sg5
I1
sg6
I0
sg7
I1835044
sg8
I250
sg9
I1
sg10
I61
sg11
I1
sg12
F1.0
sa(dp316
g2
I205
sg3
I73351
sg4
I0
sg5
I0
sg6
I0
sg7
I712799
sg8
I322
sg9
I1
sg10
I35
sg11
I0
sg12
I0
sa(dp317
g2
I309
sg3
I297307
sg4
I0
sg5
I2
sg6
I0
sg7
I3121985
sg8
I568
sg9
I2
sg10
I58
sg11
I1
sg12
F2.0
sa(dp318
g2
I244
sg3
I272579
sg4
I0
sg5
I0
sg6
I0
sg7
I269825
sg8
I250
sg9
I2
sg10
I45
sg11
I0
sg12
I0
sa(dp319
g2
I74
sg3
I251397
sg4
I0
sg5
I2
sg6
I0
sg7
I1549644
sg8
I500
sg9
I1
sg10
I11
sg11
I2
sg12
F1.0
sa(dp320
g2
I534
sg3
I139110
sg4
I0
sg5
I0
sg6
I2
sg7
I7286
sg8
I455
sg9
I2
sg10
I94
sg11
I0
sg12
I0
sa(dp321
g2
I470
sg3
I295646
sg4
I0
sg5
I12
sg6
I1
sg7
I16476974
sg8
I458
sg9
I1
sg10
I91
sg11
I5
sg12
F2.4
sa(dp322
g2
I420
sg3
I308386
sg4
I0
sg5
I0
sg6
I1
sg7
I50905
sg8
I182
sg9
I1
sg10
I76
sg11
I0
sg12
I0
sa(dp323
g2
I254
sg3
I224468
sg4
I0
sg5
I0
sg6
I0
sg7
I12944035
sg8
I498
sg9
I1
sg10
I51
sg11
I0
sg12
I0
sa(dp324
g2
I470
sg3
I480135
sg4
I0
sg5
I8
sg6
I0
sg7
I12555510
sg8
I357
sg9
I0
sg10
I89
sg11
I2
sg12
F4.0
sa(dp325
g2
I55
sg3
I221489
sg4
I0
sg5
I0
sg6
I0
sg7
I4990739
sg8
I243
sg9
I1
sg10
I10
sg11
I0
sg12
I0
sa(dp326
g2
I218
sg3
I159912
sg4
I0
sg5
I0
sg6
I1
sg7
I383953
sg8
I193
sg9
I1
sg10
I42
sg11
I0
sg12
I0
sa(dp327
g2
I141
sg3
I330061
sg4
I0
sg5
I0
sg6
I0
sg7
I7604981
sg8
I353
sg9
I1
sg10
I27
sg11
I0
sg12
I0
sa(dp328
g2
I294
sg3
I378309
sg4
I0
sg5
I0
sg6
I0
sg7
I2759130
sg8
I477
sg9
I0
sg10
I53
sg11
I0
sg12
I0
sa(dp329
g2
I97
sg3
I168317
sg4
I0
sg5
I0
sg6
I1
sg7
I31887
sg8
I271
sg9
I1
sg10
I17
sg11
I0
sg12
I0
sa(dp330
g2
I229
sg3
I56859
sg4
I0
sg5
I0
sg6
I1
sg7
I309000
sg8
I533
sg9
I1
sg10
I39
sg11
I0
sg12
I0
sa(dp331
g2
I44
sg3
I153261
sg4
I0
sg5
I0
sg6
I0
sg7
I3654936
sg8
I318
sg9
I1
sg10
I9
sg11
I0
sg12
I0
sa(dp332
g2
I298
sg3
I198382
sg4
I0
sg5
I6
sg6
I0
sg7
I1523456
sg8
I358
sg9
I2
sg10
I45
sg11
I1
sg12
F6.0
sa(dp333
g2
I514
sg3
I166065
sg4
I0
sg5
I0
sg6
I1
sg7
I2081708
sg8
I326
sg9
I5
sg10
I98
sg11
I0
sg12
I0
sa(dp334
g2
I572
sg3
I37590
sg4
I0
sg5
I10
sg6
I0
sg7
I306353
sg8
I243
sg9
I3
sg10
I95
sg11
I1
sg12
F10.0
sa(dp335
g2
I181
sg3
I322290
sg4
I0
sg5
I1
sg6
I0
sg7
I17071908
sg8
I578
sg9
I1
sg10
I32
sg11
I1
sg12
F1.0
sa(dp336
g2
I170
sg3
I184576
sg4
I0
sg5
I0
sg6
I1
sg7
I25689
sg8
I95
sg9
I1
sg10
I33
sg11
I0
sg12
I0
sa(dp337
g2
I56
sg3
I325908
sg4
I0
sg5
I1
sg6
I0
sg7
I5607708
sg8
I275
sg9
I0
sg10
I10
sg11
I1
sg12
F1.0
sa(dp338
g2
I360
sg3
I300746
sg4
I0
sg5
I40
sg6
I0
sg7
I2428119
sg8
I635
sg9
I0
sg10
I59
sg11
I2
sg12
F20.0
sa(dp339
g2
I241
sg3
I361946
sg4
I0
sg5
I14
sg6
I1
sg7
I4041253
sg8
I331
sg9
I3
sg10
I42
sg11
I2
sg12
F7.0
sa(dp340
g2
I461
sg3
I509267
sg4
I0
sg5
I4
sg6
I0
sg7
I2349998
sg8
I209
sg9
I4
sg10
I87
sg11
I2
sg12
F2.0
sa(dp341
g2
I248
sg3
I136000
sg4
I0
sg5
I6
sg6
I0
sg7
I222922
sg8
I188
sg9
I0
sg10
I43
sg11
I2
sg12
F3.0
sa(dp342
g2
I587
sg3
I102324
sg4
I0
sg5
I11
sg6
I2
sg7
I9719731
sg8
I217
sg9
I3
sg10
I105
sg11
I2
sg12
F5.5
sa(dp343
g2
I335
sg3
I70578
sg4
I0
sg5
I12
sg6
I5
sg7
I2158532
sg8
I245
sg9
I3
sg10
I59
sg11
I3
sg12
F4.0
sa(dp344
g2
I232
sg3
I243742
sg4
I0
sg5
I8
sg6
I0
sg7
I2776392
sg8
I133
sg9
I1
sg10
I45
sg11
I1
sg12
F8.0
sa(dp345
g2
I327
sg3
I160364
sg4
I0
sg5
I0
sg6
I1
sg7
I1466036
sg8
I369
sg9
I1
sg10
I54
sg11
I0
sg12
I0
sa(dp346
g2
I199
sg3
I153050
sg4
I0
sg5
I0
sg6
I0
sg7
I534847
sg8
I195
sg9
I2
sg10
I36
sg11
I0
sg12
I0
sa(dp347
g2
I79
sg3
I182919
sg4
I0
sg5
I0
sg6
I0
sg7
I1206856
sg8
I255
sg9
I1
sg10
I15
sg11
I0
sg12
I0
sa(dp348
g2
I593
sg3
I248215
sg4
I0
sg5
I5
sg6
I0
sg7
I10538412
sg8
I496
sg9
I1
sg10
I97
sg11
I2
sg12
F2.5
sa(dp349
g2
I226
sg3
I66631
sg4
I0
sg5
I3
sg6
I0
sg7
I19343
sg8
I460
sg9
I1
sg10
I41
sg11
I1
sg12
F3.0
sa(dp350
g2
I422
sg3
I694444
sg4
I0
sg5
I0
sg6
I0
sg7
I675448
sg8
I261
sg9
I1
sg10
I78
sg11
I0
sg12
I0
sa(dp351
g2
I261
sg3
I245744
sg4
I0
sg5
I9
sg6
I1
sg7
I865272
sg8
I400
sg9
I2
sg10
I47
sg11
I1
sg12
F9.0
sa(dp352
g2
I183
sg3
I191707
sg4
I0
sg5
I1
sg6
I0
sg7
I10763461
sg8
I173
sg9
I1
sg10
I37
sg11
I1
sg12
F1.0
sa(dp353
g2
I199
sg3
I1008451
sg4
I0
sg5
I10
sg6
I0
sg7
I743823
sg8
I227
sg9
I1
sg10
I40
sg11
I1
sg12
F10.0
sa(dp354
g2
I152
sg3
I736893
sg4
I0
sg5
I5
sg6
I0
sg7
I6416142
sg8
I621
sg9
I1
sg10
I27
sg11
I2
sg12
F2.5
sa(dp355
g2
I224
sg3
I179695
sg4
I0
sg5
I0
sg6
I3
sg7
I206964
sg8
I340
sg9
I1
sg10
I41
sg11
I0
sg12
I0
sa(dp356
g2
I174
sg3
I119302
sg4
I0
sg5
I2
sg6
I1
sg7
I8538295
sg8
I401
sg9
I1
sg10
I34
sg11
I2
sg12
F1.0
sa(dp357
g2
I485
sg3
I322038
sg4
I0
sg5
I1
sg6
I0
sg7
I1535336
sg8
I314
sg9
I2
sg10
I96
sg11
I1
sg12
F1.0
sa(dp358
g2
I222
sg3
I337627
sg4
I0
sg5
I0
sg6
I0
sg7
I5458807
sg8
I111
sg9
I1
sg10
I35
sg11
I0
sg12
I0
sa(dp359
g2
I124
sg3
I592477
sg4
I0
sg5
I8
sg6
I0
sg7
I492399
sg8
I325
sg9
I1
sg10
I17
sg11
I1
sg12
F8.0
sa(dp360
g2
I573
sg3
I58279
sg4
I0
sg5
I6
sg6
I1
sg7
I434411
sg8
I200
sg9
I1
sg10
I101
sg11
I2
sg12
F3.0
sa(dp361
g2
I294
sg3
I11699
sg4
I0
sg5
I4
sg6
I0
sg7
I240205
sg8
I229
sg9
I1
sg10
I58
sg11
I4
sg12
F1.0
sa(dp362
g2
I375
sg3
I173191
sg4
I0
sg5
I3
sg6
I0
sg7
I11875813
sg8
I163
sg9
I1
sg10
I65
sg11
I1
sg12
F3.0
sa(dp363
g2
I571
sg3
I136283
sg4
I0
sg5
I8
sg6
I0
sg7
I13107
sg8
I222
sg9
I2
sg10
I101
sg11
I2
sg12
F4.0
sa(dp364
g2
I525
sg3
I158709
sg4
I0
sg5
I8
sg6
I0
sg7
I292502
sg8
I245
sg9
I3
sg10
I79
sg11
I1
sg12
F8.0
sa(dp365
g2
I142
sg3
I663249
sg4
I0
sg5
I1
sg6
I0
sg7
I899176
sg8
I391
sg9
I1
sg10
I25
sg11
I1
sg12
F1.0
sa(dp366
g2
I224
sg3
I512689
sg4
I0
sg5
I2
sg6
I0
sg7
I4843172
sg8
I460
sg9
I2
sg10
I52
sg11
I2
sg12
F1.0
sa(dp367
g2
I61
sg3
I212063
sg4
I0
sg5
I0
sg6
I0
sg7
I377463
sg8
I399
sg9
I1
sg10
I11
sg11
I0
sg12
I0
sa(dp368
g2
I412
sg3
I82568
sg4
I0
sg5
I11
sg6
I0
sg7
I256260
sg8
I294
sg9
I1
sg10
I70
sg11
I1
sg12
F11.0
sa(dp369
g2
I154
sg3
I640997
sg4
I0
sg5
I0
sg6
I0
sg7
I70833
sg8
I218
sg9
I1
sg10
I30
sg11
I0
sg12
I0
sa(dp370
g2
I78
sg3
I124693
sg4
I0
sg5
I3
sg6
I0
sg7
I452143
sg8
I289
sg9
I1
sg10
I11
sg11
I2
sg12
F1.5
sa(dp371
g2
I111
sg3
I130364
sg4
I0
sg5
I3
sg6
I0
sg7
I10109941
sg8
I443
sg9
I1
sg10
I19
sg11
I1
sg12
F3.0
sa(dp372
g2
I732
sg3
I10956
sg4
I0
sg5
I7
sg6
I0
sg7
I30100743
sg8
I341
sg9
I0
sg10
I125
sg11
I2
sg12
F3.5
sa(dp373
g2
I377
sg3
I210703
sg4
I0
sg5
I4
sg6
I0
sg7
I1098556
sg8
I277
sg9
I4
sg10
I77
sg11
I1
sg12
F4.0
sa(dp374
g2
I101
sg3
I85915
sg4
I0
sg5
I0
sg6
I1
sg7
I7948504
sg8
I196
sg9
I1
sg10
I15
sg11
I0
sg12
I0
sa(dp375
g2
I182
sg3
I379692
sg4
I0
sg5
I7
sg6
I0
sg7
I8384788
sg8
I319
sg9
I1
sg10
I32
sg11
I1
sg12
F7.0
sa(dp376
g2
I77
sg3
I475415
sg4
I0
sg5
I0
sg6
I0
sg7
I13891070
sg8
I384
sg9
I1
sg10
I15
sg11
I0
sg12
I0
sa(dp377
g2
I1303
sg3
I103436
sg4
I0
sg5
I0
sg6
I3
sg7
I947846
sg8
I259
sg9
I2
sg10
I234
sg11
I0
sg12
I0
sa(dp378
g2
I344
sg3
I129626
sg4
I0
sg5
I0
sg6
I0
sg7
I16985066
sg8
I208
sg9
I1
sg10
I58
sg11
I0
sg12
I0
sa(dp379
g2
I168
sg3
I133050
sg4
I0
sg5
I0
sg6
I1
sg7
I20101940
sg8
I396
sg9
I1
sg10
I33
sg11
I0
sg12
I0
sa(dp380
g2
I402
sg3
I295059
sg4
I0
sg5
I2
sg6
I0
sg7
I24888331
sg8
I155
sg9
I2
sg10
I77
sg11
I2
sg12
F1.0
sa(dp381
g2
I261
sg3
I121425
sg4
I0
sg5
I18
sg6
I0
sg7
I2068548
sg8
I271
sg9
I1
sg10
I48
sg11
I2
sg12
F9.0
sa(dp382
g2
I71
sg3
I416517
sg4
I0
sg5
I2
sg6
I0
sg7
I4481731
sg8
I371
sg9
I1
sg10
I14
sg11
I2
sg12
F1.0
sa(dp383
g2
I43
sg3
I127565
sg4
I0
sg5
I0
sg6
I1
sg7
I1653974
sg8
I149
sg9
I1
sg10
I8
sg11
I0
sg12
I0
sa(dp384
g2
I594
sg3
I209948
sg4
I0
sg5
I2
sg6
I1
sg7
I9350788
sg8
I425
sg9
I2
sg10
I116
sg11
I1
sg12
F2.0
sa(dp385
g2
I203
sg3
I112226
sg4
I1
sg5
I7
sg6
I0
sg7
I3584933
sg8
I252
sg9
I1
sg10
I34
sg11
I1
sg12
F7.0
sa(dp386
g2
I159
sg3
I380665
sg4
I0
sg5
I4
sg6
I0
sg7
I954840
sg8
I477
sg9
I1
sg10
I31
sg11
I1
sg12
F4.0
sa(dp387
g2
I162
sg3
I503911
sg4
I0
sg5
I5
sg6
I0
sg7
I5214587
sg8
I517
sg9
I1
sg10
I28
sg11
I1
sg12
F5.0
sa(dp388
g2
I212
sg3
I305728
sg4
I0
sg5
I2
sg6
I0
sg7
I12836173
sg8
I374
sg9
I1
sg10
I39
sg11
I1
sg12
F2.0
sa(dp389
g2
I75
sg3
I410781
sg4
I0
sg5
I0
sg6
I0
sg7
I1135035
sg8
I216
sg9
I1
sg10
I15
sg11
I0
sg12
I0
sa(dp390
g2
I4940
sg3
I111339
sg4
I0
sg5
I66
sg6
I5
sg7
I1113613
sg8
I5
sg9
I0
sg10
I797
sg11
I19
sg12
F3.473684210526316
sa(dp391
g2
I242
sg3
I89114
sg4
I0
sg5
I0
sg6
I2
sg7
I133384
sg8
I267
sg9
I2
sg10
I38
sg11
I0
sg12
I0
sa(dp392
g2
I189
sg3
I576828
sg4
I0
sg5
I3
sg6
I0
sg7
I3939381
sg8
I364
sg9
I1
sg10
I32
sg11
I1
sg12
F3.0
sa(dp393
g2
I964
sg3
I137399
sg4
I0
sg5
I11
sg6
I0
sg7
I9620295
sg8
I374
sg9
I4
sg10
I166
sg11
I1
sg12
F11.0
sa(dp394
g2
I271
sg3
I71854
sg4
I0
sg5
I0
sg6
I1
sg7
I5172833
sg8
I523
sg9
I1
sg10
I45
sg11
I0
sg12
I0
sa(dp395
g2
I577
sg3
I71440
sg4
I0
sg5
I0
sg6
I1
sg7
I994010
sg8
I436
sg9
I3
sg10
I106
sg11
I0
sg12
I0
sa(dp396
g2
I210
sg3
I101237
sg4
I0
sg5
I0
sg6
I0
sg7
I29456463
sg8
I217
sg9
I1
sg10
I38
sg11
I0
sg12
I0
sa(dp397
g2
I753
sg3
I146535
sg4
I0
sg5
I1
sg6
I2
sg7
I6269785
sg8
I145
sg9
I3
sg10
I137
sg11
I1
sg12
F1.0
sa(dp398
g2
I167
sg3
I101817
sg4
I0
sg5
I0
sg6
I0
sg7
I1006301
sg8
I122
sg9
I0
sg10
I30
sg11
I0
sg12
I0
sa(dp399
g2
I169
sg3
I79126
sg4
I0
sg5
I0
sg6
I0
sg7
I5626250
sg8
I263
sg9
I3
sg10
I25
sg11
I0
sg12
I0
sa(dp400
g2
I240
sg3
I53753
sg4
I0
sg5
I113
sg6
I0
sg7
I22322645
sg8
I437
sg9
I0
sg10
I40
sg11
I2
sg12
F56.5
sa(dp401
g2
I143
sg3
I156461
sg4
I0
sg5
I0
sg6
I0
sg7
I8822377
sg8
I291
sg9
I2
sg10
I20
sg11
I0
sg12
I0
sa(dp402
g2
I121
sg3
I172369
sg4
I0
sg5
I0
sg6
I2
sg7
I1405971
sg8
I278
sg9
I0
sg10
I26
sg11
I0
sg12
I0
sa(dp403
g2
I221
sg3
I726806
sg4
I0
sg5
I3
sg6
I0
sg7
I9542768
sg8
I595
sg9
I1
sg10
I41
sg11
I1
sg12
F3.0
sa(dp404
g2
I379
sg3
I175658
sg4
I0
sg5
I7
sg6
I0
sg7
I189685
sg8
I291
sg9
I2
sg10
I68
sg11
I1
sg12
F7.0
sa(dp405
g2
I10
sg3
I72201
sg4
I0
sg5
I2
sg6
I0
sg7
I1176023
sg8
I413
sg9
I0
sg10
I0
sg11
I1
sg12
F2.0
sa(dp406
g2
I577
sg3
I113163
sg4
I0
sg5
I0
sg6
I0
sg7
I2633310
sg8
I180
sg9
I2
sg10
I95
sg11
I0
sg12
I0
sa(dp407
g2
I274
sg3
I356359
sg4
I0
sg5
I14
sg6
I0
sg7
I19483025
sg8
I472
sg9
I0
sg10
I53
sg11
I2
sg12
F7.0
sa(dp408
g2
I280
sg3
I225006
sg4
I0
sg5
I5
sg6
I0
sg7
I714070
sg8
I51
sg9
I1
sg10
I51
sg11
I1
sg12
F5.0
sa(dp409
g2
I243
sg3
I178894
sg4
I0
sg5
I1
sg6
I0
sg7
I1708610
sg8
I145
sg9
I2
sg10
I45
sg11
I1
sg12
F1.0
sa(dp410
g2
I531
sg3
I59287
sg4
I0
sg5
I0
sg6
I0
sg7
I3012921
sg8
I266
sg9
I6
sg10
I93
sg11
I0
sg12
I0
sa(dp411
g2
I642
sg3
I122237
sg4
I0
sg5
I7
sg6
I0
sg7
I492711
sg8
I129
sg9
I3
sg10
I102
sg11
I2
sg12
F3.5
sa(dp412
g2
I118
sg3
I407297
sg4
I0
sg5
I2
sg6
I2
sg7
I7368801
sg8
I551
sg9
I0
sg10
I20
sg11
I2
sg12
F1.0
sa(dp413
g2
I436
sg3
I48907
sg4
I0
sg5
I5
sg6
I0
sg7
I773472
sg8
I297
sg9
I2
sg10
I76
sg11
I1
sg12
F5.0
sa(dp414
g2
I98
sg3
I77552
sg4
I0
sg5
I5
sg6
I0
sg7
I47826
sg8
I189
sg9
I1
sg10
I14
sg11
I1
sg12
F5.0
sa(dp415
g2
I162
sg3
I15882
sg4
I0
sg5
I12
sg6
I0
sg7
I28889838
sg8
I233
sg9
I0
sg10
I26
sg11
I2
sg12
F6.0
sa(dp416
g2
I238
sg3
I130892
sg4
I0
sg5
I0
sg6
I0
sg7
I8689983
sg8
I307
sg9
I2
sg10
I40
sg11
I0
sg12
I0
sa(dp417
g2
I91
sg3
I214546
sg4
I0
sg5
I1
sg6
I0
sg7
I3097896
sg8
I307
sg9
I1
sg10
I18
sg11
I1
sg12
F1.0
sa(dp418
g2
I74
sg3
I338570
sg4
I0
sg5
I0
sg6
I0
sg7
I36156
sg8
I315
sg9
I1
sg10
I12
sg11
I0
sg12
I0
sa(dp419
g2
I373
sg3
I147246
sg4
I0
sg5
I6
sg6
I0
sg7
I23294659
sg8
I325
sg9
I2
sg10
I67
sg11
I1
sg12
F6.0
sa(dp420
g2
I138
sg3
I321278
sg4
I0
sg5
I0
sg6
I1
sg7
I4172465
sg8
I325
sg9
I1
sg10
I28
sg11
I0
sg12
I0
sa(dp421
g2
I664
sg3
I96348
sg4
I0
sg5
I24
sg6
I0
sg7
I25176504
sg8
I118
sg9
I3
sg10
I119
sg11
I3
sg12
F8.0
sa(dp422
g2
I232
sg3
I938911
sg4
I0
sg5
I4
sg6
I0
sg7
I642169
sg8
I382
sg9
I0
sg10
I44
sg11
I2
sg12
F2.0
sa(dp423
g2
I272
sg3
I57697
sg4
I0
sg5
I0
sg6
I0
sg7
I6921760
sg8
I318
sg9
I3
sg10
I59
sg11
I0
sg12
I0
sa(dp424
g2
I39
sg3
I155333
sg4
I0
sg5
I0
sg6
I0
sg7
I1774043
sg8
I333
sg9
I1
sg10
I8
sg11
I0
sg12
I0
sa(dp425
g2
I63
sg3
I125808
sg4
I0
sg5
I0
sg6
I0
sg7
I93179
sg8
I237
sg9
I1
sg10
I12
sg11
I0
sg12
I0
sa(dp426
g2
I735
sg3
I86916
sg4
I0
sg5
I0
sg6
I1
sg7
I1017937
sg8
I301
sg9
I3
sg10
I119
sg11
I0
sg12
I0
sa(dp427
g2
I1441
sg3
I122492
sg4
I0
sg5
I27
sg6
I1
sg7
I7065242
sg8
I303
sg9
I0
sg10
I260
sg11
I3
sg12
F9.0
sa(dp428
g2
I205
sg3
I202978
sg4
I0
sg5
I3
sg6
I0
sg7
I5676676
sg8
I375
sg9
I1
sg10
I39
sg11
I2
sg12
F1.5
sa(dp429
g2
I311
sg3
I141561
sg4
I0
sg5
I0
sg6
I0
sg7
I606858
sg8
I178
sg9
I1
sg10
I47
sg11
I0
sg12
I0
sa(dp430
g2
I1035
sg3
I71332
sg4
I0
sg5
I0
sg6
I2
sg7
I195144
sg8
I111
sg9
I1
sg10
I175
sg11
I0
sg12
I0
sa(dp431
g2
I170
sg3
I103599
sg4
I0
sg5
I8
sg6
I0
sg7
I577241
sg8
I407
sg9
I1
sg10
I28
sg11
I3
sg12
F2.6666666666666665
sa(dp432
g2
I52
sg3
I244451
sg4
I0
sg5
I0
sg6
I0
sg7
I1810760
sg8
I345
sg9
I1
sg10
I8
sg11
I0
sg12
I0
sa(dp433
g2
I303
sg3
I505132
sg4
I0
sg5
I6
sg6
I0
sg7
I8023337
sg8
I223
sg9
I0
sg10
I60
sg11
I1
sg12
F6.0
sa(dp434
g2
I621
sg3
I111060
sg4
I0
sg5
I12
sg6
I0
sg7
I3975388
sg8
I585
sg9
I2
sg10
I115
sg11
I2
sg12
F6.0
sa(dp435
g2
I85
sg3
I250566
sg4
I0
sg5
I1
sg6
I0
sg7
I1400622
sg8
I423
sg9
I1
sg10
I16
sg11
I1
sg12
F1.0
sa(dp436
g2
I225
sg3
I91378
sg4
I0
sg5
I0
sg6
I0
sg7
I6392768
sg8
I130
sg9
I0
sg10
I44
sg11
I0
sg12
I0
sa(dp437
g2
I123
sg3
I155010
sg4
I0
sg5
I0
sg6
I0
sg7
I6501134
sg8
I322
sg9
I1
sg10
I21
sg11
I0
sg12
I0
sa(dp438
g2
I233
sg3
I303009
sg4
I0
sg5
I9
sg6
I0
sg7
I4142178
sg8
I374
sg9
I2
sg10
I40
sg11
I2
sg12
F4.5
sa(dp439
g2
I370
sg3
I141836
sg4
I0
sg5
I0
sg6
I3
sg7
I180993
sg8
I253
sg9
I1
sg10
I76
sg11
I0
sg12
I0
sa(dp440
g2
I1043
sg3
I24617
sg4
I0
sg5
I0
sg6
I16
sg7
I2184521
sg8
I85
sg9
I1
sg10
I160
sg11
I0
sg12
I0
sa(dp441
g2
I1158
sg3
I46263
sg4
I0
sg5
I20
sg6
I0
sg7
I12857584
sg8
I325
sg9
I3
sg10
I192
sg11
I2
sg12
F10.0
sa(dp442
g2
I568
sg3
I734522
sg4
I0
sg5
I7
sg6
I0
sg7
I339220
sg8
I183
sg9
I3
sg10
I113
sg11
I4
sg12
F1.75
sa(dp443
g2
I258
sg3
I55599
sg4
I0
sg5
I14
sg6
I0
sg7
I15112149
sg8
I333
sg9
I1
sg10
I45
sg11
I2
sg12
F7.0
sa(dp444
g2
I329
sg3
I183741
sg4
I0
sg5
I1
sg6
I0
sg7
I3459131
sg8
I354
sg9
I2
sg10
I60
sg11
I1
sg12
F1.0
sa(dp445
g2
I93
sg3
I184190
sg4
I0
sg5
I0
sg6
I0
sg7
I151211
sg8
I369
sg9
I1
sg10
I20
sg11
I0
sg12
I0
sa(dp446
g2
I128
sg3
I268994
sg4
I0
sg5
I3
sg6
I0
sg7
I432289
sg8
I298
sg9
I1
sg10
I22
sg11
I1
sg12
F3.0
sa(dp447
g2
I189
sg3
I150705
sg4
I0
sg5
I0
sg6
I0
sg7
I775075
sg8
I374
sg9
I1
sg10
I32
sg11
I0
sg12
I0
sa(dp448
g2
I201
sg3
I329490
sg4
I0
sg5
I5
sg6
I0
sg7
I11287278
sg8
I417
sg9
I1
sg10
I40
sg11
I2
sg12
F2.5
sa(dp449
g2
I475
sg3
I128731
sg4
I0
sg5
I0
sg6
I0
sg7
I119576
sg8
I204
sg9
I4
sg10
I83
sg11
I0
sg12
I0
sa(dp450
g2
I108
sg3
I201828
sg4
I0
sg5
I17
sg6
I0
sg7
I27425458
sg8
I370
sg9
I1
sg10
I21
sg11
I1
sg12
F17.0
sa(dp451
g2
I316
sg3
I179952
sg4
I0
sg5
I1
sg6
I0
sg7
I3908349
sg8
I408
sg9
I1
sg10
I55
sg11
I1
sg12
F1.0
sa(dp452
g2
I60
sg3
I157639
sg4
I0
sg5
I4
sg6
I1
sg7
I1369553
sg8
I182
sg9
I1
sg10
I9
sg11
I1
sg12
F4.0
sa(dp453
g2
I335
sg3
I48913
sg4
I0
sg5
I11
sg6
I1
sg7
I128577
sg8
I157
sg9
I2
sg10
I53
sg11
I2
sg12
F5.5
sa(dp454
g2
I438
sg3
I131425
sg4
I0
sg5
I0
sg6
I0
sg7
I175130
sg8
I96
sg9
I0
sg10
I74
sg11
I0
sg12
I0
sa(dp455
g2
I120
sg3
I65857
sg4
I0
sg5
I0
sg6
I1
sg7
I3278104
sg8
I281
sg9
I1
sg10
I25
sg11
I0
sg12
I0
sa(dp456
g2
I256
sg3
I190050
sg4
I0
sg5
I15
sg6
I1
sg7
I23842752
sg8
I422
sg9
I1
sg10
I48
sg11
I2
sg12
F7.5
sa(dp457
g2
I460
sg3
I226922
sg4
I0
sg5
I30
sg6
I1
sg7
I3782998
sg8
I7
sg9
I2
sg10
I70
sg11
I1
sg12
F30.0
sa(dp458
g2
I390
sg3
I155847
sg4
I0
sg5
I0
sg6
I2
sg7
I7143496
sg8
I308
sg9
I2
sg10
I75
sg11
I0
sg12
I0
sa(dp459
g2
I219
sg3
I243791
sg4
I0
sg5
I0
sg6
I0
sg7
I699891
sg8
I307
sg9
I1
sg10
I38
sg11
I0
sg12
I0
sa(dp460
g2
I147
sg3
I135271
sg4
I0
sg5
I0
sg6
I0
sg7
I1697907
sg8
I313
sg9
I1
sg10
I28
sg11
I0
sg12
I0
sa(dp461
g2
I201
sg3
I309754
sg4
I0
sg5
I3
sg6
I1
sg7
I7585619
sg8
I226
sg9
I2
sg10
I37
sg11
I1
sg12
F3.0
sa(dp462
g2
I88
sg3
I358223
sg4
I0
sg5
I5
sg6
I0
sg7
I25445440
sg8
I379
sg9
I1
sg10
I17
sg11
I1
sg12
F5.0
sa(dp463
g2
I221
sg3
I175954
sg4
I0
sg5
I1
sg6
I0
sg7
I2916320
sg8
I217
sg9
I1
sg10
I37
sg11
I1
sg12
F1.0
sa(dp464
g2
I330
sg3
I190892
sg4
I0
sg5
I0
sg6
I0
sg7
I176589
sg8
I277
sg9
I2
sg10
I59
sg11
I0
sg12
I0
sa(dp465
g2
I165
sg3
I174040
sg4
I0
sg5
I0
sg6
I0
sg7
I7781273
sg8
I283
sg9
I1
sg10
I27
sg11
I0
sg12
I0
sa(dp466
g2
I555
sg3
I46200
sg4
I0
sg5
I0
sg6
I0
sg7
I4202016
sg8
I261
sg9
I1
sg10
I100
sg11
I0
sg12
I0
sa(dp467
g2
I316
sg3
I339693
sg4
I0
sg5
I9
sg6
I2
sg7
I1592578
sg8
I376
sg9
I1
sg10
I56
sg11
I1
sg12
F9.0
sa(dp468
g2
I80
sg3
I419297
sg4
I0
sg5
I0
sg6
I0
sg7
I1035360
sg8
I227
sg9
I1
sg10
I17
sg11
I0
sg12
I0
sa(dp469
g2
I683
sg3
I148412
sg4
I0
sg5
I0
sg6
I0
sg7
I182247
sg8
I55
sg9
I1
sg10
I127
sg11
I0
sg12
I0
sa(dp470
g2
I323
sg3
I303679
sg4
I0
sg5
I5
sg6
I2
sg7
I15943975
sg8
I290
sg9
I1
sg10
I52
sg11
I3
sg12
F1.6666666666666667
sa(dp471
g2
I387
sg3
I90649
sg4
I0
sg5
I0
sg6
I0
sg7
I209562
sg8
I134
sg9
I1
sg10
I74
sg11
I0
sg12
I0
sa(dp472
g2
I383
sg3
I123197
sg4
I0
sg5
I4
sg6
I0
sg7
I1303354
sg8
I334
sg9
I2
sg10
I70
sg11
I2
sg12
F2.0
sa(dp473
g2
I97
sg3
I81808
sg4
I0
sg5
I0
sg6
I0
sg7
I6130391
sg8
I242
sg9
I2
sg10
I23
sg11
I0
sg12
I0
sa(dp474
g2
I322
sg3
I200472
sg4
I1
sg5
I0
sg6
I0
sg7
I7586218
sg8
I365
sg9
I2
sg10
I55
sg11
I0
sg12
I0
sa(dp475
g2
I287
sg3
I168812
sg4
I0
sg5
I10
sg6
I1
sg7
I100345
sg8
I319
sg9
I1
sg10
I53
sg11
I2
sg12
F5.0
sa(dp476
g2
I155
sg3
I53083
sg4
I0
sg5
I0
sg6
I1
sg7
I11029841
sg8
I325
sg9
I1
sg10
I28
sg11
I0
sg12
I0
sa(dp477
g2
I436
sg3
I75724
sg4
I0
sg5
I6
sg6
I0
sg7
I19604913
sg8
I490
sg9
I1
sg10
I78
sg11
I1
sg12
F6.0
sa(dp478
g2
I122
sg3
I237582
sg4
I0
sg5
I13
sg6
I0
sg7
I13413845
sg8
I208
sg9
I1
sg10
I26
sg11
I2
sg12
F6.5
sa(dp479
g2
I650
sg3
I339332
sg4
I0
sg5
I2
sg6
I0
sg7
I28648923
sg8
I229
sg9
I3
sg10
I120
sg11
I1
sg12
F2.0
sa(dp480
g2
I52
sg3
I177338
sg4
I0
sg5
I0
sg6
I0
sg7
I4915366
sg8
I271
sg9
I1
sg10
I10
sg11
I0
sg12
I0
sa(dp481
g2
I90
sg3
I235215
sg4
I0
sg5
I0
sg6
I0
sg7
I273962
sg8
I279
sg9
I1
sg10
I17
sg11
I0
sg12
I0
sa(dp482
g2
I180
sg3
I239822
sg4
I0
sg5
I0
sg6
I0
sg7
I973488
sg8
I269
sg9
I1
sg10
I34
sg11
I0
sg12
I0
sa(dp483
g2
I332
sg3
I226833
sg4
I0
sg5
I0
sg6
I0
sg7
I15223296
sg8
I408
sg9
I3
sg10
I62
sg11
I0
sg12
I0
sa(dp484
g2
I207
sg3
I223715
sg4
I0
sg5
I8
sg6
I0
sg7
I20180597
sg8
I226
sg9
I1
sg10
I39
sg11
I1
sg12
F8.0
sa(dp485
g2
I54
sg3
I260137
sg4
I0
sg5
I0
sg6
I0
sg7
I5471351
sg8
I254
sg9
I0
sg10
I8
sg11
I0
sg12
I0
sa(dp486
g2
I758
sg3
I120782
sg4
I0
sg5
I15
sg6
I0
sg7
I904078
sg8
I141
sg9
I1
sg10
I143
sg11
I1
sg12
F15.0
sa(dp487
g2
I408
sg3
I163738
sg4
I0
sg5
I6
sg6
I0
sg7
I12698328
sg8
I87
sg9
I1
sg10
I71
sg11
I2
sg12
F3.0
sa(dp488
g2
I524
sg3
I191917
sg4
I0
sg5
I13
sg6
I0
sg7
I14507637
sg8
I286
sg9
I2
sg10
I87
sg11
I5
sg12
F2.6
sa(dp489
g2
I343
sg3
I660487
sg4
I0
sg5
I0
sg6
I0
sg7
I3559600
sg8
I317
sg9
I2
sg10
I62
sg11
I0
sg12
I0
sa(dp490
g2
I715
sg3
I442480
sg4
I0
sg5
I14
sg6
I0
sg7
I204049
sg8
I230
sg9
I1
sg10
I126
sg11
I6
sg12
F2.3333333333333335
sa(dp491
g2
I118
sg3
I107427
sg4
I0
sg5
I579
sg6
I0
sg7
I13867319
sg8
I119
sg9
I0
sg10
I19
sg11
I1
sg12
F579.0
sa(dp492
g2
I119
sg3
I69166
sg4
I0
sg5
I0
sg6
I0
sg7
I744403
sg8
I203
sg9
I2
sg10
I18
sg11
I0
sg12
I0
sa(dp493
g2
I243
sg3
I97560
sg4
I0
sg5
I3
sg6
I0
sg7
I5067661
sg8
I82
sg9
I3
sg10
I48
sg11
I1
sg12
F3.0
sa(dp494
g2
I279
sg3
I179030
sg4
I0
sg5
I0
sg6
I1
sg7
I595332
sg8
I268
sg9
I1
sg10
I55
sg11
I0
sg12
I0
sa(dp495
g2
I77
sg3
I71214
sg4
I0
sg5
I0
sg6
I0
sg7
I154617
sg8
I241
sg9
I1
sg10
I11
sg11
I0
sg12
I0
sa(dp496
g2
I1014
sg3
I216481
sg4
I0
sg5
I14
sg6
I0
sg7
I446061
sg8
I95
sg9
I2
sg10
I165
sg11
I3
sg12
F4.666666666666667
sa(dp497
g2
I395
sg3
I283311
sg4
I0
sg5
I2
sg6
I0
sg7
I4998688
sg8
I374
sg9
I0
sg10
I68
sg11
I2
sg12
F1.0
sa(dp498
g2
I534
sg3
I227814
sg4
I0
sg5
I0
sg6
I0
sg7
I44781
sg8
I418
sg9
I1
sg10
I97
sg11
I0
sg12
I0
sa(dp499
g2
I69
sg3
I151301
sg4
I0
sg5
I5
sg6
I0
sg7
I826957
sg8
I303
sg9
I1
sg10
I13
sg11
I1
sg12
F5.0
sa(dp500
g2
I268
sg3
I197988
sg4
I0
sg5
I0
sg6
I0
sg7
I1260813
sg8
I281
sg9
I1
sg10
I52
sg11
I2
sg12
F0.0
sa(dp501
g2
I124
sg3
I169160
sg4
I0
sg5
I0
sg6
I0
sg7
I6081043
sg8
I368
sg9
I1
sg10
I26
sg11
I0
sg12
I0
sa(dp502
g2
I264
sg3
I183979
sg4
I0
sg5
I0
sg6
I0
sg7
I9847269
sg8
I347
sg9
I0
sg10
I46
sg11
I0
sg12
I0
sa(dp503
g2
I808
sg3
I343793
sg4
I0
sg5
I22
sg6
I0
sg7
I491967
sg8
I80
sg9
I4
sg10
I137
sg11
I4
sg12
F5.5
sa(dp504
g2
I428
sg3
I192883
sg4
I0
sg5
I5
sg6
I0
sg7
I8575709
sg8
I338
sg9
I2
sg10
I71
sg11
I4
sg12
F1.25
sa(dp505
g2
I146
sg3
I111176
sg4
I0
sg5
I0
sg6
I0
sg7
I3420156
sg8
I277
sg9
I1
sg10
I31
sg11
I0
sg12
I0
sa(dp506
g2
I911
sg3
I67719
sg4
I0
sg5
I0
sg6
I0
sg7
I5399339
sg8
I317
sg9
I0
sg10
I157
sg11
I0
sg12
I0
sa(dp507
g2
I151
sg3
I398024
sg4
I0
sg5
I0
sg6
I1
sg7
I6587528
sg8
I250
sg9
I1
sg10
I27
sg11
I0
sg12
I0
sa(dp508
g2
I48
sg3
I191748
sg4
I0
sg5
I2
sg6
I0
sg7
I919684
sg8
I271
sg9
I0
sg10
I10
sg11
I1
sg12
F2.0
sa(dp509
g2
I103
sg3
I122647
sg4
I0
sg5
I2
sg6
I0
sg7
I10840586
sg8
I305
sg9
I2
sg10
I23
sg11
I1
sg12
F2.0
sa(dp510
g2
I59
sg3
I294644
sg4
I0
sg5
I0
sg6
I0
sg7
I5998359
sg8
I315
sg9
I1
sg10
I11
sg11
I0
sg12
I0
sa(dp511
g2
I953
sg3
I86623
sg4
I0
sg5
I0
sg6
I1
sg7
I7075121
sg8
I132
sg9
I5
sg10
I169
sg11
I0
sg12
I0
sa(dp512
g2
I435
sg3
I93582
sg4
I0
sg5
I4
sg6
I0
sg7
I4564595
sg8
I300
sg9
I1
sg10
I84
sg11
I1
sg12
F4.0
sa(dp513
g2
I178
sg3
I526381
sg4
I0
sg5
I2
sg6
I0
sg7
I9039992
sg8
I269
sg9
I1
sg10
I38
sg11
I1
sg12
F2.0
sa(dp514
g2
I307
sg3
I60331
sg4
I0
sg5
I4
sg6
I0
sg7
I21553825
sg8
I212
sg9
I4
sg10
I64
sg11
I1
sg12
F4.0
sa(dp515
g2
I43
sg3
I259561
sg4
I0
sg5
I5
sg6
I0
sg7
I8113787
sg8
I391
sg9
I0
sg10
I7
sg11
I1
sg12
F5.0
sa(dp516
g2
I440
sg3
I125885
sg4
I0
sg5
I5
sg6
I1
sg7
I3386632
sg8
I274
sg9
I2
sg10
I75
sg11
I1
sg12
F5.0
sa(dp517
g2
I148
sg3
I96446
sg4
I0
sg5
I0
sg6
I0
sg7
I8437597
sg8
I330
sg9
I1
sg10
I30
sg11
I0
sg12
I0
sa(dp518
g2
I142
sg3
I139077
sg4
I0
sg5
I3
sg6
I0
sg7
I8802889
sg8
I321
sg9
I1
sg10
I26
sg11
I1
sg12
F3.0
sa(dp519
g2
I297
sg3
I342922
sg4
I0
sg5
I8
sg6
I0
sg7
I12444777
sg8
I306
sg9
I1
sg10
I57
sg11
I1
sg12
F8.0
sa(dp520
g2
I1642
sg3
I42857
sg4
I0
sg5
I16
sg6
I0
sg7
I15144980
sg8
I154
sg9
I5
sg10
I280
sg11
I2
sg12
F8.0
sa(dp521
g2
I320
sg3
I83768
sg4
I0
sg5
I0
sg6
I0
sg7
I377028
sg8
I256
sg9
I1
sg10
I60
sg11
I0
sg12
I0
sa(dp522
g2
I122
sg3
I232699
sg4
I0
sg5
I2
sg6
I0
sg7
I12934223
sg8
I369
sg9
I1
sg10
I27
sg11
I1
sg12
F2.0
sa(dp523
g2
I174
sg3
I106299
sg4
I0
sg5
I10
sg6
I0
sg7
I287101
sg8
I204
sg9
I2
sg10
I28
sg11
I2
sg12
F5.0
sa(dp524
g2
I2099
sg3
I38869
sg4
I1
sg5
I29
sg6
I3
sg7
I12995815
sg8
I195
sg9
I9
sg10
I385
sg11
I1
sg12
F29.0
sa(dp525
g2
I1408
sg3
I52762
sg4
I0
sg5
I0
sg6
I2
sg7
I1942472
sg8
I85
sg9
I2
sg10
I244
sg11
I0
sg12
I0
sa(dp526
g2
I490
sg3
I22543
sg4
I0
sg5
I18
sg6
I0
sg7
I36117603
sg8
I262
sg9
I1
sg10
I79
sg11
I2
sg12
F9.0
sa(dp527
g2
I129
sg3
I274489
sg4
I0
sg5
I0
sg6
I0
sg7
I1489625
sg8
I140
sg9
I1
sg10
I22
sg11
I0
sg12
I0
sa(dp528
g2
I616
sg3
I113204
sg4
I0
sg5
I0
sg6
I1
sg7
I38276
sg8
I149
sg9
I1
sg10
I117
sg11
I0
sg12
I0
sa(dp529
g2
I276
sg3
I68297
sg4
I0
sg5
I0
sg6
I0
sg7
I3217687
sg8
I220
sg9
I3
sg10
I50
sg11
I0
sg12
I0
sa(dp530
g2
I336
sg3
I214806
sg4
I0
sg5
I20
sg6
I0
sg7
I26344315
sg8
I270
sg9
I1
sg10
I63
sg11
I2
sg12
F10.0
sa(dp531
g2
I77
sg3
I331597
sg4
I0
sg5
I3
sg6
I0
sg7
I1228597
sg8
I291
sg9
I0
sg10
I15
sg11
I1
sg12
F3.0
sa(dp532
g2
I416
sg3
I176951
sg4
I0
sg5
I7
sg6
I2
sg7
I33571117
sg8
I44
sg9
I1
sg10
I72
sg11
I1
sg12
F7.0
sa(dp533
g2
I167
sg3
I332212
sg4
I0
sg5
I3
sg6
I0
sg7
I18364263
sg8
I100
sg9
I1
sg10
I29
sg11
I2
sg12
F1.5
sa(dp534
g2
I2242
sg3
I51143
sg4
I0
sg5
I0
sg6
I15
sg7
I1824705
sg8
I26
sg9
I2
sg10
I418
sg11
I0
sg12
I0
sa(dp535
g2
I436
sg3
I51752
sg4
I0
sg5
I11
sg6
I0
sg7
I3798882
sg8
I97
sg9
I4
sg10
I80
sg11
I1
sg12
F11.0
sa(dp536
g2
I225
sg3
I234956
sg4
I0
sg5
I0
sg6
I1
sg7
I3519314
sg8
I308
sg9
I2
sg10
I50
sg11
I0
sg12
I0
sa(dp537
g2
I157
sg3
I145761
sg4
I0
sg5
I1
sg6
I0
sg7
I10695161
sg8
I280
sg9
I1
sg10
I28
sg11
I1
sg12
F1.0
sa(dp538
g2
I130
sg3
I147079
sg4
I0
sg5
I10
sg6
I0
sg7
I1988024
sg8
I211
sg9
I1
sg10
I23
sg11
I1
sg12
F10.0
sa(dp539
g2
I271
sg3
I52865
sg4
I0
sg5
I0
sg6
I0
sg7
I20994790
sg8
I157
sg9
I3
sg10
I50
sg11
I0
sg12
I0
sa(dp540
g2
I397
sg3
I83812
sg4
I0
sg5
I0
sg6
I0
sg7
I141777
sg8
I278
sg9
I3
sg10
I74
sg11
I0
sg12
I0
sa(dp541
g2
I167
sg3
I180889
sg4
I0
sg5
I10
sg6
I0
sg7
I165662
sg8
I221
sg9
I1
sg10
I26
sg11
I2
sg12
F5.0
sa(dp542
g2
I206
sg3
I158370
sg4
I0
sg5
I2
sg6
I0
sg7
I4406399
sg8
I238
sg9
I1
sg10
I42
sg11
I2
sg12
F1.0
sa(dp543
g2
I324
sg3
I123221
sg4
I0
sg5
I0
sg6
I0
sg7
I6130800
sg8
I344
sg9
I1
sg10
I66
sg11
I0
sg12
I0
sa(dp544
g2
I185
sg3
I151070
sg4
I0
sg5
I16
sg6
I1
sg7
I12098586
sg8
I309
sg9
I1
sg10
I29
sg11
I3
sg12
F5.333333333333333
sa(dp545
g2
I128
sg3
I34482
sg4
I0
sg5
I6
sg6
I0
sg7
I3236197
sg8
I225
sg9
I1
sg10
I22
sg11
I2
sg12
F3.0
sa(dp546
g2
I173
sg3
I57604
sg4
I0
sg5
I0
sg6
I0
sg7
I367014
sg8
I446
sg9
I1
sg10
I29
sg11
I0
sg12
I0
sa(dp547
g2
I602
sg3
I64028
sg4
I0
sg5
I0
sg6
I0
sg7
I1629770
sg8
I97
sg9
I1
sg10
I101
sg11
I0
sg12
I0
sa(dp548
g2
I421
sg3
I115085
sg4
I0
sg5
I4
sg6
I0
sg7
I397161
sg8
I233
sg9
I1
sg10
I70
sg11
I2
sg12
F2.0
sa(dp549
g2
I179
sg3
I56766
sg4
I0
sg5
I0
sg6
I0
sg7
I107836
sg8
I245
sg9
I0
sg10
I30
sg11
I0
sg12
I0
sa(dp550
g2
I108
sg3
I118559
sg4
I0
sg5
I10
sg6
I0
sg7
I114267
sg8
I347
sg9
I2
sg10
I18
sg11
I1
sg12
F10.0
sa(dp551
g2
I129
sg3
I194528
sg4
I0
sg5
I0
sg6
I0
sg7
I185941
sg8
I183
sg9
I1
sg10
I24
sg11
I0
sg12
I0
sa(dp552
g2
I587
sg3
I54174
sg4
I0
sg5
I0
sg6
I2
sg7
I2592094
sg8
I128
sg9
I5
sg10
I103
sg11
I0
sg12
I0
sa(dp553
g2
I326
sg3
I141988
sg4
I0
sg5
I0
sg6
I0
sg7
I1024489
sg8
I246
sg9
I1
sg10
I54
sg11
I0
sg12
I0
sa(dp554
g2
I299
sg3
I299300
sg4
I0
sg5
I3
sg6
I0
sg7
I2356510
sg8
I410
sg9
I1
sg10
I49
sg11
I3
sg12
F1.0
sa(dp555
g2
I441
sg3
I75197
sg4
I0
sg5
I0
sg6
I2
sg7
I5422144
sg8
I143
sg9
I1
sg10
I84
sg11
I0
sg12
I0
sa(dp556
g2
I254
sg3
I171272
sg4
I0
sg5
I4
sg6
I1
sg7
I16664376
sg8
I320
sg9
I1
sg10
I52
sg11
I1
sg12
F4.0
sa(dp557
g2
I587
sg3
I60132
sg4
I0
sg5
I0
sg6
I0
sg7
I9980160
sg8
I142
sg9
I1
sg10
I108
sg11
I0
sg12
I0
sa(dp558
g2
I185
sg3
I92955
sg4
I0
sg5
I0
sg6
I0
sg7
I11250821
sg8
I343
sg9
I1
sg10
I36
sg11
I0
sg12
I0
sa(dp559
g2
I198
sg3
I67787
sg4
I0
sg5
I10
sg6
I1
sg7
I5154458
sg8
I163
sg9
I2
sg10
I31
sg11
I3
sg12
F3.3333333333333335
sa(dp560
g2
I638
sg3
I92439
sg4
I0
sg5
I18
sg6
I0
sg7
I16138864
sg8
I293
sg9
I2
sg10
I115
sg11
I3
sg12
F6.0
sa(dp561
g2
I332
sg3
I18981
sg4
I0
sg5
I2
sg6
I0
sg7
I26611
sg8
I231
sg9
I2
sg10
I57
sg11
I2
sg12
F1.0
sa(dp562
g2
I380
sg3
I143854
sg4
I0
sg5
I0
sg6
I0
sg7
I34325723
sg8
I90
sg9
I1
sg10
I68
sg11
I0
sg12
I0
sa(dp563
g2
I186
sg3
I419403
sg4
I0
sg5
I0
sg6
I0
sg7
I8917907
sg8
I286
sg9
I1
sg10
I36
sg11
I0
sg12
I0
sa(dp564
g2
I140
sg3
I124613
sg4
I0
sg5
I0
sg6
I0
sg7
I8220943
sg8
I154
sg9
I1
sg10
I30
sg11
I0
sg12
I0
sa(dp565
g2
I263
sg3
I112936
sg4
I0
sg5
I18
sg6
I0
sg7
I12065904
sg8
I294
sg9
I1
sg10
I52
sg11
I3
sg12
F6.0
sa(dp566
g2
I179
sg3
I375605
sg4
I0
sg5
I2
sg6
I0
sg7
I10017169
sg8
I237
sg9
I1
sg10
I35
sg11
I2
sg12
F1.0
sa(dp567
g2
I193
sg3
I91285
sg4
I0
sg5
I6
sg6
I0
sg7
I1993732
sg8
I378
sg9
I1
sg10
I36
sg11
I1
sg12
F6.0
sa(dp568
g2
I243
sg3
I47842
sg4
I0
sg5
I5
sg6
I0
sg7
I2201687
sg8
I347
sg9
I1
sg10
I49
sg11
I1
sg12
F5.0
sa(dp569
g2
I234
sg3
I42502
sg4
I0
sg5
I4
sg6
I0
sg7
I4319870
sg8
I186
sg9
I0
sg10
I42
sg11
I2
sg12
F2.0
sa(dp570
g2
I127
sg3
I238287
sg4
I0
sg5
I2
sg6
I0
sg7
I1267145
sg8
I191
sg9
I1
sg10
I24
sg11
I1
sg12
F2.0
sa(dp571
g2
I594
sg3
I115770
sg4
I0
sg5
I6
sg6
I0
sg7
I29099439
sg8
I319
sg9
I1
sg10
I106
sg11
I1
sg12
F6.0
sa(dp572
g2
I374
sg3
I59072
sg4
I0
sg5
I0
sg6
I0
sg7
I4151251
sg8
I214
sg9
I3
sg10
I67
sg11
I0
sg12
I0
sa(dp573
g2
I364
sg3
I158777
sg4
I0
sg5
I0
sg6
I0
sg7
I6147100
sg8
I276
sg9
I1
sg10
I68
sg11
I0
sg12
I0
sa(dp574
g2
I84
sg3
I155922
sg4
I0
sg5
I7
sg6
I0
sg7
I10678240
sg8
I356
sg9
I0
sg10
I12
sg11
I3
sg12
F2.3333333333333335
sa(dp575
g2
I485
sg3
I186176
sg4
I0
sg5
I0
sg6
I3
sg7
I473702
sg8
I124
sg9
I2
sg10
I80
sg11
I0
sg12
I0
sa(dp576
g2
I191
sg3
I128357
sg4
I0
sg5
I0
sg6
I0
sg7
I1569007
sg8
I190
sg9
I1
sg10
I35
sg11
I0
sg12
I0
sa(dp577
g2
I461
sg3
I117140
sg4
I0
sg5
I0
sg6
I0
sg7
I1060330
sg8
I277
sg9
I1
sg10
I85
sg11
I0
sg12
I0
sa(dp578
g2
I376
sg3
I100290
sg4
I0
sg5
I6
sg6
I0
sg7
I43357954
sg8
I5
sg9
I1
sg10
I69
sg11
I2
sg12
F3.0
sa(dp579
g2
I180
sg3
I292086
sg4
I0
sg5
I0
sg6
I0
sg7
I8424955
sg8
I298
sg9
I1
sg10
I33
sg11
I0
sg12
I0
sa(dp580
g2
I232
sg3
I132084
sg4
I0
sg5
I0
sg6
I0
sg7
I874488
sg8
I284
sg9
I1
sg10
I38
sg11
I0
sg12
I0
sa(dp581
g2
I110
sg3
I288475
sg4
I0
sg5
I0
sg6
I0
sg7
I3263763
sg8
I161
sg9
I1
sg10
I17
sg11
I0
sg12
I0
sa(dp582
g2
I197
sg3
I36781
sg4
I0
sg5
I6
sg6
I0
sg7
I6146871
sg8
I211
sg9
I1
sg10
I37
sg11
I3
sg12
F2.0
sa(dp583
g2
I145
sg3
I211399
sg4
I0
sg5
I5
sg6
I0
sg7
I1401828
sg8
I334
sg9
I1
sg10
I27
sg11
I3
sg12
F1.6666666666666667
sa(dp584
g2
I259
sg3
I135242
sg4
I0
sg5
I3
sg6
I0
sg7
I11041421
sg8
I339
sg9
I1
sg10
I49
sg11
I1
sg12
F3.0
sa(dp585
g2
I179
sg3
I173178
sg4
I0
sg5
I7
sg6
I0
sg7
I62680
sg8
I249
sg9
I1
sg10
I30
sg11
I1
sg12
F7.0
sa(dp586
g2
I322
sg3
I45756
sg4
I0
sg5
I9
sg6
I0
sg7
I20638258
sg8
I273
sg9
I1
sg10
I61
sg11
I2
sg12
F4.5
sa(dp587
g2
I96
sg3
I354268
sg4
I0
sg5
I4
sg6
I0
sg7
I1388836
sg8
I243
sg9
I0
sg10
I17
sg11
I1
sg12
F4.0
sa(dp588
g2
I174
sg3
I188937
sg4
I0
sg5
I7
sg6
I0
sg7
I1157160
sg8
I263
sg9
I1
sg10
I32
sg11
I1
sg12
F7.0
sa(dp589
g2
I83
sg3
I269178
sg4
I0
sg5
I3
sg6
I0
sg7
I1038845
sg8
I278
sg9
I1
sg10
I15
sg11
I2
sg12
F1.5
sa(dp590
g2
I1170
sg3
I130342
sg4
I0
sg5
I0
sg6
I0
sg7
I3844832
sg8
I229
sg9
I0
sg10
I187
sg11
I0
sg12
I0
sa(dp591
g2
I193
sg3
I268202
sg4
I0
sg5
I3
sg6
I0
sg7
I3900167
sg8
I215
sg9
I2
sg10
I34
sg11
I1
sg12
F3.0
sa(dp592
g2
I577
sg3
I209576
sg4
I0
sg5
I49
sg6
I0
sg7
I20648053
sg8
I264
sg9
I1
sg10
I114
sg11
I1
sg12
F49.0
sa(dp593
g2
I312
sg3
I165512
sg4
I0
sg5
I0
sg6
I0
sg7
I4910393
sg8
I204
sg9
I1
sg10
I58
sg11
I0
sg12
I0
sa(dp594
g2
I320
sg3
I143766
sg4
I0
sg5
I0
sg6
I0
sg7
I11005505
sg8
I173
sg9
I1
sg10
I57
sg11
I0
sg12
I0
sa(dp595
g2
I344
sg3
I295741
sg4
I0
sg5
I2
sg6
I0
sg7
I139198
sg8
I75
sg9
I1
sg10
I62
sg11
I1
sg12
F2.0
sa(dp596
g2
I216
sg3
I162426
sg4
I0
sg5
I6
sg6
I0
sg7
I716482
sg8
I264
sg9
I1
sg10
I45
sg11
I2
sg12
F3.0
sa(dp597
g2
I178
sg3
I106303
sg4
I0
sg5
I102
sg6
I0
sg7
I3054314
sg8
I355
sg9
I1
sg10
I30
sg11
I5
sg12
F20.4
sa(dp598
g2
I312
sg3
I138420
sg4
I0
sg5
I3
sg6
I0
sg7
I59841
sg8
I238
sg9
I2
sg10
I60
sg11
I2
sg12
F1.5
sa(dp599
g2
I584
sg3
I202384
sg4
I0
sg5
I13
sg6
I0
sg7
I379447
sg8
I220
sg9
I2
sg10
I115
sg11
I2
sg12
F6.5
sa(dp600
g2
I200
sg3
I283001
sg4
I0
sg5
I2
sg6
I0
sg7
I3061789
sg8
I263
sg9
I1
sg10
I36
sg11
I1
sg12
F2.0
sa(dp601
g2
I307
sg3
I115650
sg4
I0
sg5
I2
sg6
I0
sg7
I14058475
sg8
I283
sg9
I1
sg10
I59
sg11
I1
sg12
F2.0
sa(dp602
g2
I188
sg3
I275509
sg4
I0
sg5
I0
sg6
I0
sg7
I3402193
sg8
I79
sg9
I2
sg10
I32
sg11
I0
sg12
I0
sa(dp603
g2
I203
sg3
I208448
sg4
I0
sg5
I7
sg6
I0
sg7
I4664889
sg8
I305
sg9
I1
sg10
I36
sg11
I1
sg12
F7.0
sa(dp604
g2
I125
sg3
I168637
sg4
I0
sg5
I0
sg6
I0
sg7
I11111177
sg8
I262
sg9
I1
sg10
I23
sg11
I0
sg12
I0
sa(dp605
g2
I204
sg3
I81899
sg4
I0
sg5
I0
sg6
I0
sg7
I3748307
sg8
I275
sg9
I1
sg10
I38
sg11
I0
sg12
I0
sa(dp606
g2
I73
sg3
I179627
sg4
I0
sg5
I0
sg6
I0
sg7
I5438416
sg8
I254
sg9
I1
sg10
I14
sg11
I0
sg12
I0
sa(dp607
g2
I344
sg3
I100510
sg4
I0
sg5
I0
sg6
I0
sg7
I2937
sg8
I205
sg9
I1
sg10
I64
sg11
I0
sg12
I0
sa(dp608
g2
I213
sg3
I122214
sg4
I0
sg5
I0
sg6
I0
sg7
I9884259
sg8
I237
sg9
I2
sg10
I31
sg11
I0
sg12
I0
sa(dp609
g2
I310
sg3
I184966
sg4
I0
sg5
I4
sg6
I0
sg7
I255154
sg8
I164
sg9
I1
sg10
I64
sg11
I3
sg12
F1.3333333333333333
sa(dp610
g2
I139
sg3
I237241
sg4
I0
sg5
I1
sg6
I0
sg7
I4455154
sg8
I305
sg9
I2
sg10
I27
sg11
I1
sg12
F1.0
sa(dp611
g2
I194
sg3
I124752
sg4
I0
sg5
I14
sg6
I0
sg7
I5900634
sg8
I217
sg9
I2
sg10
I34
sg11
I2
sg12
F7.0
sa(dp612
g2
I314
sg3
I59809
sg4
I0
sg5
I2
sg6
I0
sg7
I19875816
sg8
I318
sg9
I1
sg10
I60
sg11
I2
sg12
F1.0
sa(dp613
g2
I105
sg3
I196871
sg4
I0
sg5
I4
sg6
I0
sg7
I183870
sg8
I263
sg9
I1
sg10
I20
sg11
I1
sg12
F4.0
sa(dp614
g2
I382
sg3
I138626
sg4
I0
sg5
I0
sg6
I1
sg7
I111255
sg8
I199
sg9
I1
sg10
I68
sg11
I0
sg12
I0
sa(dp615
g2
I340
sg3
I88574
sg4
I0
sg5
I0
sg6
I1
sg7
I1160227
sg8
I184
sg9
I1
sg10
I60
sg11
I0
sg12
I0
sa(dp616
g2
I304
sg3
I89774
sg4
I0
sg5
I26
sg6
I0
sg7
I1796247
sg8
I230
sg9
I1
sg10
I50
sg11
I2
sg12
F13.0
sa(dp617
g2
I245
sg3
I140875
sg4
I0
sg5
I6
sg6
I0
sg7
I925630
sg8
I316
sg9
I1
sg10
I48
sg11
I1
sg12
F6.0
sa(dp618
g2
I171
sg3
I244671
sg4
I0
sg5
I7
sg6
I1
sg7
I11880682
sg8
I372
sg9
I1
sg10
I34
sg11
I1
sg12
F7.0
sa(dp619
g2
I306
sg3
I268194
sg4
I0
sg5
I5
sg6
I0
sg7
I39110
sg8
I122
sg9
I1
sg10
I63
sg11
I1
sg12
F5.0
sa(dp620
g2
I278
sg3
I145885
sg4
I0
sg5
I0
sg6
I0
sg7
I34452
sg8
I236
sg9
I2
sg10
I54
sg11
I0
sg12
I0
sa(dp621
g2
I61
sg3
I43574
sg4
I0
sg5
I0
sg6
I0
sg7
I2580142
sg8
I165
sg9
I1
sg10
I6
sg11
I0
sg12
I0
sa(dp622
g2
I70
sg3
I89670
sg4
I0
sg5
I0
sg6
I0
sg7
I4728147
sg8
I135
sg9
I1
sg10
I9
sg11
I0
sg12
I0
sa(dp623
g2
I154
sg3
I316223
sg4
I0
sg5
I2
sg6
I0
sg7
I4289557
sg8
I199
sg9
I1
sg10
I23
sg11
I2
sg12
F1.0
sa(dp624
g2
I86
sg3
I108173
sg4
I0
sg5
I2
sg6
I0
sg7
I4450610
sg8
I191
sg9
I0
sg10
I10
sg11
I1
sg12
F2.0
sa(dp625
g2
I193
sg3
I114110
sg4
I0
sg5
I10
sg6
I0
sg7
I334666
sg8
I297
sg9
I1
sg10
I33
sg11
I2
sg12
F5.0
sa(dp626
g2
I60
sg3
I168546
sg4
I0
sg5
I0
sg6
I0
sg7
I701810
sg8
I44
sg9
I1
sg10
I10
sg11
I0
sg12
I0
sa(dp627
g2
I262
sg3
I54055
sg4
I0
sg5
I8
sg6
I0
sg7
I2535770
sg8
I205
sg9
I2
sg10
I46
sg11
I2
sg12
F4.0
sa(dp628
g2
I1184
sg3
I114459
sg4
I0
sg5
I0
sg6
I0
sg7
I32440
sg8
I192
sg9
I4
sg10
I203
sg11
I0
sg12
I0
sa(dp629
g2
I68
sg3
I116246
sg4
I0
sg5
I0
sg6
I0
sg7
I1855118
sg8
I260
sg9
I1
sg10
I13
sg11
I0
sg12
I0
sa(dp630
g2
I616
sg3
I285320
sg4
I0
sg5
I0
sg6
I0
sg7
I518007
sg8
I240
sg9
I0
sg10
I101
sg11
I0
sg12
I0
sa(dp631
g2
I233
sg3
I212759
sg4
I0
sg5
I6
sg6
I0
sg7
I473108
sg8
I209
sg9
I1
sg10
I44
sg11
I1
sg12
F6.0
sa(dp632
g2
I1077
sg3
I28142
sg4
I0
sg5
I0
sg6
I1
sg7
I6201054
sg8
I104
sg9
I3
sg10
I196
sg11
I0
sg12
I0
sa(dp633
g2
I57
sg3
I174745
sg4
I0
sg5
I1
sg6
I0
sg7
I7286465
sg8
I268
sg9
I1
sg10
I10
sg11
I1
sg12
F1.0
sa(dp634
g2
I402
sg3
I198994
sg4
I0
sg5
I0
sg6
I0
sg7
I574734
sg8
I290
sg9
I1
sg10
I80
sg11
I0
sg12
I0
sa(dp635
g2
I304
sg3
I55110
sg4
I0
sg5
I2
sg6
I0
sg7
I79985
sg8
I278
sg9
I0
sg10
I54
sg11
I2
sg12
F1.0
sa(dp636
g2
I397
sg3
I92288
sg4
I0
sg5
I2
sg6
I0
sg7
I1894296
sg8
I290
sg9
I1
sg10
I77
sg11
I2
sg12
F1.0
sa(dp637
g2
I141
sg3
I204379
sg4
I0
sg5
I0
sg6
I0
sg7
I7409814
sg8
I340
sg9
I2
sg10
I30
sg11
I0
sg12
I0
sa(dp638
g2
I390
sg3
I96776
sg4
I0
sg5
I0
sg6
I1
sg7
I1158750
sg8
I152
sg9
I1
sg10
I70
sg11
I0
sg12
I0
sa(dp639
g2
I235
sg3
I106973
sg4
I0
sg5
I4
sg6
I0
sg7
I5191885
sg8
I314
sg9
I1
sg10
I38
sg11
I1
sg12
F4.0
sa(dp640
g2
I329
sg3
I146629
sg4
I0
sg5
I0
sg6
I1
sg7
I1277047
sg8
I195
sg9
I1
sg10
I54
sg11
I0
sg12
I0
sa(dp641
g2
I136
sg3
I105436
sg4
I0
sg5
I0
sg6
I0
sg7
I16577427
sg8
I151
sg9
I1
sg10
I25
sg11
I0
sg12
I0
sa(dp642
g2
I177
sg3
I172593
sg4
I0
sg5
I0
sg6
I0
sg7
I2803877
sg8
I319
sg9
I1
sg10
I30
sg11
I0
sg12
I0
sa(dp643
g2
I299
sg3
I90287
sg4
I0
sg5
I1
sg6
I0
sg7
I400753
sg8
I137
sg9
I1
sg10
I56
sg11
I1
sg12
F1.0
sa(dp644
g2
I280
sg3
I128020
sg4
I0
sg5
I0
sg6
I0
sg7
I519653
sg8
I268
sg9
I1
sg10
I55
sg11
I0
sg12
I0
sa(dp645
g2
I281
sg3
I150196
sg4
I0
sg5
I6
sg6
I0
sg7
I629691
sg8
I276
sg9
I0
sg10
I50
sg11
I3
sg12
F2.0
sa(dp646
g2
I340
sg3
I238124
sg4
I0
sg5
I2
sg6
I0
sg7
I16923367
sg8
I305
sg9
I2
sg10
I66
sg11
I2
sg12
F1.0
sa(dp647
g2
I83
sg3
I85974
sg4
I0
sg5
I24
sg6
I0
sg7
I4581997
sg8
I256
sg9
I1
sg10
I16
sg11
I2
sg12
F12.0
sa(dp648
g2
I511
sg3
I96797
sg4
I0
sg5
I0
sg6
I0
sg7
I698714
sg8
I15
sg9
I1
sg10
I93
sg11
I0
sg12
I0
sa(dp649
g2
I2667
sg3
I11311
sg4
I4
sg5
I0
sg6
I5
sg7
I4092160
sg8
I337
sg9
I1
sg10
I472
sg11
I0
sg12
I0
sa(dp650
g2
I294
sg3
I520539
sg4
I0
sg5
I0
sg6
I0
sg7
I4855685
sg8
I250
sg9
I0
sg10
I56
sg11
I0
sg12
I0
sa(dp651
g2
I105
sg3
I122687
sg4
I0
sg5
I11
sg6
I0
sg7
I5442981
sg8
I85
sg9
I1
sg10
I14
sg11
I1
sg12
F11.0
sa(dp652
g2
I93
sg3
I699462
sg4
I0
sg5
I4
sg6
I0
sg7
I11060508
sg8
I343
sg9
I2
sg10
I16
sg11
I1
sg12
F4.0
sa(dp653
g2
I967
sg3
I106924
sg4
I0
sg5
I2
sg6
I0
sg7
I16786600
sg8
I203
sg9
I0
sg10
I163
sg11
I1
sg12
F2.0
sa(dp654
g2
I129
sg3
I61054
sg4
I0
sg5
I6
sg6
I0
sg7
I13694053
sg8
I229
sg9
I1
sg10
I22
sg11
I1
sg12
F6.0
sa(dp655
g2
I494
sg3
I33760
sg4
I0
sg5
I13
sg6
I1
sg7
I3853776
sg8
I202
sg9
I1
sg10
I104
sg11
I1
sg12
F13.0
sa(dp656
g2
I473
sg3
I126490
sg4
I0
sg5
I3
sg6
I0
sg7
I514395
sg8
I207
sg9
I1
sg10
I86
sg11
I1
sg12
F3.0
sa(dp657
g2
I168
sg3
I97963
sg4
I0
sg5
I0
sg6
I0
sg7
I8259648
sg8
I252
sg9
I1
sg10
I37
sg11
I0
sg12
I0
sa(dp658
g2
I254
sg3
I165873
sg4
I0
sg5
I0
sg6
I0
sg7
I983727
sg8
I270
sg9
I1
sg10
I47
sg11
I0
sg12
I0
sa(dp659
g2
I408
sg3
I292726
sg4
I0
sg5
I0
sg6
I1
sg7
I3819829
sg8
I317
sg9
I2
sg10
I68
sg11
I0
sg12
I0
sa(dp660
g2
I1671
sg3
I10221
sg4
I0
sg5
I4
sg6
I2
sg7
I37644460
sg8
I202
sg9
I5
sg10
I304
sg11
I1
sg12
F4.0
sa(dp661
g2
I304
sg3
I399173
sg4
I0
sg5
I0
sg6
I0
sg7
I1188086
sg8
I200
sg9
I0
sg10
I63
sg11
I0
sg12
I0
sa(dp662
g2
I123
sg3
I66277
sg4
I0
sg5
I0
sg6
I0
sg7
I2589722
sg8
I269
sg9
I1
sg10
I19
sg11
I0
sg12
I0
sa(dp663
g2
I224
sg3
I143373
sg4
I0
sg5
I8
sg6
I0
sg7
I13137873
sg8
I267
sg9
I1
sg10
I40
sg11
I2
sg12
F4.0
sa(dp664
g2
I664
sg3
I81197
sg4
I0
sg5
I0
sg6
I2
sg7
I17130986
sg8
I294
sg9
I1
sg10
I110
sg11
I0
sg12
I0
sa(dp665
g2
I390
sg3
I53375
sg4
I0
sg5
I0
sg6
I0
sg7
I710603
sg8
I222
sg9
I0
sg10
I67
sg11
I0
sg12
I0
sa(dp666
g2
I554
sg3
I155083
sg4
I0
sg5
I0
sg6
I7
sg7
I1911287
sg8
I191
sg9
I6
sg10
I86
sg11
I0
sg12
I0
sa(dp667
g2
I391
sg3
I139872
sg4
I0
sg5
I2
sg6
I0
sg7
I2891805
sg8
I278
sg9
I1
sg10
I64
sg11
I1
sg12
F2.0
sa(dp668
g2
I238
sg3
I87669
sg4
I0
sg5
I3
sg6
I0
sg7
I4233482
sg8
I311
sg9
I1
sg10
I47
sg11
I1
sg12
F3.0
sa(dp669
g2
I118
sg3
I215400
sg4
I0
sg5
I0
sg6
I0
sg7
I9835819
sg8
I195
sg9
I1
sg10
I22
sg11
I0
sg12
I0
sa(dp670
g2
I209
sg3
I219222
sg4
I0
sg5
I3
sg6
I1
sg7
I2502883
sg8
I302
sg9
I0
sg10
I36
sg11
I1
sg12
F3.0
sa(dp671
g2
I279
sg3
I157489
sg4
I0
sg5
I8
sg6
I0
sg7
I6871482
sg8
I251
sg9
I0
sg10
I54
sg11
I3
sg12
F2.6666666666666665
sa(dp672
g2
I142
sg3
I136268
sg4
I0
sg5
I1
sg6
I0
sg7
I1695199
sg8
I245
sg9
I1
sg10
I22
sg11
I1
sg12
F1.0
sa(dp673
g2
I691
sg3
I242589
sg4
I0
sg5
I27
sg6
I3
sg7
I11425830
sg8
I284
sg9
I0
sg10
I113
sg11
I1
sg12
F27.0
sa(dp674
g2
I839
sg3
I386111
sg4
I0
sg5
I1
sg6
I1
sg7
I3781869
sg8
I192
sg9
I0
sg10
I161
sg11
I1
sg12
F1.0
sa(dp675
g2
I455
sg3
I98464
sg4
I0
sg5
I0
sg6
I0
sg7
I9868665
sg8
I299
sg9
I1
sg10
I83
sg11
I0
sg12
I0
sa(dp676
g2
I106
sg3
I87188
sg4
I0
sg5
I0
sg6
I0
sg7
I3489100
sg8
I400
sg9
I2
sg10
I18
sg11
I0
sg12
I0
sa(dp677
g2
I41
sg3
I175498
sg4
I0
sg5
I4
sg6
I0
sg7
I1483488
sg8
I256
sg9
I1
sg10
I9
sg11
I1
sg12
F4.0
sa(dp678
g2
I598
sg3
I53423
sg4
I0
sg5
I0
sg6
I0
sg7
I20307569
sg8
I455
sg9
I3
sg10
I114
sg11
I0
sg12
I0
sa(dp679
g2
I111
sg3
I225227
sg4
I0
sg5
I0
sg6
I0
sg7
I704160
sg8
I324
sg9
I0
sg10
I22
sg11
I0
sg12
I0
sa(dp680
g2
I245
sg3
I159891
sg4
I0
sg5
I0
sg6
I0
sg7
I510364
sg8
I120
sg9
I1
sg10
I45
sg11
I0
sg12
I0
sa(dp681
g2
I692
sg3
I103366
sg4
I0
sg5
I0
sg6
I0
sg7
I54046
sg8
I75
sg9
I2
sg10
I113
sg11
I0
sg12
I0
sa(dp682
g2
I824
sg3
I44428
sg4
I0
sg5
I0
sg6
I5
sg7
I2465052
sg8
I123
sg9
I0
sg10
I138
sg11
I0
sg12
I0
sa(dp683
g2
I176
sg3
I38489
sg4
I0
sg5
I6
sg6
I0
sg7
I5029958
sg8
I315
sg9
I1
sg10
I35
sg11
I3
sg12
F2.0
sa(dp684
g2
I452
sg3
I196522
sg4
I0
sg5
I0
sg6
I1
sg7
I79913
sg8
I53
sg9
I1
sg10
I86
sg11
I0
sg12
I0
sa(dp685
g2
I609
sg3
I170014
sg4
I0
sg5
I13
sg6
I3
sg7
I15747198
sg8
I236
sg9
I0
sg10
I109
sg11
I1
sg12
F13.0
sa(dp686
g2
I632
sg3
I146729
sg4
I0
sg5
I0
sg6
I3
sg7
I2468983
sg8
I210
sg9
I2
sg10
I109
sg11
I0
sg12
I0
sa(dp687
g2
I866
sg3
I237170
sg4
I0
sg5
I0
sg6
I0
sg7
I4675744
sg8
I218
sg9
I1
sg10
I160
sg11
I0
sg12
I0
sa(dp688
g2
I306
sg3
I372102
sg4
I0
sg5
I5
sg6
I0
sg7
I10712044
sg8
I275
sg9
I1
sg10
I58
sg11
I1
sg12
F5.0
sa(dp689
g2
I118
sg3
I269820
sg4
I0
sg5
I0
sg6
I1
sg7
I3845371
sg8
I295
sg9
I1
sg10
I19
sg11
I0
sg12
I0
sa(dp690
g2
I816
sg3
I95586
sg4
I0
sg5
I34
sg6
I1
sg7
I291968
sg8
I187
sg9
I1
sg10
I162
sg11
I4
sg12
F8.5
sa(dp691
g2
I294
sg3
I131950
sg4
I0
sg5
I4
sg6
I0
sg7
I4791612
sg8
I232
sg9
I0
sg10
I46
sg11
I4
sg12
F1.0
sa(dp692
g2
I411
sg3
I167912
sg4
I0
sg5
I0
sg6
I0
sg7
I237150
sg8
I158
sg9
I0
sg10
I77
sg11
I0
sg12
I0
sa(dp693
g2
I436
sg3
I9254
sg4
I0
sg5
I5
sg6
I0
sg7
I43487884
sg8
I196
sg9
I3
sg10
I79
sg11
I2
sg12
F2.5
sa(dp694
g2
I258
sg3
I115162
sg4
I0
sg5
I0
sg6
I0
sg7
I471227
sg8
I192
sg9
I3
sg10
I47
sg11
I0
sg12
I0
sa(dp695
g2
I371
sg3
I182833
sg4
I0
sg5
I0
sg6
I0
sg7
I546356
sg8
I55
sg9
I1
sg10
I75
sg11
I0
sg12
I0
sa(dp696
g2
I236
sg3
I64036
sg4
I0
sg5
I0
sg6
I0
sg7
I943921
sg8
I191
sg9
I1
sg10
I40
sg11
I0
sg12
I0
sa(dp697
g2
I190
sg3
I171896
sg4
I0
sg5
I0
sg6
I0
sg7
I3431838
sg8
I181
sg9
I1
sg10
I35
sg11
I0
sg12
I0
sa(dp698
g2
I503
sg3
I69228
sg4
I0
sg5
I0
sg6
I0
sg7
I4020443
sg8
I269
sg9
I2
sg10
I88
sg11
I0
sg12
I0
sa(dp699
g2
I175
sg3
I242343
sg4
I0
sg5
I4
sg6
I0
sg7
I12608937
sg8
I212
sg9
I1
sg10
I35
sg11
I3
sg12
F1.3333333333333333
sa(dp700
g2
I128
sg3
I35585
sg4
I0
sg5
I0
sg6
I0
sg7
I15376520
sg8
I264
sg9
I1
sg10
I26
sg11
I0
sg12
I0
sa(dp701
g2
I582
sg3
I88237
sg4
I0
sg5
I23
sg6
I0
sg7
I4837571
sg8
I170
sg9
I2
sg10
I99
sg11
I5
sg12
F4.6
sa(dp702
g2
I167
sg3
I224529
sg4
I0
sg5
I1
sg6
I0
sg7
I1945930
sg8
I226
sg9
I0
sg10
I32
sg11
I1
sg12
F1.0
sa(dp703
g2
I417
sg3
I151460
sg4
I0
sg5
I9
sg6
I0
sg7
I2827734
sg8
I123
sg9
I2
sg10
I80
sg11
I2
sg12
F4.5
sa(dp704
g2
I162
sg3
I52240
sg4
I0
sg5
I5
sg6
I0
sg7
I1073814
sg8
I335
sg9
I2
sg10
I27
sg11
I1
sg12
F5.0
sa(dp705
g2
I107
sg3
I69838
sg4
I0
sg5
I0
sg6
I0
sg7
I2561008
sg8
I271
sg9
I1
sg10
I19
sg11
I0
sg12
I0
sa(dp706
g2
I315
sg3
I82909
sg4
I0
sg5
I0
sg6
I0
sg7
I7027113
sg8
I299
sg9
I1
sg10
I59
sg11
I0
sg12
I0
sa(dp707
g2
I317
sg3
I59135
sg4
I0
sg5
I0
sg6
I0
sg7
I1254379
sg8
I185
sg9
I2
sg10
I63
sg11
I0
sg12
I0
sa(dp708
g2
I373
sg3
I80744
sg4
I0
sg5
I2
sg6
I0
sg7
I164631
sg8
I270
sg9
I1
sg10
I63
sg11
I1
sg12
F2.0
sa(dp709
g2
I122
sg3
I227682
sg4
I0
sg5
I28
sg6
I0
sg7
I18173074
sg8
I303
sg9
I1
sg10
I23
sg11
I1
sg12
F28.0
sa(dp710
g2
I444
sg3
I84979
sg4
I0
sg5
I3
sg6
I3
sg7
I31593712
sg8
I295
sg9
I3
sg10
I81
sg11
I1
sg12
F3.0
sa(dp711
g2
I171
sg3
I169172
sg4
I0
sg5
I0
sg6
I0
sg7
I2082025
sg8
I174
sg9
I3
sg10
I29
sg11
I0
sg12
I0
sa(dp712
g2
I202
sg3
I65398
sg4
I0
sg5
I0
sg6
I0
sg7
I102632
sg8
I197
sg9
I0
sg10
I35
sg11
I0
sg12
I0
sa(dp713
g2
I349
sg3
I132685
sg4
I0
sg5
I6
sg6
I0
sg7
I2771701
sg8
I379
sg9
I0
sg10
I62
sg11
I2
sg12
F3.0
sa(dp714
g2
I1594
sg3
I9738
sg4
I1
sg5
I16
sg6
I3
sg7
I9929697
sg8
I196
sg9
I4
sg10
I265
sg11
I4
sg12
F4.0
sa(dp715
g2
I364
sg3
I52585
sg4
I0
sg5
I8
sg6
I0
sg7
I835430
sg8
I180
sg9
I1
sg10
I63
sg11
I1
sg12
F8.0
sa(dp716
g2
I265
sg3
I154956
sg4
I0
sg5
I2
sg6
I0
sg7
I2860193
sg8
I207
sg9
I0
sg10
I45
sg11
I2
sg12
F1.0
sa(dp717
g2
I304
sg3
I221746
sg4
I0
sg5
I5
sg6
I0
sg7
I4071407
sg8
I296
sg9
I0
sg10
I53
sg11
I2
sg12
F2.5
sa(dp718
g2
I203
sg3
I108977
sg4
I0
sg5
I1
sg6
I0
sg7
I2979389
sg8
I113
sg9
I0
sg10
I31
sg11
I1
sg12
F1.0
sa(dp719
g2
I214
sg3
I96692
sg4
I0
sg5
I4
sg6
I0
sg7
I5147430
sg8
I286
sg9
I0
sg10
I43
sg11
I1
sg12
F4.0
sa(dp720
g2
I155
sg3
I109759
sg4
I0
sg5
I5
sg6
I0
sg7
I9173550
sg8
I136
sg9
I1
sg10
I24
sg11
I1
sg12
F5.0
sa(dp721
g2
I444
sg3
I78548
sg4
I0
sg5
I4
sg6
I0
sg7
I2561497
sg8
I355
sg9
I0
sg10
I76
sg11
I2
sg12
F2.0
sa(dp722
g2
I122
sg3
I353765
sg4
I0
sg5
I0
sg6
I0
sg7
I7716358
sg8
I190
sg9
I1
sg10
I20
sg11
I0
sg12
I0
sa(dp723
g2
I120
sg3
I182967
sg4
I0
sg5
I17
sg6
I0
sg7
I10147497
sg8
I139
sg9
I0
sg10
I19
sg11
I2
sg12
F8.5
sa(dp724
g2
I52
sg3
I211473
sg4
I0
sg5
I0
sg6
I1
sg7
I25865271
sg8
I269
sg9
I1
sg10
I10
sg11
I0
sg12
I0
sa(dp725
g2
I740
sg3
I239144
sg4
I0
sg5
I6
sg6
I0
sg7
I4693385
sg8
I233
sg9
I1
sg10
I122
sg11
I1
sg12
F6.0
sa(dp726
g2
I726
sg3
I131959
sg4
I0
sg5
I0
sg6
I0
sg7
I3265602
sg8
I313
sg9
I2
sg10
I103
sg11
I0
sg12
I0
sa(dp727
g2
I177
sg3
I277251
sg4
I0
sg5
I0
sg6
I1
sg7
I1623085
sg8
I139
sg9
I1
sg10
I25
sg11
I0
sg12
I0
sa(dp728
g2
I178
sg3
I113588
sg4
I0
sg5
I1
sg6
I0
sg7
I4152986
sg8
I258
sg9
I0
sg10
I33
sg11
I1
sg12
F1.0
sa(dp729
g2
I775
sg3
I160723
sg4
I0
sg5
I21
sg6
I0
sg7
I2176591
sg8
I238
sg9
I1
sg10
I138
sg11
I1
sg12
F21.0
sa(dp730
g2
I301
sg3
I44081
sg4
I0
sg5
I0
sg6
I1
sg7
I19048754
sg8
I216
sg9
I1
sg10
I54
sg11
I0
sg12
I0
sa(dp731
g2
I198
sg3
I97895
sg4
I0
sg5
I10
sg6
I0
sg7
I15300671
sg8
I209
sg9
I2
sg10
I31
sg11
I1
sg12
F10.0
sa(dp732
g2
I620
sg3
I232488
sg4
I0
sg5
I2
sg6
I0
sg7
I191029
sg8
I107
sg9
I3
sg10
I105
sg11
I2
sg12
F1.0
sa(dp733
g2
I565
sg3
I228537
sg4
I0
sg5
I0
sg6
I1
sg7
I464882
sg8
I191
sg9
I2
sg10
I104
sg11
I0
sg12
I0
sa(dp734
g2
I328
sg3
I253603
sg4
I0
sg5
I11
sg6
I0
sg7
I2474030
sg8
I124
sg9
I0
sg10
I66
sg11
I1
sg12
F11.0
sa(dp735
g2
I282
sg3
I93541
sg4
I0
sg5
I0
sg6
I1
sg7
I1131238
sg8
I134
sg9
I1
sg10
I53
sg11
I0
sg12
I0
sa(dp736
g2
I289
sg3
I105772
sg4
I0
sg5
I0
sg6
I2
sg7
I15699761
sg8
I301
sg9
I1
sg10
I56
sg11
I0
sg12
I0
sa(dp737
g2
I140
sg3
I245086
sg4
I0
sg5
I0
sg6
I0
sg7
I5143782
sg8
I280
sg9
I1
sg10
I25
sg11
I0
sg12
I0
sa(dp738
g2
I155
sg3
I54704
sg4
I0
sg5
I0
sg6
I0
sg7
I2128558
sg8
I190
sg9
I2
sg10
I26
sg11
I0
sg12
I0
sa(dp739
g2
I163
sg3
I8889
sg4
I0
sg5
I6
sg6
I0
sg7
I35194904
sg8
I87
sg9
I2
sg10
I27
sg11
I1
sg12
F6.0
sa(dp740
g2
I188
sg3
I36502
sg4
I0
sg5
I0
sg6
I0
sg7
I9388115
sg8
I137
sg9
I1
sg10
I24
sg11
I0
sg12
I0
sa(dp741
g2
I124
sg3
I121628
sg4
I0
sg5
I5
sg6
I0
sg7
I11774434
sg8
I303
sg9
I0
sg10
I25
sg11
I1
sg12
F5.0
sa(dp742
g2
I489
sg3
I169614
sg4
I0
sg5
I16
sg6
I1
sg7
I11617194
sg8
I183
sg9
I2
sg10
I83
sg11
I2
sg12
F8.0
sa(dp743
g2
I164
sg3
I244078
sg4
I0
sg5
I0
sg6
I3
sg7
I2214018
sg8
I90
sg9
I1
sg10
I29
sg11
I0
sg12
I0
sa(dp744
g2
I356
sg3
I105031
sg4
I0
sg5
I0
sg6
I0
sg7
I19549035
sg8
I225
sg9
I1
sg10
I62
sg11
I0
sg12
I0
sa(dp745
g2
I465
sg3
I97348
sg4
I0
sg5
I4
sg6
I0
sg7
I11269627
sg8
I235
sg9
I1
sg10
I80
sg11
I1
sg12
F4.0
sa(dp746
g2
I1002
sg3
I34052
sg4
I0
sg5
I0
sg6
I0
sg7
I4879205
sg8
I47
sg9
I1
sg10
I173
sg11
I0
sg12
I0
sa(dp747
g2
I289
sg3
I42953
sg4
I0
sg5
I0
sg6
I0
sg7
I1307210
sg8
I203
sg9
I2
sg10
I52
sg11
I0
sg12
I0
sa(dp748
g2
I223
sg3
I96950
sg4
I0
sg5
I0
sg6
I0
sg7
I6910672
sg8
I109
sg9
I0
sg10
I44
sg11
I0
sg12
I0
sa(dp749
g2
I249
sg3
I14302
sg4
I0
sg5
I0
sg6
I0
sg7
I991917
sg8
I213
sg9
I0
sg10
I38
sg11
I0
sg12
I0
sa(dp750
g2
I317
sg3
I84558
sg4
I0
sg5
I0
sg6
I0
sg7
I19798528
sg8
I196
sg9
I2
sg10
I58
sg11
I0
sg12
I0
sa(dp751
g2
I504
sg3
I76574
sg4
I0
sg5
I18
sg6
I0
sg7
I6967816
sg8
I300
sg9
I2
sg10
I86
sg11
I3
sg12
F6.0
sa(dp752
g2
I82
sg3
I170932
sg4
I0
sg5
I0
sg6
I0
sg7
I882770
sg8
I250
sg9
I1
sg10
I16
sg11
I0
sg12
I0
sa(dp753
g2
I129
sg3
I210299
sg4
I0
sg5
I12
sg6
I0
sg7
I497773
sg8
I238
sg9
I2
sg10
I28
sg11
I2
sg12
F6.0
sa(dp754
g2
I242
sg3
I76710
sg4
I0
sg5
I16
sg6
I0
sg7
I5929165
sg8
I298
sg9
I0
sg10
I37
sg11
I2
sg12
F8.0
sa(dp755
g2
I588
sg3
I66580
sg4
I0
sg5
I0
sg6
I0
sg7
I11773462
sg8
I252
sg9
I2
sg10
I98
sg11
I0
sg12
I0
sa(dp756
g2
I149
sg3
I107198
sg4
I0
sg5
I6
sg6
I0
sg7
I3389611
sg8
I311
sg9
I1
sg10
I27
sg11
I1
sg12
F6.0
sa(dp757
g2
I159
sg3
I113956
sg4
I0
sg5
I10
sg6
I0
sg7
I2399332
sg8
I184
sg9
I1
sg10
I27
sg11
I1
sg12
F10.0
sa(dp758
g2
I357
sg3
I188699
sg4
I0
sg5
I8
sg6
I0
sg7
I2395167
sg8
I263
sg9
I0
sg10
I66
sg11
I1
sg12
F8.0
sa(dp759
g2
I114
sg3
I62690
sg4
I0
sg5
I3
sg6
I0
sg7
I2642645
sg8
I221
sg9
I2
sg10
I23
sg11
I1
sg12
F3.0
sa(dp760
g2
I320
sg3
I261904
sg4
I0
sg5
I10
sg6
I0
sg7
I3249539
sg8
I288
sg9
I1
sg10
I51
sg11
I3
sg12
F3.3333333333333335
sa(dp761
g2
I1148
sg3
I69313
sg4
I0
sg5
I12
sg6
I0
sg7
I19829714
sg8
I105
sg9
I1
sg10
I194
sg11
I2
sg12
F6.0
sa(dp762
g2
I318
sg3
I104536
sg4
I0
sg5
I11
sg6
I1
sg7
I16696317
sg8
I336
sg9
I0
sg10
I61
sg11
I1
sg12
F11.0
sa(dp763
g2
I183
sg3
I166632
sg4
I0
sg5
I6
sg6
I0
sg7
I7125157
sg8
I283
sg9
I0
sg10
I33
sg11
I1
sg12
F6.0
sa(dp764
g2
I400
sg3
I216366
sg4
I0
sg5
I0
sg6
I0
sg7
I1196122
sg8
I54
sg9
I1
sg10
I70
sg11
I0
sg12
I0
sa(dp765
g2
I163
sg3
I147039
sg4
I0
sg5
I2
sg6
I0
sg7
I16060908
sg8
I291
sg9
I1
sg10
I31
sg11
I2
sg12
F1.0
sa(dp766
g2
I92
sg3
I124748
sg4
I0
sg5
I0
sg6
I0
sg7
I6088092
sg8
I255
sg9
I1
sg10
I16
sg11
I0
sg12
I0
sa(dp767
g2
I337
sg3
I90103
sg4
I0
sg5
I3
sg6
I0
sg7
I5385075
sg8
I199
sg9
I3
sg10
I53
sg11
I1
sg12
F3.0
sa(dp768
g2
I360
sg3
I52308
sg4
I0
sg5
I2
sg6
I0
sg7
I1761753
sg8
I241
sg9
I1
sg10
I55
sg11
I2
sg12
F1.0
sa(dp769
g2
I97
sg3
I58723
sg4
I0
sg5
I0
sg6
I0
sg7
I1156048
sg8
I179
sg9
I0
sg10
I16
sg11
I0
sg12
I0
sa(dp770
g2
I240
sg3
I43190
sg4
I0
sg5
I5
sg6
I0
sg7
I16624700
sg8
I144
sg9
I2
sg10
I52
sg11
I1
sg12
F5.0
sa(dp771
g2
I214
sg3
I66310
sg4
I0
sg5
I2
sg6
I0
sg7
I6567918
sg8
I294
sg9
I1
sg10
I36
sg11
I2
sg12
F1.0
sa(dp772
g2
I658
sg3
I29658
sg4
I0
sg5
I0
sg6
I4
sg7
I26109157
sg8
I191
sg9
I3
sg10
I98
sg11
I0
sg12
I0
sa(dp773
g2
I429
sg3
I8981
sg4
I0
sg5
I5
sg6
I0
sg7
I17160180
sg8
I84
sg9
I3
sg10
I75
sg11
I3
sg12
F1.6666666666666667
sa(dp774
g2
I201
sg3
I120403
sg4
I0
sg5
I8
sg6
I0
sg7
I500870
sg8
I255
sg9
I0
sg10
I36
sg11
I1
sg12
F8.0
sa(dp775
g2
I267
sg3
I287465
sg4
I0
sg5
I8
sg6
I0
sg7
I2397192
sg8
I243
sg9
I1
sg10
I45
sg11
I1
sg12
F8.0
sa(dp776
g2
I690
sg3
I211852
sg4
I0
sg5
I3
sg6
I0
sg7
I7999977
sg8
I343
sg9
I1
sg10
I114
sg11
I1
sg12
F3.0
sa(dp777
g2
I218
sg3
I59973
sg4
I0
sg5
I2
sg6
I0
sg7
I4736172
sg8
I242
sg9
I1
sg10
I42
sg11
I1
sg12
F2.0
sa(dp778
g2
I683
sg3
I98240
sg4
I0
sg5
I0
sg6
I0
sg7
I929107
sg8
I283
sg9
I0
sg10
I126
sg11
I0
sg12
I0
sa(dp779
g2
I200
sg3
I147870
sg4
I0
sg5
I1
sg6
I0
sg7
I364599
sg8
I116
sg9
I1
sg10
I34
sg11
I1
sg12
F1.0
sa(dp780
g2
I227
sg3
I220408
sg4
I0
sg5
I2
sg6
I0
sg7
I126533
sg8
I269
sg9
I0
sg10
I42
sg11
I1
sg12
F2.0
sa(dp781
g2
I92
sg3
I307280
sg4
I0
sg5
I1
sg6
I0
sg7
I521688
sg8
I214
sg9
I1
sg10
I15
sg11
I1
sg12
F1.0
sa(dp782
g2
I94
sg3
I97406
sg4
I0
sg5
I1
sg6
I0
sg7
I2566508
sg8
I249
sg9
I1
sg10
I15
sg11
I1
sg12
F1.0
sa(dp783
g2
I204
sg3
I136384
sg4
I0
sg5
I51
sg6
I0
sg7
I604325
sg8
I273
sg9
I0
sg10
I37
sg11
I3
sg12
F17.0
sa(dp784
g2
I532
sg3
I125194
sg4
I0
sg5
I1
sg6
I0
sg7
I4530166
sg8
I195
sg9
I2
sg10
I104
sg11
I1
sg12
F1.0
sa(dp785
g2
I490
sg3
I28746
sg4
I0
sg5
I4
sg6
I0
sg7
I1142473
sg8
I268
sg9
I1
sg10
I71
sg11
I1
sg12
F4.0
sa(dp786
g2
I418
sg3
I65911
sg4
I0
sg5
I4
sg6
I0
sg7
I68324
sg8
I76
sg9
I1
sg10
I72
sg11
I1
sg12
F4.0
sa(dp787
g2
I195
sg3
I22865
sg4
I0
sg5
I0
sg6
I2
sg7
I879005
sg8
I167
sg9
I2
sg10
I36
sg11
I0
sg12
I0
sa(dp788
g2
I221
sg3
I150628
sg4
I0
sg5
I15
sg6
I1
sg7
I653517
sg8
I89
sg9
I1
sg10
I39
sg11
I2
sg12
F7.5
sa(dp789
g2
I171
sg3
I130124
sg4
I0
sg5
I8
sg6
I0
sg7
I993367
sg8
I232
sg9
I1
sg10
I34
sg11
I1
sg12
F8.0
sa(dp790
g2
I134
sg3
I251847
sg4
I0
sg5
I5
sg6
I0
sg7
I172468
sg8
I170
sg9
I0
sg10
I24
sg11
I2
sg12
F2.5
sa(dp791
g2
I198
sg3
I10380
sg4
I0
sg5
I9
sg6
I1
sg7
I39619467
sg8
I293
sg9
I0
sg10
I32
sg11
I1
sg12
F9.0
sa(dp792
g2
I283
sg3
I77422
sg4
I0
sg5
I6
sg6
I0
sg7
I950591
sg8
I69
sg9
I2
sg10
I47
sg11
I2
sg12
F3.0
sa(dp793
g2
I177
sg3
I325154
sg4
I0
sg5
I0
sg6
I0
sg7
I1027739
sg8
I156
sg9
I0
sg10
I29
sg11
I0
sg12
I0
sa(dp794
g2
I75
sg3
I203101
sg4
I0
sg5
I2
sg6
I0
sg7
I3987113
sg8
I240
sg9
I1
sg10
I14
sg11
I1
sg12
F2.0
sa(dp795
g2
I124
sg3
I79266
sg4
I0
sg5
I6
sg6
I0
sg7
I533917
sg8
I193
sg9
I1
sg10
I18
sg11
I2
sg12
F3.0
sa(dp796
g2
I462
sg3
I61880
sg4
I0
sg5
I0
sg6
I0
sg7
I16630916
sg8
I159
sg9
I3
sg10
I74
sg11
I0
sg12
I0
sa(dp797
g2
I502
sg3
I89739
sg4
I0
sg5
I9
sg6
I1
sg7
I38916
sg8
I143
sg9
I2
sg10
I89
sg11
I2
sg12
F4.5
sa(dp798
g2
I204
sg3
I74628
sg4
I0
sg5
I4
sg6
I0
sg7
I4453495
sg8
I199
sg9
I1
sg10
I36
sg11
I1
sg12
F4.0
sa(dp799
g2
I732
sg3
I24157
sg4
I0
sg5
I0
sg6
I0
sg7
I28583621
sg8
I318
sg9
I3
sg10
I119
sg11
I0
sg12
I0
sa(dp800
g2
I409
sg3
I129435
sg4
I0
sg5
I2
sg6
I0
sg7
I9510610
sg8
I176
sg9
I1
sg10
I65
sg11
I2
sg12
F1.0
sa(dp801
g2
I61
sg3
I161000
sg4
I0
sg5
I0
sg6
I0
sg7
I4987414
sg8
I189
sg9
I1
sg10
I12
sg11
I0
sg12
I0
sa(dp802
g2
I342
sg3
I59163
sg4
I0
sg5
I2
sg6
I0
sg7
I11328980
sg8
I243
sg9
I1
sg10
I52
sg11
I1
sg12
F2.0
sa(dp803
g2
I445
sg3
I51243
sg4
I0
sg5
I6
sg6
I2
sg7
I16584935
sg8
I135
sg9
I1
sg10
I81
sg11
I3
sg12
F2.0
sa(dp804
g2
I118
sg3
I130441
sg4
I0
sg5
I0
sg6
I1
sg7
I6294205
sg8
I221
sg9
I1
sg10
I24
sg11
I0
sg12
I0
sa(dp805
g2
I27
sg3
I258889
sg4
I0
sg5
I5
sg6
I0
sg7
I2792652
sg8
I199
sg9
I1
sg10
I3
sg11
I1
sg12
F5.0
sa(dp806
g2
I483
sg3
I68862
sg4
I0
sg5
I0
sg6
I1
sg7
I1087878
sg8
I115
sg9
I1
sg10
I71
sg11
I0
sg12
I0
sa(dp807
g2
I635
sg3
I63210
sg4
I0
sg5
I0
sg6
I0
sg7
I1233509
sg8
I87
sg9
I2
sg10
I107
sg11
I0
sg12
I0
sa(dp808
g2
I226
sg3
I121254
sg4
I0
sg5
I7
sg6
I0
sg7
I1737078
sg8
I221
sg9
I2
sg10
I36
sg11
I3
sg12
F2.3333333333333335
sa(dp809
g2
I196
sg3
I111557
sg4
I0
sg5
I7
sg6
I0
sg7
I2087433
sg8
I295
sg9
I0
sg10
I35
sg11
I1
sg12
F7.0
sa(dp810
g2
I343
sg3
I84434
sg4
I0
sg5
I0
sg6
I0
sg7
I13886195
sg8
I178
sg9
I1
sg10
I63
sg11
I0
sg12
I0
sa(dp811
g2
I498
sg3
I238692
sg4
I0
sg5
I4
sg6
I0
sg7
I1186847
sg8
I157
sg9
I0
sg10
I86
sg11
I2
sg12
F2.0
sa(dp812
g2
I225
sg3
I78376
sg4
I0
sg5
I1
sg6
I0
sg7
I14836456
sg8
I186
sg9
I1
sg10
I36
sg11
I1
sg12
F1.0
sa(dp813
g2
I212
sg3
I143626
sg4
I0
sg5
I8
sg6
I0
sg7
I3323013
sg8
I164
sg9
I2
sg10
I38
sg11
I1
sg12
F8.0
sa(dp814
g2
I1230
sg3
I21812
sg4
I0
sg5
I6
sg6
I0
sg7
I2295368
sg8
I96
sg9
I2
sg10
I228
sg11
I1
sg12
F6.0
sa(dp815
g2
I581
sg3
I103540
sg4
I0
sg5
I1
sg6
I0
sg7
I8256424
sg8
I204
sg9
I2
sg10
I98
sg11
I1
sg12
F1.0
sa(dp816
g2
I807
sg3
I68805
sg4
I0
sg5
I0
sg6
I0
sg7
I238111
sg8
I78
sg9
I1
sg10
I146
sg11
I0
sg12
I0
sa(dp817
g2
I150
sg3
I83267
sg4
I0
sg5
I31
sg6
I0
sg7
I19961403
sg8
I446
sg9
I0
sg10
I23
sg11
I1
sg12
F31.0
sa(dp818
g2
I596
sg3
I234001
sg4
I0
sg5
I0
sg6
I0
sg7
I1380875
sg8
I189
sg9
I3
sg10
I112
sg11
I0
sg12
I0
sa(dp819
g2
I185
sg3
I332269
sg4
I0
sg5
I6
sg6
I0
sg7
I12453584
sg8
I301
sg9
I2
sg10
I36
sg11
I1
sg12
F6.0
sa(dp820
g2
I138
sg3
I90799
sg4
I0
sg5
I8
sg6
I0
sg7
I2407405
sg8
I206
sg9
I1
sg10
I26
sg11
I1
sg12
F8.0
sa(dp821
g2
I1171
sg3
I199305
sg4
I0
sg5
I24
sg6
I1
sg7
I6059969
sg8
I10
sg9
I1
sg10
I210
sg11
I6
sg12
F4.0
sa(dp822
g2
I765
sg3
I179886
sg4
I0
sg5
I0
sg6
I0
sg7
I1316793
sg8
I132
sg9
I1
sg10
I141
sg11
I0
sg12
I0
sa(dp823
g2
I370
sg3
I83934
sg4
I0
sg5
I3
sg6
I0
sg7
I15435837
sg8
I244
sg9
I0
sg10
I67
sg11
I1
sg12
F3.0
sa(dp824
g2
I524
sg3
I79540
sg4
I0
sg5
I0
sg6
I1
sg7
I2635066
sg8
I116
sg9
I1
sg10
I96
sg11
I0
sg12
I0
sa(dp825
g2
I159
sg3
I111070
sg4
I0
sg5
I1
sg6
I0
sg7
I1628105
sg8
I85
sg9
I1
sg10
I28
sg11
I1
sg12
F1.0
sa(dp826
g2
I47
sg3
I264301
sg4
I0
sg5
I14
sg6
I0
sg7
I4183540
sg8
I172
sg9
I1
sg10
I8
sg11
I1
sg12
F14.0
sa(dp827
g2
I792
sg3
I134123
sg4
I0
sg5
I0
sg6
I0
sg7
I538818
sg8
I-6
sg9
I0
sg10
I147
sg11
I0
sg12
I0
sa(dp828
g2
I293
sg3
I158400
sg4
I0
sg5
I0
sg6
I0
sg7
I3363254
sg8
I216
sg9
I0
sg10
I51
sg11
I0
sg12
I0
sa(dp829
g2
I831
sg3
I46339
sg4
I0
sg5
I10
sg6
I0
sg7
I370363
sg8
I155
sg9
I3
sg10
I144
sg11
I1
sg12
F10.0
sa(dp830
g2
I1445
sg3
I87298
sg4
I0
sg5
I14
sg6
I2
sg7
I1309682
sg8
I128
sg9
I1
sg10
I255
sg11
I3
sg12
F4.666666666666667
sa(dp831
g2
I106
sg3
I83947
sg4
I0
sg5
I2
sg6
I0
sg7
I1466550
sg8
I247
sg9
I0
sg10
I18
sg11
I2
sg12
F1.0
sa(dp832
g2
I388
sg3
I68931
sg4
I0
sg5
I10
sg6
I0
sg7
I713814
sg8
I143
sg9
I1
sg10
I66
sg11
I3
sg12
F3.3333333333333335
sa(dp833
g2
I405
sg3
I72991
sg4
I0
sg5
I31
sg6
I0
sg7
I1816969
sg8
I79
sg9
I1
sg10
I64
sg11
I4
sg12
F7.75
sa(dp834
g2
I611
sg3
I132908
sg4
I0
sg5
I3
sg6
I0
sg7
I2764099
sg8
I112
sg9
I3
sg10
I100
sg11
I1
sg12
F3.0
sa(dp835
g2
I327
sg3
I169993
sg4
I0
sg5
I1
sg6
I0
sg7
I6771620
sg8
I116
sg9
I1
sg10
I55
sg11
I1
sg12
F1.0
sa(dp836
g2
I1524
sg3
I27612
sg4
I0
sg5
I27
sg6
I0
sg7
I6318911
sg8
I71
sg9
I2
sg10
I263
sg11
I2
sg12
F13.5
sa(dp837
g2
I145
sg3
I54916
sg4
I0
sg5
I0
sg6
I0
sg7
I904941
sg8
I-17
sg9
I2
sg10
I31
sg11
I0
sg12
I0
sa(dp838
g2
I126
sg3
I146525
sg4
I0
sg5
I3
sg6
I0
sg7
I1585396
sg8
I318
sg9
I1
sg10
I26
sg11
I1
sg12
F3.0
sa(dp839
g2
I311
sg3
I18508
sg4
I0
sg5
I0
sg6
I1
sg7
I12867428
sg8
I231
sg9
I2
sg10
I52
sg11
I0
sg12
I0
sa(dp840
g2
I391
sg3
I194233
sg4
I0
sg5
I2
sg6
I0
sg7
I3503909
sg8
I209
sg9
I1
sg10
I77
sg11
I1
sg12
F2.0
sa(dp841
g2
I359
sg3
I120018
sg4
I0
sg5
I4
sg6
I0
sg7
I458295
sg8
I129
sg9
I1
sg10
I54
sg11
I1
sg12
F4.0
sa(dp842
g2
I227
sg3
I46795
sg4
I0
sg5
I0
sg6
I0
sg7
I5710402
sg8
I271
sg9
I1
sg10
I36
sg11
I0
sg12
I0
sa(dp843
g2
I317
sg3
I116105
sg4
I0
sg5
I31
sg6
I0
sg7
I20627316
sg8
I191
sg9
I3
sg10
I53
sg11
I3
sg12
F10.333333333333334
sa(dp844
g2
I130
sg3
I145098
sg4
I0
sg5
I2
sg6
I0
sg7
I8928256
sg8
I234
sg9
I1
sg10
I24
sg11
I1
sg12
F2.0
sa(dp845
g2
I392
sg3
I131638
sg4
I0
sg5
I23
sg6
I0
sg7
I10374456
sg8
I204
sg9
I0
sg10
I62
sg11
I5
sg12
F4.6
sa(dp846
g2
I142
sg3
I43113
sg4
I0
sg5
I10
sg6
I0
sg7
I21789908
sg8
I479
sg9
I0
sg10
I21
sg11
I1
sg12
F10.0
sa(dp847
g2
I748
sg3
I128591
sg4
I0
sg5
I10
sg6
I0
sg7
I5055117
sg8
I70
sg9
I1
sg10
I139
sg11
I1
sg12
F10.0
sa(dp848
g2
I695
sg3
I139024
sg4
I0
sg5
I8
sg6
I0
sg7
I6048203
sg8
I218
sg9
I2
sg10
I119
sg11
I3
sg12
F2.6666666666666665
sa(dp849
g2
I107
sg3
I112023
sg4
I0
sg5
I0
sg6
I3
sg7
I8533626
sg8
I224
sg9
I1
sg10
I20
sg11
I0
sg12
I0
sa(dp850
g2
I330
sg3
I93595
sg4
I0
sg5
I0
sg6
I0
sg7
I4697884
sg8
I259
sg9
I2
sg10
I63
sg11
I0
sg12
I0
sa(dp851
g2
I617
sg3
I285009
sg4
I0
sg5
I24
sg6
I0
sg7
I960753
sg8
I176
sg9
I3
sg10
I122
sg11
I6
sg12
F4.0
sa(dp852
g2
I726
sg3
I13507
sg4
I0
sg5
I5
sg6
I1
sg7
I42355424
sg8
I141
sg9
I2
sg10
I139
sg11
I1
sg12
F5.0
sa(dp853
g2
I428
sg3
I66411
sg4
I0
sg5
I2
sg6
I0
sg7
I218709
sg8
I255
sg9
I0
sg10
I75
sg11
I1
sg12
F2.0
sa(dp854
g2
I447
sg3
I129528
sg4
I0
sg5
I12
sg6
I0
sg7
I3162287
sg8
I327
sg9
I2
sg10
I84
sg11
I3
sg12
F4.0
sa(dp855
g2
I121
sg3
I131670
sg4
I0
sg5
I12
sg6
I0
sg7
I2150125
sg8
I147
sg9
I2
sg10
I22
sg11
I1
sg12
F12.0
sa(dp856
g2
I1406
sg3
I35483
sg4
I0
sg5
I19
sg6
I7
sg7
I14132912
sg8
I259
sg9
I2
sg10
I238
sg11
I1
sg12
F19.0
sa(dp857
g2
I107
sg3
I130781
sg4
I0
sg5
I0
sg6
I0
sg7
I10873843
sg8
I190
sg9
I1
sg10
I19
sg11
I0
sg12
I0
sa(dp858
g2
I110
sg3
I182819
sg4
I0
sg5
I0
sg6
I0
sg7
I7983848
sg8
I337
sg9
I1
sg10
I20
sg11
I0
sg12
I0
sa(dp859
g2
I361
sg3
I110516
sg4
I0
sg5
I3
sg6
I1
sg7
I3644910
sg8
I326
sg9
I0
sg10
I65
sg11
I3
sg12
F1.0
sa(dp860
g2
I266
sg3
I210510
sg4
I0
sg5
I10
sg6
I0
sg7
I8885688
sg8
I232
sg9
I0
sg10
I40
sg11
I2
sg12
F5.0
sa(dp861
g2
I147
sg3
I55183
sg4
I0
sg5
I0
sg6
I0
sg7
I2405617
sg8
I215
sg9
I1
sg10
I28
sg11
I0
sg12
I0
sa(dp862
g2
I812
sg3
I7626
sg4
I0
sg5
I9
sg6
I0
sg7
I26924896
sg8
I126
sg9
I2
sg10
I138
sg11
I2
sg12
F4.5
sa(dp863
g2
I142
sg3
I126801
sg4
I0
sg5
I2
sg6
I0
sg7
I1546244
sg8
I188
sg9
I1
sg10
I22
sg11
I2
sg12
F1.0
sa(dp864
g2
I135
sg3
I125586
sg4
I0
sg5
I5
sg6
I1
sg7
I582206
sg8
I107
sg9
I1
sg10
I20
sg11
I1
sg12
F5.0
sa(dp865
g2
I217
sg3
I102178
sg4
I0
sg5
I4
sg6
I0
sg7
I1057446
sg8
I78
sg9
I1
sg10
I41
sg11
I1
sg12
F4.0
sa(dp866
g2
I132
sg3
I114156
sg4
I0
sg5
I0
sg6
I0
sg7
I1419160
sg8
I188
sg9
I2
sg10
I19
sg11
I0
sg12
I0
sa(dp867
g2
I402
sg3
I56149
sg4
I0
sg5
I14
sg6
I0
sg7
I22433804
sg8
I323
sg9
I1
sg10
I70
sg11
I3
sg12
F4.666666666666667
sa(dp868
g2
I74
sg3
I58815
sg4
I0
sg5
I7
sg6
I0
sg7
I9663601
sg8
I206
sg9
I1
sg10
I15
sg11
I1
sg12
F7.0
sa(dp869
g2
I104
sg3
I117073
sg4
I0
sg5
I0
sg6
I0
sg7
I4406521
sg8
I288
sg9
I1
sg10
I19
sg11
I0
sg12
I0
sa(dp870
g2
I474
sg3
I75097
sg4
I0
sg5
I29
sg6
I0
sg7
I5339352
sg8
I214
sg9
I2
sg10
I88
sg11
I2
sg12
F14.5
sa(dp871
g2
I201
sg3
I139460
sg4
I0
sg5
I0
sg6
I0
sg7
I3620972
sg8
I241
sg9
I2
sg10
I43
sg11
I0
sg12
I0
sa(dp872
g2
I129
sg3
I123390
sg4
I0
sg5
I0
sg6
I0
sg7
I10378012
sg8
I201
sg9
I1
sg10
I26
sg11
I0
sg12
I0
sa(dp873
g2
I398
sg3
I180491
sg4
I0
sg5
I21
sg6
I0
sg7
I8930969
sg8
I237
sg9
I2
sg10
I71
sg11
I1
sg12
F21.0
sa(dp874
g2
I340
sg3
I53788
sg4
I0
sg5
I2
sg6
I0
sg7
I459185
sg8
I71
sg9
I1
sg10
I61
sg11
I1
sg12
F2.0
sa(dp875
g2
I37
sg3
I82466
sg4
I0
sg5
I20
sg6
I0
sg7
I1984346
sg8
I183
sg9
I0
sg10
I7
sg11
I2
sg12
F10.0
sa(dp876
g2
I917
sg3
I192345
sg4
I0
sg5
I0
sg6
I2
sg7
I328389
sg8
I82
sg9
I0
sg10
I161
sg11
I0
sg12
I0
sa(dp877
g2
I131
sg3
I176289
sg4
I0
sg5
I10
sg6
I0
sg7
I1996540
sg8
I107
sg9
I1
sg10
I19
sg11
I1
sg12
F10.0
sa(dp878
g2
I474
sg3
I57202
sg4
I0
sg5
I0
sg6
I0
sg7
I280441
sg8
I191
sg9
I2
sg10
I107
sg11
I0
sg12
I0
sa(dp879
g2
I339
sg3
I124770
sg4
I0
sg5
I7
sg6
I0
sg7
I2553532
sg8
I20
sg9
I0
sg10
I66
sg11
I2
sg12
F3.5
sa(dp880
g2
I91
sg3
I36015
sg4
I0
sg5
I0
sg6
I0
sg7
I4043007
sg8
I144
sg9
I1
sg10
I20
sg11
I0
sg12
I0
sa(dp881
g2
I127
sg3
I71573
sg4
I0
sg5
I0
sg6
I0
sg7
I606490
sg8
I136
sg9
I0
sg10
I21
sg11
I0
sg12
I0
sa(dp882
g2
I582
sg3
I6044
sg4
I0
sg5
I8
sg6
I0
sg7
I39172845
sg8
I107
sg9
I2
sg10
I109
sg11
I2
sg12
F4.0
sa(dp883
g2
I673
sg3
I84679
sg4
I0
sg5
I26
sg6
I5
sg7
I2632297
sg8
I67
sg9
I0
sg10
I110
sg11
I4
sg12
F6.5
sa(dp884
g2
I486
sg3
I238975
sg4
I0
sg5
I21
sg6
I0
sg7
I4915964
sg8
I445
sg9
I2
sg10
I94
sg11
I6
sg12
F3.5
sa(dp885
g2
I167
sg3
I51981
sg4
I0
sg5
I3
sg6
I0
sg7
I1094933
sg8
I323
sg9
I1
sg10
I28
sg11
I1
sg12
F3.0
sa(dp886
g2
I56
sg3
I79010
sg4
I0
sg5
I0
sg6
I0
sg7
I473983
sg8
I282
sg9
I1
sg10
I9
sg11
I0
sg12
I0
sa(dp887
g2
I197
sg3
I134074
sg4
I0
sg5
I4
sg6
I0
sg7
I13089975
sg8
I229
sg9
I1
sg10
I37
sg11
I1
sg12
F4.0
sa(dp888
g2
I1347
sg3
I20991
sg4
I3
sg5
I0
sg6
I2
sg7
I10226971
sg8
I190
sg9
I2
sg10
I235
sg11
I0
sg12
I0
sa(dp889
g2
I62
sg3
I147445
sg4
I0
sg5
I1
sg6
I0
sg7
I3392370
sg8
I173
sg9
I1
sg10
I14
sg11
I1
sg12
F1.0
sa(dp890
g2
I189
sg3
I100291
sg4
I1
sg5
I8
sg6
I0
sg7
I21241988
sg8
I294
sg9
I1
sg10
I33
sg11
I2
sg12
F4.0
sa(dp891
g2
I290
sg3
I86206
sg4
I0
sg5
I3
sg6
I0
sg7
I6618543
sg8
I171
sg9
I2
sg10
I55
sg11
I2
sg12
F1.5
sa(dp892
g2
I432
sg3
I273162
sg4
I0
sg5
I14
sg6
I0
sg7
I10588342
sg8
I205
sg9
I3
sg10
I82
sg11
I1
sg12
F14.0
sa(dp893
g2
I872
sg3
I57290
sg4
I0
sg5
I0
sg6
I0
sg7
I932072
sg8
I124
sg9
I1
sg10
I143
sg11
I0
sg12
I0
sa(dp894
g2
I299
sg3
I70001
sg4
I0
sg5
I2
sg6
I0
sg7
I395782
sg8
I199
sg9
I3
sg10
I58
sg11
I1
sg12
F2.0
sa(dp895
g2
I629
sg3
I52700
sg4
I0
sg5
I0
sg6
I1
sg7
I1785592
sg8
I177
sg9
I1
sg10
I112
sg11
I0
sg12
I0
sa(dp896
g2
I830
sg3
I3582
sg4
I0
sg5
I20
sg6
I2
sg7
I9284410
sg8
I176
sg9
I1
sg10
I134
sg11
I4
sg12
F5.0
sa(dp897
g2
I1404
sg3
I129429
sg4
I0
sg5
I0
sg6
I1
sg7
I2233940
sg8
I186
sg9
I1
sg10
I265
sg11
I0
sg12
I0
sa(dp898
g2
I263
sg3
I160291
sg4
I0
sg5
I0
sg6
I0
sg7
I12654798
sg8
I257
sg9
I1
sg10
I50
sg11
I0
sg12
I0
sa(dp899
g2
I156
sg3
I84604
sg4
I0
sg5
I0
sg6
I0
sg7
I6903597
sg8
I212
sg9
I1
sg10
I27
sg11
I0
sg12
I0
sa(dp900
g2
I124
sg3
I108420
sg4
I0
sg5
I5
sg6
I0
sg7
I3694496
sg8
I230
sg9
I1
sg10
I22
sg11
I1
sg12
F5.0
sa(dp901
g2
I64
sg3
I161499
sg4
I0
sg5
I0
sg6
I0
sg7
I216980
sg8
I122
sg9
I1
sg10
I9
sg11
I0
sg12
I0
sa(dp902
g2
I255
sg3
I64551
sg4
I0
sg5
I3
sg6
I0
sg7
I431871
sg8
I114
sg9
I1
sg10
I47
sg11
I2
sg12
F1.5
sa(dp903
g2
I249
sg3
I161874
sg4
I0
sg5
I0
sg6
I0
sg7
I17911094
sg8
I174
sg9
I1
sg10
I48
sg11
I0
sg12
I0
sa(dp904
g2
I195
sg3
I91328
sg4
I0
sg5
I1
sg6
I0
sg7
I4768467
sg8
I165
sg9
I1
sg10
I25
sg11
I1
sg12
F1.0
sa(dp905
g2
I99
sg3
I197998
sg4
I0
sg5
I1
sg6
I0
sg7
I26333011
sg8
I110
sg9
I1
sg10
I17
sg11
I1
sg12
F1.0
sa(dp906
g2
I90
sg3
I130104
sg4
I0
sg5
I0
sg6
I0
sg7
I1520275
sg8
I204
sg9
I1
sg10
I17
sg11
I0
sg12
I0
sa(dp907
g2
I660
sg3
I7857
sg4
I0
sg5
I40
sg6
I2
sg7
I8272643
sg8
I301
sg9
I1
sg10
I109
sg11
I3
sg12
F13.333333333333334
sa(dp908
g2
I199
sg3
I16515
sg4
I0
sg5
I0
sg6
I0
sg7
I362394
sg8
I144
sg9
I1
sg10
I33
sg11
I0
sg12
I0
sa(dp909
g2
I91
sg3
I143734
sg4
I0
sg5
I14
sg6
I0
sg7
I11520540
sg8
I206
sg9
I1
sg10
I15
sg11
I1
sg12
F14.0
sa(dp910
g2
I215
sg3
I128040
sg4
I0
sg5
I0
sg6
I0
sg7
I6886507
sg8
I190
sg9
I1
sg10
I42
sg11
I0
sg12
I0
sa(dp911
g2
I1175
sg3
I74770
sg4
I0
sg5
I10
sg6
I0
sg7
I1711592
sg8
I111
sg9
I0
sg10
I220
sg11
I3
sg12
F3.3333333333333335
sa(dp912
g2
I743
sg3
I178880
sg4
I0
sg5
I28
sg6
I1
sg7
I2813530
sg8
I104
sg9
I2
sg10
I140
sg11
I2
sg12
F14.0
sa(dp913
g2
I84
sg3
I104074
sg4
I0
sg5
I0
sg6
I0
sg7
I523366
sg8
I224
sg9
I1
sg10
I16
sg11
I0
sg12
I0
sa(dp914
g2
I141
sg3
I91818
sg4
I0
sg5
I31
sg6
I1
sg7
I27426582
sg8
I44
sg9
I0
sg10
I27
sg11
I2
sg12
F15.5
sa(dp915
g2
I328
sg3
I109304
sg4
I0
sg5
I0
sg6
I0
sg7
I9572516
sg8
I242
sg9
I1
sg10
I61
sg11
I0
sg12
I0
sa(dp916
g2
I67
sg3
I169080
sg4
I0
sg5
I0
sg6
I0
sg7
I1345852
sg8
I155
sg9
I1
sg10
I12
sg11
I0
sg12
I0
sa(dp917
g2
I55
sg3
I158013
sg4
I0
sg5
I9
sg6
I0
sg7
I5466625
sg8
I197
sg9
I1
sg10
I12
sg11
I1
sg12
F9.0
sa(dp918
g2
I279
sg3
I163875
sg4
I0
sg5
I0
sg6
I0
sg7
I8142411
sg8
I186
sg9
I1
sg10
I51
sg11
I0
sg12
I0
sa(dp919
g2
I575
sg3
I28229
sg4
I0
sg5
I12
sg6
I0
sg7
I2899145
sg8
I128
sg9
I2
sg10
I108
sg11
I2
sg12
F6.0
sa(dp920
g2
I207
sg3
I198230
sg4
I0
sg5
I6
sg6
I0
sg7
I733478
sg8
I336
sg9
I1
sg10
I36
sg11
I1
sg12
F6.0
sa(dp921
g2
I201
sg3
I86076
sg4
I0
sg5
I4
sg6
I0
sg7
I401030
sg8
I70
sg9
I1
sg10
I40
sg11
I1
sg12
F4.0
sa(dp922
g2
I186
sg3
I186199
sg4
I0
sg5
I3
sg6
I0
sg7
I850831
sg8
I268
sg9
I1
sg10
I36
sg11
I2
sg12
F1.5
sa(dp923
g2
I120
sg3
I84715
sg4
I0
sg5
I0
sg6
I0
sg7
I43784657
sg8
I7
sg9
I2
sg10
I20
sg11
I0
sg12
I0
sa(dp924
g2
I117
sg3
I99000
sg4
I0
sg5
I3
sg6
I1
sg7
I6005180
sg8
I245
sg9
I2
sg10
I27
sg11
I1
sg12
F3.0
sa(dp925
g2
I1961
sg3
I76898
sg4
I0
sg5
I0
sg6
I1
sg7
I1986776
sg8
I162
sg9
I6
sg10
I388
sg11
I0
sg12
I0
sa(dp926
g2
I87
sg3
I158982
sg4
I0
sg5
I0
sg6
I1
sg7
I1966210
sg8
I198
sg9
I1
sg10
I19
sg11
I0
sg12
I0
sa(dp927
g2
I592
sg3
I55823
sg4
I0
sg5
I0
sg6
I2
sg7
I641488
sg8
I45
sg9
I1
sg10
I96
sg11
I0
sg12
I0
sa(dp928
g2
I546
sg3
I75229
sg4
I0
sg5
I21
sg6
I0
sg7
I1395866
sg8
I91
sg9
I1
sg10
I95
sg11
I2
sg12
F10.5
sa(dp929
g2
I206
sg3
I127576
sg4
I0
sg5
I10
sg6
I0
sg7
I5041056
sg8
I242
sg9
I1
sg10
I34
sg11
I2
sg12
F5.0
sa(dp930
g2
I149
sg3
I191064
sg4
I0
sg5
I0
sg6
I0
sg7
I6390584
sg8
I63
sg9
I2
sg10
I26
sg11
I0
sg12
I0
sa(dp931
g2
I232
sg3
I116539
sg4
I0
sg5
I3
sg6
I0
sg7
I13172658
sg8
I159
sg9
I1
sg10
I47
sg11
I2
sg12
F1.5
sa(dp932
g2
I533
sg3
I140582
sg4
I0
sg5
I1
sg6
I0
sg7
I2225582
sg8
I186
sg9
I0
sg10
I102
sg11
I1
sg12
F1.0
sa(dp933
g2
I253
sg3
I70812
sg4
I0
sg5
I2
sg6
I0
sg7
I5352630
sg8
I194
sg9
I2
sg10
I44
sg11
I1
sg12
F2.0
sa(dp934
g2
I280
sg3
I69272
sg4
I0
sg5
I0
sg6
I0
sg7
I9555145
sg8
I192
sg9
I1
sg10
I50
sg11
I0
sg12
I0
sa(dp935
g2
I132
sg3
I48685
sg4
I0
sg5
I0
sg6
I0
sg7
I3257957
sg8
I138
sg9
I0
sg10
I22
sg11
I0
sg12
I0
sa(dp936
g2
I333
sg3
I120040
sg4
I0
sg5
I0
sg6
I0
sg7
I7465532
sg8
I181
sg9
I1
sg10
I55
sg11
I0
sg12
I0
sa(dp937
g2
I218
sg3
I136918
sg4
I0
sg5
I1
sg6
I0
sg7
I12330535
sg8
I194
sg9
I1
sg10
I42
sg11
I1
sg12
F1.0
sa(dp938
g2
I406
sg3
I119282
sg4
I0
sg5
I19
sg6
I0
sg7
I15014576
sg8
I96
sg9
I3
sg10
I61
sg11
I2
sg12
F9.5
sa(dp939
g2
I582
sg3
I68554
sg4
I0
sg5
I0
sg6
I0
sg7
I449281
sg8
I86
sg9
I1
sg10
I102
sg11
I0
sg12
I0
sa(dp940
g2
I525
sg3
I12007
sg4
I0
sg5
I3
sg6
I1
sg7
I14379780
sg8
I108
sg9
I1
sg10
I86
sg11
I2
sg12
F1.5
sa(dp941
g2
I298
sg3
I33842
sg4
I0
sg5
I17
sg6
I1
sg7
I3801789
sg8
I68
sg9
I2
sg10
I42
sg11
I1
sg12
F17.0
sa(dp942
g2
I120
sg3
I12377
sg4
I0
sg5
I2
sg6
I0
sg7
I32101507
sg8
I198
sg9
I0
sg10
I21
sg11
I2
sg12
F1.0
sa(dp943
g2
I205
sg3
I130932
sg4
I0
sg5
I0
sg6
I1
sg7
I196392
sg8
I98
sg9
I1
sg10
I45
sg11
I0
sg12
I0
sa(dp944
g2
I632
sg3
I120580
sg4
I0
sg5
I2
sg6
I4
sg7
I166290
sg8
I16
sg9
I1
sg10
I114
sg11
I1
sg12
F2.0
sa(dp945
g2
I192
sg3
I192324
sg4
I0
sg5
I5
sg6
I0
sg7
I14262462
sg8
I230
sg9
I1
sg10
I37
sg11
I1
sg12
F5.0
sa(dp946
g2
I194
sg3
I75142
sg4
I0
sg5
I1
sg6
I0
sg7
I3282904
sg8
I263
sg9
I1
sg10
I34
sg11
I1
sg12
F1.0
sa(dp947
g2
I322
sg3
I19604
sg4
I0
sg5
I6
sg6
I0
sg7
I12151325
sg8
I204
sg9
I1
sg10
I48
sg11
I1
sg12
F6.0
sa(dp948
g2
I505
sg3
I136681
sg4
I0
sg5
I0
sg6
I0
sg7
I189580
sg8
I139
sg9
I1
sg10
I89
sg11
I0
sg12
I0
sa(dp949
g2
I405
sg3
I89656
sg4
I0
sg5
I16
sg6
I0
sg7
I692616
sg8
I17
sg9
I2
sg10
I81
sg11
I1
sg12
F16.0
sa(dp950
g2
I308
sg3
I254007
sg4
I0
sg5
I8
sg6
I4
sg7
I664297
sg8
I176
sg9
I4
sg10
I52
sg11
I2
sg12
F4.0
sa(dp951
g2
I213
sg3
I103902
sg4
I1
sg5
I23
sg6
I1
sg7
I13638960
sg8
I157
sg9
I0
sg10
I36
sg11
I2
sg12
F11.5
sa(dp952
g2
I65
sg3
I65978
sg4
I0
sg5
I2
sg6
I0
sg7
I2331640
sg8
I120
sg9
I0
sg10
I13
sg11
I1
sg12
F2.0
sa(dp953
g2
I425
sg3
I151618
sg4
I0
sg5
I0
sg6
I1
sg7
I2185198
sg8
I58
sg9
I2
sg10
I78
sg11
I0
sg12
I0
sa(dp954
g2
I427
sg3
I177447
sg4
I0
sg5
I14
sg6
I2
sg7
I14639949
sg8
I30
sg9
I1
sg10
I71
sg11
I4
sg12
F3.5
sa(dp955
g2
I175
sg3
I87970
sg4
I0
sg5
I0
sg6
I0
sg7
I4203897
sg8
I217
sg9
I1
sg10
I33
sg11
I0
sg12
I0
sa(dp956
g2
I527
sg3
I265691
sg4
I0
sg5
I0
sg6
I4
sg7
I14188155
sg8
I34
sg9
I2
sg10
I98
sg11
I0
sg12
I0
sa(dp957
g2
I147
sg3
I239405
sg4
I0
sg5
I24
sg6
I0
sg7
I11094752
sg8
I280
sg9
I1
sg10
I27
sg11
I1
sg12
F24.0
sa(dp958
g2
I115
sg3
I105032
sg4
I0
sg5
I10
sg6
I0
sg7
I14299004
sg8
I131
sg9
I1
sg10
I25
sg11
I1
sg12
F10.0
sa(dp959
g2
I412
sg3
I124170
sg4
I0
sg5
I0
sg6
I1
sg7
I4075211
sg8
I38
sg9
I2
sg10
I81
sg11
I0
sg12
I0
sa(dp960
g2
I389
sg3
I50364
sg4
I0
sg5
I5
sg6
I0
sg7
I4101282
sg8
I190
sg9
I1
sg10
I63
sg11
I4
sg12
F1.25
sa(dp961
g2
I151
sg3
I9411
sg4
I0
sg5
I0
sg6
I0
sg7
I36778655
sg8
I183
sg9
I1
sg10
I26
sg11
I0
sg12
I0
sa(dp962
g2
I128
sg3
I59189
sg4
I0
sg5
I5
sg6
I0
sg7
I31026976
sg8
I179
sg9
I1
sg10
I21
sg11
I3
sg12
F1.6666666666666667
sa(dp963
g2
I120
sg3
I111674
sg4
I0
sg5
I2
sg6
I0
sg7
I4504677
sg8
I110
sg9
I2
sg10
I23
sg11
I2
sg12
F1.0
sa(dp964
g2
I130
sg3
I105679
sg4
I0
sg5
I6
sg6
I0
sg7
I2828371
sg8
I60
sg9
I1
sg10
I26
sg11
I2
sg12
F3.0
sa(dp965
g2
I783
sg3
I80836
sg4
I0
sg5
I9
sg6
I0
sg7
I11711637
sg8
I193
sg9
I2
sg10
I129
sg11
I1
sg12
F9.0
sa(dp966
g2
I519
sg3
I38712
sg4
I0
sg5
I3
sg6
I4
sg7
I520194
sg8
I210
sg9
I2
sg10
I96
sg11
I1
sg12
F3.0
sa(dp967
g2
I160
sg3
I131046
sg4
I0
sg5
I6
sg6
I0
sg7
I9623147
sg8
I224
sg9
I0
sg10
I26
sg11
I1
sg12
F6.0
sa(dp968
g2
I744
sg3
I104735
sg4
I0
sg5
I2
sg6
I4
sg7
I2267446
sg8
I62
sg9
I0
sg10
I134
sg11
I2
sg12
F1.0
sa(dp969
g2
I924
sg3
I188977
sg4
I0
sg5
I2
sg6
I0
sg7
I10973817
sg8
I190
sg9
I2
sg10
I156
sg11
I2
sg12
F1.0
sa(dp970
g2
I462
sg3
I304979
sg4
I0
sg5
I3
sg6
I0
sg7
I3387715
sg8
I122
sg9
I1
sg10
I77
sg11
I2
sg12
F1.5
sa(dp971
g2
I393
sg3
I30031
sg4
I0
sg5
I4
sg6
I0
sg7
I3653339
sg8
I134
sg9
I0
sg10
I64
sg11
I2
sg12
F2.0
sa(dp972
g2
I151
sg3
I46114
sg4
I0
sg5
I0
sg6
I0
sg7
I847866
sg8
I203
sg9
I1
sg10
I28
sg11
I0
sg12
I0
sa(dp973
g2
I664
sg3
I62388
sg4
I0
sg5
I0
sg6
I0
sg7
I1479669
sg8
I59
sg9
I1
sg10
I111
sg11
I0
sg12
I0
sa(dp974
g2
I813
sg3
I37948
sg4
I0
sg5
I6
sg6
I0
sg7
I3287063
sg8
I145
sg9
I1
sg10
I138
sg11
I3
sg12
F2.0
sa(dp975
g2
I530
sg3
I83761
sg4
I0
sg5
I6
sg6
I16
sg7
I20078869
sg8
I119
sg9
I1
sg10
I83
sg11
I2
sg12
F3.0
sa(dp976
g2
I723
sg3
I33467
sg4
I0
sg5
I10
sg6
I0
sg7
I18348004
sg8
I224
sg9
I1
sg10
I129
sg11
I3
sg12
F3.3333333333333335
sa(dp977
g2
I1168
sg3
I62780
sg4
I1
sg5
I0
sg6
I5
sg7
I4203836
sg8
I421
sg9
I0
sg10
I204
sg11
I0
sg12
I0
sa(dp978
g2
I356
sg3
I113214
sg4
I0
sg5
I11
sg6
I0
sg7
I22408462
sg8
I218
sg9
I2
sg10
I63
sg11
I2
sg12
F5.5
sa(dp979
g2
I532
sg3
I103363
sg4
I0
sg5
I3
sg6
I2
sg7
I4131114
sg8
I84
sg9
I1
sg10
I93
sg11
I2
sg12
F1.5
sa(dp980
g2
I187
sg3
I121800
sg4
I0
sg5
I2
sg6
I0
sg7
I4668718
sg8
I233
sg9
I1
sg10
I36
sg11
I1
sg12
F2.0
sa(dp981
g2
I287
sg3
I83557
sg4
I0
sg5
I9
sg6
I0
sg7
I19545473
sg8
I204
sg9
I2
sg10
I55
sg11
I1
sg12
F9.0
sa(dp982
g2
I363
sg3
I153892
sg4
I0
sg5
I2
sg6
I0
sg7
I3652674
sg8
I92
sg9
I1
sg10
I63
sg11
I2
sg12
F1.0
sa(dp983
g2
I205
sg3
I16476
sg4
I0
sg5
I0
sg6
I0
sg7
I9756028
sg8
I148
sg9
I1
sg10
I35
sg11
I0
sg12
I0
sa(dp984
g2
I820
sg3
I112094
sg4
I0
sg5
I15
sg6
I0
sg7
I2174843
sg8
I4
sg9
I1
sg10
I146
sg11
I3
sg12
F5.0
sa(dp985
g2
I284
sg3
I222511
sg4
I0
sg5
I27
sg6
I0
sg7
I4528110
sg8
I267
sg9
I1
sg10
I47
sg11
I1
sg12
F27.0
sa(dp986
g2
I96
sg3
I101600
sg4
I0
sg5
I3
sg6
I0
sg7
I674531
sg8
I246
sg9
I2
sg10
I18
sg11
I3
sg12
F1.0
sa(dp987
g2
I950
sg3
I125918
sg4
I0
sg5
I20
sg6
I0
sg7
I365934
sg8
I53
sg9
I1
sg10
I177
sg11
I3
sg12
F6.666666666666667
sa(dp988
g2
I340
sg3
I55947
sg4
I0
sg5
I8
sg6
I1
sg7
I3270689
sg8
I170
sg9
I4
sg10
I47
sg11
I1
sg12
F8.0
sa(dp989
g2
I1024
sg3
I86885
sg4
I0
sg5
I37
sg6
I2
sg7
I5107878
sg8
I143
sg9
I0
sg10
I175
sg11
I2
sg12
F18.5
sa(dp990
g2
I83
sg3
I25945
sg4
I0
sg5
I0
sg6
I1
sg7
I1115329
sg8
I145
sg9
I1
sg10
I10
sg11
I0
sg12
I0
sa(dp991
g2
I216
sg3
I146476
sg4
I0
sg5
I2
sg6
I0
sg7
I9439518
sg8
I124
sg9
I1
sg10
I28
sg11
I2
sg12
F1.0
sa(dp992
g2
I301
sg3
I12324
sg4
I0
sg5
I5
sg6
I0
sg7
I23864108
sg8
I193
sg9
I2
sg10
I49
sg11
I1
sg12
F5.0
sa(dp993
g2
I194
sg3
I70343
sg4
I0
sg5
I19
sg6
I0
sg7
I20533455
sg8
I198
sg9
I2
sg10
I32
sg11
I2
sg12
F9.5
sa(dp994
g2
I370
sg3
I36645
sg4
I0
sg5
I2
sg6
I0
sg7
I18415320
sg8
I90
sg9
I0
sg10
I62
sg11
I2
sg12
F1.0
sa(dp995
g2
I147
sg3
I53112
sg4
I0
sg5
I0
sg6
I0
sg7
I1261961
sg8
I198
sg9
I1
sg10
I25
sg11
I0
sg12
I0
sa(dp996
g2
I255
sg3
I31495
sg4
I0
sg5
I12
sg6
I0
sg7
I32939
sg8
I88
sg9
I1
sg10
I52
sg11
I1
sg12
F12.0
sa(dp997
g2
I132
sg3
I74921
sg4
I0
sg5
I1
sg6
I0
sg7
I4830620
sg8
I218
sg9
I2
sg10
I26
sg11
I1
sg12
F1.0
sa(dp998
g2
I217
sg3
I129935
sg4
I0
sg5
I2
sg6
I0
sg7
I23086405
sg8
I206
sg9
I1
sg10
I42
sg11
I1
sg12
F2.0
sa(dp999
g2
I78
sg3
I92012
sg4
I0
sg5
I5
sg6
I0
sg7
I1278740
sg8
I184
sg9
I0
sg10
I12
sg11
I2
sg12
F2.5
sa(dp1000
g2
I343
sg3
I221136
sg4
I0
sg5
I2
sg6
I0
sg7
I20309470
sg8
I155
sg9
I0
sg10
I67
sg11
I2
sg12
F1.0
sa(dp1001
g2
I201
sg3
I42153
sg4
I0
sg5
I0
sg6
I0
sg7
I232258
sg8
I35
sg9
I1
sg10
I30
sg11
I0
sg12
I0
sa(dp1002
g2
I254
sg3
I360924
sg4
I0
sg5
I3
sg6
I1
sg7
I10406143
sg8
I195
sg9
I1
sg10
I55
sg11
I1
sg12
F3.0
sa(dp1003
g2
I223
sg3
I59053
sg4
I0
sg5
I0
sg6
I0
sg7
I3483652
sg8
I132
sg9
I2
sg10
I39
sg11
I0
sg12
I0
sa(dp1004
g2
I465
sg3
I107662
sg4
I0
sg5
I0
sg6
I0
sg7
I15031843
sg8
I56
sg9
I2
sg10
I85
sg11
I0
sg12
I0
sa(dp1005
g2
I302
sg3
I132499
sg4
I0
sg5
I2
sg6
I0
sg7
I6117124
sg8
I130
sg9
I1
sg10
I54
sg11
I2
sg12
F1.0
sa(dp1006
g2
I505
sg3
I122019
sg4
I0
sg5
I5
sg6
I0
sg7
I3346295
sg8
I170
sg9
I2
sg10
I83
sg11
I2
sg12
F2.5
sa(dp1007
g2
I197
sg3
I34280
sg4
I0
sg5
I0
sg6
I0
sg7
I441973
sg8
I95
sg9
I1
sg10
I35
sg11
I0
sg12
I0
sa(dp1008
g2
I520
sg3
I140918
sg4
I0
sg5
I13
sg6
I1
sg7
I13295801
sg8
I232
sg9
I0
sg10
I90
sg11
I2
sg12
F6.5
sa(dp1009
g2
I205
sg3
I60383
sg4
I0
sg5
I0
sg6
I1
sg7
I1373185
sg8
I115
sg9
I2
sg10
I37
sg11
I0
sg12
I0
sa(dp1010
g2
I291
sg3
I47207
sg4
I0
sg5
I5
sg6
I1
sg7
I8259080
sg8
I185
sg9
I2
sg10
I56
sg11
I4
sg12
F1.25
sa(dp1011
g2
I2151
sg3
I16849
sg4
I0
sg5
I0
sg6
I4
sg7
I487261
sg8
I44
sg9
I5
sg10
I378
sg11
I0
sg12
I0
sa(dp1012
g2
I171
sg3
I127837
sg4
I0
sg5
I0
sg6
I1
sg7
I5297495
sg8
I147
sg9
I1
sg10
I33
sg11
I0
sg12
I0
sa(dp1013
g2
I341
sg3
I98130
sg4
I0
sg5
I7
sg6
I0
sg7
I4382964
sg8
I158
sg9
I1
sg10
I62
sg11
I1
sg12
F7.0
sa(dp1014
g2
I97
sg3
I122087
sg4
I0
sg5
I0
sg6
I1
sg7
I110829
sg8
I162
sg9
I1
sg10
I14
sg11
I0
sg12
I0
sa(dp1015
g2
I43
sg3
I87754
sg4
I0
sg5
I1
sg6
I1
sg7
I5234170
sg8
I198
sg9
I1
sg10
I8
sg11
I1
sg12
F1.0
sa(dp1016
g2
I506
sg3
I60181
sg4
I0
sg5
I0
sg6
I1
sg7
I190017
sg8
I256
sg9
I2
sg10
I88
sg11
I0
sg12
I0
sa(dp1017
g2
I372
sg3
I348912
sg4
I0
sg5
I9
sg6
I1
sg7
I569063
sg8
I203
sg9
I1
sg10
I78
sg11
I2
sg12
F4.5
sa(dp1018
g2
I352
sg3
I15387
sg4
I1
sg5
I0
sg6
I5
sg7
I8997908
sg8
I90
sg9
I3
sg10
I70
sg11
I0
sg12
I0
sa(dp1019
g2
I94
sg3
I5751
sg4
I0
sg5
I2
sg6
I0
sg7
I21881463
sg8
I231
sg9
I2
sg10
I13
sg11
I2
sg12
F1.0
sa(dp1020
g2
I233
sg3
I111440
sg4
I0
sg5
I0
sg6
I0
sg7
I494273
sg8
I121
sg9
I1
sg10
I47
sg11
I0
sg12
I0
sa(dp1021
g2
I358
sg3
I144129
sg4
I0
sg5
I19
sg6
I0
sg7
I13704307
sg8
I65
sg9
I2
sg10
I66
sg11
I3
sg12
F6.333333333333333
sa(dp1022
g2
I629
sg3
I80606
sg4
I0
sg5
I2
sg6
I0
sg7
I796019
sg8
I155
sg9
I0
sg10
I111
sg11
I2
sg12
F1.0
sa(dp1023
g2
I349
sg3
I185260
sg4
I0
sg5
I2
sg6
I0
sg7
I8214998
sg8
I199
sg9
I0
sg10
I69
sg11
I2
sg12
F1.0
sa(dp1024
g2
I278
sg3
I84004
sg4
I0
sg5
I9
sg6
I0
sg7
I5105554
sg8
I192
sg9
I2
sg10
I54
sg11
I1
sg12
F9.0
sa(dp1025
g2
I147
sg3
I78469
sg4
I0
sg5
I5
sg6
I0
sg7
I3744713
sg8
I167
sg9
I1
sg10
I26
sg11
I2
sg12
F2.5
sa(dp1026
g2
I234
sg3
I62372
sg4
I0
sg5
I0
sg6
I0
sg7
I35645
sg8
I73
sg9
I1
sg10
I48
sg11
I0
sg12
I0
sa(dp1027
g2
I139
sg3
I90080
sg4
I0
sg5
I1
sg6
I0
sg7
I16853799
sg8
I214
sg9
I0
sg10
I25
sg11
I1
sg12
F1.0
sa(dp1028
g2
I424
sg3
I31876
sg4
I0
sg5
I0
sg6
I0
sg7
I242514
sg8
I75
sg9
I1
sg10
I79
sg11
I0
sg12
I0
sa(dp1029
g2
I1162
sg3
I80611
sg4
I0
sg5
I42
sg6
I0
sg7
I1732477
sg8
I67
sg9
I3
sg10
I228
sg11
I4
sg12
F10.5
sa(dp1030
g2
I723
sg3
I241774
sg4
I0
sg5
I2
sg6
I2
sg7
I16720705
sg8
I209
sg9
I1
sg10
I123
sg11
I2
sg12
F1.0
sa(dp1031
g2
I295
sg3
I298648
sg4
I0
sg5
I7
sg6
I1
sg7
I12171382
sg8
I185
sg9
I2
sg10
I48
sg11
I2
sg12
F3.5
sa(dp1032
g2
I600
sg3
I50186
sg4
I0
sg5
I5
sg6
I0
sg7
I4901847
sg8
I141
sg9
I2
sg10
I116
sg11
I1
sg12
F5.0
sa(dp1033
g2
I188
sg3
I83018
sg4
I0
sg5
I23
sg6
I0
sg7
I1947834
sg8
I89
sg9
I2
sg10
I33
sg11
I3
sg12
F7.666666666666667
sa(dp1034
g2
I1192
sg3
I122713
sg4
I0
sg5
I24
sg6
I1
sg7
I4257708
sg8
I88
sg9
I3
sg10
I224
sg11
I4
sg12
F6.0
sa(dp1035
g2
I231
sg3
I60707
sg4
I0
sg5
I7
sg6
I0
sg7
I6029838
sg8
I111
sg9
I2
sg10
I36
sg11
I1
sg12
F7.0
sa(dp1036
g2
I315
sg3
I134503
sg4
I0
sg5
I2
sg6
I0
sg7
I3590168
sg8
I253
sg9
I2
sg10
I61
sg11
I2
sg12
F1.0
sa(dp1037
g2
I724
sg3
I161275
sg4
I0
sg5
I8
sg6
I0
sg7
I9536084
sg8
I92
sg9
I0
sg10
I132
sg11
I2
sg12
F4.0
sa(dp1038
g2
I504
sg3
I62677
sg4
I0
sg5
I0
sg6
I0
sg7
I1756156
sg8
I220
sg9
I2
sg10
I84
sg11
I0
sg12
I0
sa(dp1039
g2
I240
sg3
I76182
sg4
I0
sg5
I5
sg6
I0
sg7
I9304968
sg8
I265
sg9
I0
sg10
I44
sg11
I2
sg12
F2.5
sa(dp1040
g2
I146
sg3
I129512
sg4
I0
sg5
I0
sg6
I0
sg7
I5280205
sg8
I150
sg9
I1
sg10
I26
sg11
I0
sg12
I0
sa(dp1041
g2
I318
sg3
I81353
sg4
I1
sg5
I19
sg6
I0
sg7
I5487005
sg8
I165
sg9
I1
sg10
I67
sg11
I1
sg12
F19.0
sa(dp1042
g2
I328
sg3
I58076
sg4
I0
sg5
I11
sg6
I2
sg7
I338145
sg8
I109
sg9
I3
sg10
I61
sg11
I1
sg12
F11.0
sa(dp1043
g2
I444
sg3
I50566
sg4
I0
sg5
I8
sg6
I0
sg7
I2364277
sg8
I196
sg9
I1
sg10
I75
sg11
I2
sg12
F4.0
sa(dp1044
g2
I2890
sg3
I3943
sg4
I0
sg5
I0
sg6
I2
sg7
I2710686
sg8
I92
sg9
I3
sg10
I488
sg11
I0
sg12
I0
sa(dp1045
g2
I259
sg3
I303267
sg4
I0
sg5
I9
sg6
I0
sg7
I2368248
sg8
I77
sg9
I1
sg10
I44
sg11
I2
sg12
F4.5
sa(dp1046
g2
I230
sg3
I110751
sg4
I0
sg5
I3
sg6
I0
sg7
I1275999
sg8
I42
sg9
I0
sg10
I38
sg11
I1
sg12
F3.0
sa(dp1047
g2
I236
sg3
I64279
sg4
I0
sg5
I0
sg6
I0
sg7
I5476166
sg8
I201
sg9
I1
sg10
I41
sg11
I0
sg12
I0
sa(dp1048
g2
I270
sg3
I105953
sg4
I0
sg5
I0
sg6
I1
sg7
I16192256
sg8
I66
sg9
I2
sg10
I48
sg11
I0
sg12
I0
sa(dp1049
g2
I201
sg3
I4278
sg4
I0
sg5
I12
sg6
I1
sg7
I11476240
sg8
I146
sg9
I1
sg10
I32
sg11
I3
sg12
F4.0
sa(dp1050
g2
I305
sg3
I95263
sg4
I0
sg5
I10
sg6
I0
sg7
I1227325
sg8
I174
sg9
I2
sg10
I51
sg11
I3
sg12
F3.3333333333333335
sa(dp1051
g2
I547
sg3
I55559
sg4
I0
sg5
I0
sg6
I2
sg7
I8582794
sg8
I73
sg9
I1
sg10
I96
sg11
I0
sg12
I0
sa(dp1052
g2
I166
sg3
I6459
sg4
I0
sg5
I0
sg6
I0
sg7
I27385659
sg8
I137
sg9
I2
sg10
I30
sg11
I0
sg12
I0
sa(dp1053
g2
I236
sg3
I84536
sg4
I0
sg5
I9
sg6
I0
sg7
I3229493
sg8
I61
sg9
I2
sg10
I43
sg11
I2
sg12
F4.5
sa(dp1054
g2
I186
sg3
I78584
sg4
I0
sg5
I0
sg6
I1
sg7
I13445719
sg8
I185
sg9
I1
sg10
I33
sg11
I0
sg12
I0
sa(dp1055
g2
I344
sg3
I162747
sg4
I0
sg5
I6
sg6
I0
sg7
I934173
sg8
I190
sg9
I3
sg10
I60
sg11
I2
sg12
F3.0
sa(dp1056
g2
I759
sg3
I43881
sg4
I0
sg5
I3
sg6
I0
sg7
I2118712
sg8
I97
sg9
I1
sg10
I140
sg11
I1
sg12
F3.0
sa(dp1057
g2
I614
sg3
I213192
sg4
I0
sg5
I23
sg6
I0
sg7
I672198
sg8
I53
sg9
I1
sg10
I103
sg11
I5
sg12
F4.6
sa(dp1058
g2
I544
sg3
I26299
sg4
I0
sg5
I0
sg6
I0
sg7
I3273193
sg8
I39
sg9
I2
sg10
I92
sg11
I0
sg12
I0
sa(dp1059
g2
I75
sg3
I135910
sg4
I0
sg5
I5
sg6
I0
sg7
I1077349
sg8
I173
sg9
I1
sg10
I12
sg11
I2
sg12
F2.5
sa(dp1060
g2
I358
sg3
I189071
sg4
I0
sg5
I0
sg6
I0
sg7
I283630
sg8
I56
sg9
I1
sg10
I63
sg11
I0
sg12
I0
sa(dp1061
g2
I207
sg3
I110370
sg4
I0
sg5
I1
sg6
I0
sg7
I16566128
sg8
I192
sg9
I0
sg10
I39
sg11
I1
sg12
F1.0
sa(dp1062
g2
I171
sg3
I166900
sg4
I0
sg5
I14
sg6
I0
sg7
I14661768
sg8
I184
sg9
I1
sg10
I32
sg11
I2
sg12
F7.0
sa(dp1063
g2
I248
sg3
I45792
sg4
I0
sg5
I0
sg6
I0
sg7
I17319775
sg8
I218
sg9
I1
sg10
I45
sg11
I0
sg12
I0
sa(dp1064
g2
I229
sg3
I51862
sg4
I0
sg5
I17
sg6
I0
sg7
I5792404
sg8
I50
sg9
I0
sg10
I37
sg11
I2
sg12
F8.5
sa(dp1065
g2
I579
sg3
I30707
sg4
I0
sg5
I12
sg6
I1
sg7
I624013
sg8
I97
sg9
I1
sg10
I104
sg11
I4
sg12
F3.0
sa(dp1066
g2
I539
sg3
I106242
sg4
I0
sg5
I5
sg6
I0
sg7
I311833
sg8
I92
sg9
I1
sg10
I92
sg11
I1
sg12
F5.0
sa(dp1067
g2
I103
sg3
I68744
sg4
I0
sg5
I0
sg6
I0
sg7
I112980
sg8
I137
sg9
I2
sg10
I20
sg11
I0
sg12
I0
sa(dp1068
g2
I473
sg3
I10087
sg4
I0
sg5
I0
sg6
I0
sg7
I110275
sg8
I60
sg9
I1
sg10
I88
sg11
I0
sg12
I0
sa(dp1069
g2
I689
sg3
I54638
sg4
I0
sg5
I32
sg6
I3
sg7
I3387975
sg8
I138
sg9
I7
sg10
I133
sg11
I1
sg12
F32.0
sa(dp1070
g2
I380
sg3
I98943
sg4
I0
sg5
I5
sg6
I1
sg7
I1547163
sg8
I170
sg9
I2
sg10
I61
sg11
I2
sg12
F2.5
sa(dp1071
g2
I367
sg3
I70799
sg4
I0
sg5
I0
sg6
I0
sg7
I19126566
sg8
I104
sg9
I1
sg10
I60
sg11
I0
sg12
I0
sa(dp1072
g2
I67
sg3
I137323
sg4
I0
sg5
I0
sg6
I0
sg7
I4796785
sg8
I215
sg9
I1
sg10
I13
sg11
I0
sg12
I0
sa(dp1073
g2
I220
sg3
I51193
sg4
I0
sg5
I16
sg6
I0
sg7
I3348664
sg8
I226
sg9
I1
sg10
I40
sg11
I1
sg12
F16.0
sa(dp1074
g2
I197
sg3
I47950
sg4
I0
sg5
I0
sg6
I0
sg7
I782984
sg8
I105
sg9
I1
sg10
I36
sg11
I0
sg12
I0
sa(dp1075
g2
I213
sg3
I26399
sg4
I0
sg5
I4
sg6
I1
sg7
I4978745
sg8
I193
sg9
I2
sg10
I38
sg11
I2
sg12
F2.0
sa(dp1076
g2
I485
sg3
I144373
sg4
I0
sg5
I9
sg6
I0
sg7
I6981771
sg8
I132
sg9
I1
sg10
I87
sg11
I3
sg12
F3.0
sa(dp1077
g2
I157
sg3
I56592
sg4
I0
sg5
I0
sg6
I0
sg7
I4938665
sg8
I110
sg9
I1
sg10
I23
sg11
I0
sg12
I0
sa(dp1078
g2
I423
sg3
I87562
sg4
I0
sg5
I46
sg6
I0
sg7
I33136494
sg8
I262
sg9
I1
sg10
I66
sg11
I3
sg12
F15.333333333333334
sa(dp1079
g2
I246
sg3
I141340
sg4
I0
sg5
I10
sg6
I0
sg7
I11788373
sg8
I229
sg9
I0
sg10
I42
sg11
I1
sg12
F10.0
sa(dp1080
g2
I269
sg3
I58276
sg4
I0
sg5
I0
sg6
I2
sg7
I3760309
sg8
I160
sg9
I2
sg10
I53
sg11
I0
sg12
I0
sa(dp1081
g2
I388
sg3
I155211
sg4
I0
sg5
I3
sg6
I0
sg7
I7852969
sg8
I124
sg9
I0
sg10
I66
sg11
I2
sg12
F1.5
sa(dp1082
g2
I98
sg3
I42407
sg4
I0
sg5
I0
sg6
I0
sg7
I3453103
sg8
I104
sg9
I1
sg10
I22
sg11
I0
sg12
I0
sa(dp1083
g2
I329
sg3
I154303
sg4
I0
sg5
I11
sg6
I0
sg7
I12400584
sg8
I133
sg9
I1
sg10
I60
sg11
I4
sg12
F2.75
sa(dp1084
g2
I327
sg3
I73033
sg4
I0
sg5
I11
sg6
I0
sg7
I13733863
sg8
I165
sg9
I1
sg10
I62
sg11
I2
sg12
F5.5
sa(dp1085
g2
I3360
sg3
I29829
sg4
I0
sg5
I38
sg6
I1
sg7
I3860319
sg8
I60
sg9
I8
sg10
I655
sg11
I1
sg12
F38.0
sa(dp1086
g2
I790
sg3
I5505
sg4
I4
sg5
I37
sg6
I6
sg7
I37054723
sg8
I126
sg9
I4
sg10
I119
sg11
I2
sg12
F18.5
sa(dp1087
g2
I816
sg3
I37849
sg4
I0
sg5
I0
sg6
I0
sg7
I327011
sg8
I60
sg9
I3
sg10
I145
sg11
I0
sg12
I0
sa(dp1088
g2
I102
sg3
I28206
sg4
I0
sg5
I0
sg6
I1
sg7
I118395
sg8
I74
sg9
I0
sg10
I19
sg11
I0
sg12
I0
sa(dp1089
g2
I178
sg3
I178925
sg4
I0
sg5
I4
sg6
I1
sg7
I2990152
sg8
I173
sg9
I1
sg10
I28
sg11
I1
sg12
F4.0
sa(dp1090
g2
I109
sg3
I288596
sg4
I0
sg5
I5
sg6
I1
sg7
I543322
sg8
I195
sg9
I1
sg10
I16
sg11
I1
sg12
F5.0
sa(dp1091
g2
I601
sg3
I32316
sg4
I0
sg5
I4
sg6
I0
sg7
I1180665
sg8
I92
sg9
I1
sg10
I97
sg11
I1
sg12
F4.0
sa(dp1092
g2
I413
sg3
I66543
sg4
I0
sg5
I0
sg6
I1
sg7
I1499033
sg8
I178
sg9
I1
sg10
I78
sg11
I0
sg12
I0
sa(dp1093
g2
I361
sg3
I31787
sg4
I0
sg5
I0
sg6
I1
sg7
I2812484
sg8
I67
sg9
I1
sg10
I54
sg11
I0
sg12
I0
sa(dp1094
g2
I127
sg3
I92042
sg4
I0
sg5
I9
sg6
I0
sg7
I698279
sg8
I176
sg9
I1
sg10
I18
sg11
I2
sg12
F4.5
sa(dp1095
g2
I123
sg3
I53369
sg4
I0
sg5
I2
sg6
I0
sg7
I818836
sg8
I63
sg9
I1
sg10
I23
sg11
I1
sg12
F2.0
sa(dp1096
g2
I129
sg3
I113769
sg4
I0
sg5
I2
sg6
I0
sg7
I5631819
sg8
I157
sg9
I2
sg10
I22
sg11
I1
sg12
F2.0
sa(dp1097
g2
I281
sg3
I165559
sg4
I0
sg5
I2
sg6
I1
sg7
I10739432
sg8
I163
sg9
I1
sg10
I52
sg11
I1
sg12
F2.0
sa(dp1098
g2
I257
sg3
I203037
sg4
I0
sg5
I0
sg6
I0
sg7
I1995846
sg8
I72
sg9
I0
sg10
I50
sg11
I0
sg12
I0
sa(dp1099
g2
I668
sg3
I97345
sg4
I0
sg5
I1
sg6
I0
sg7
I30493051
sg8
I16
sg9
I1
sg10
I122
sg11
I1
sg12
F1.0
sa(dp1100
g2
I505
sg3
I43044
sg4
I0
sg5
I28
sg6
I0
sg7
I598092
sg8
I235
sg9
I1
sg10
I94
sg11
I2
sg12
F14.0
sa(dp1101
g2
I153
sg3
I59089
sg4
I0
sg5
I2
sg6
I1
sg7
I2209781
sg8
I155
sg9
I1
sg10
I26
sg11
I2
sg12
F1.0
sa(dp1102
g2
I308
sg3
I107810
sg4
I0
sg5
I0
sg6
I1
sg7
I112713
sg8
I84
sg9
I2
sg10
I57
sg11
I0
sg12
I0
sa(dp1103
g2
I238
sg3
I35609
sg4
I0
sg5
I3
sg6
I0
sg7
I16940351
sg8
I191
sg9
I1
sg10
I40
sg11
I3
sg12
F1.0
sa(dp1104
g2
I1105
sg3
I37383
sg4
I0
sg5
I32
sg6
I0
sg7
I7934577
sg8
I216
sg9
I1
sg10
I182
sg11
I3
sg12
F10.666666666666666
sa(dp1105
g2
I80
sg3
I52129
sg4
I0
sg5
I0
sg6
I0
sg7
I2322384
sg8
I92
sg9
I2
sg10
I15
sg11
I0
sg12
I0
sa(dp1106
g2
I239
sg3
I60285
sg4
I0
sg5
I16
sg6
I0
sg7
I4935945
sg8
I211
sg9
I1
sg10
I37
sg11
I1
sg12
F16.0
sa(dp1107
g2
I424
sg3
I356424
sg4
I0
sg5
I1
sg6
I0
sg7
I8949265
sg8
I124
sg9
I1
sg10
I77
sg11
I1
sg12
F1.0
sa(dp1108
g2
I138
sg3
I225132
sg4
I0
sg5
I1
sg6
I0
sg7
I18265979
sg8
I183
sg9
I1
sg10
I25
sg11
I1
sg12
F1.0
sa(dp1109
g2
I335
sg3
I79683
sg4
I0
sg5
I3
sg6
I0
sg7
I10606260
sg8
I178
sg9
I2
sg10
I66
sg11
I1
sg12
F3.0
sa(dp1110
g2
I345
sg3
I112617
sg4
I0
sg5
I13
sg6
I1
sg7
I1978076
sg8
I140
sg9
I2
sg10
I64
sg11
I2
sg12
F6.5
sa(dp1111
g2
I78
sg3
I132830
sg4
I0
sg5
I0
sg6
I0
sg7
I869902
sg8
I174
sg9
I1
sg10
I17
sg11
I0
sg12
I0
sa(dp1112
g2
I492
sg3
I26253
sg4
I0
sg5
I31
sg6
I0
sg7
I233835
sg8
I131
sg9
I1
sg10
I85
sg11
I3
sg12
F10.333333333333334
sa(dp1113
g2
I235
sg3
I221731
sg4
I0
sg5
I5
sg6
I0
sg7
I740294
sg8
I137
sg9
I0
sg10
I48
sg11
I1
sg12
F5.0
sa(dp1114
g2
I444
sg3
I36180
sg4
I0
sg5
I0
sg6
I1
sg7
I881434
sg8
I82
sg9
I2
sg10
I77
sg11
I0
sg12
I0
sa(dp1115
g2
I284
sg3
I65179
sg4
I0
sg5
I0
sg6
I0
sg7
I16630836
sg8
I226
sg9
I1
sg10
I49
sg11
I0
sg12
I0
sa(dp1116
g2
I150
sg3
I120974
sg4
I0
sg5
I5
sg6
I0
sg7
I803632
sg8
I179
sg9
I1
sg10
I23
sg11
I2
sg12
F2.5
sa(dp1117
g2
I627
sg3
I75151
sg4
I0
sg5
I0
sg6
I0
sg7
I4341833
sg8
I65
sg9
I2
sg10
I109
sg11
I0
sg12
I0
sa(dp1118
g2
I75
sg3
I184427
sg4
I0
sg5
I0
sg6
I0
sg7
I2259387
sg8
I194
sg9
I1
sg10
I15
sg11
I0
sg12
I0
sa(dp1119
g2
I76
sg3
I98802
sg4
I0
sg5
I0
sg6
I0
sg7
I2507871
sg8
I136
sg9
I1
sg10
I16
sg11
I0
sg12
I0
sa(dp1120
g2
I111
sg3
I72477
sg4
I0
sg5
I3
sg6
I0
sg7
I369925
sg8
I205
sg9
I2
sg10
I19
sg11
I1
sg12
F3.0
sa(dp1121
g2
I339
sg3
I153671
sg4
I0
sg5
I0
sg6
I0
sg7
I1603138
sg8
I71
sg9
I1
sg10
I66
sg11
I0
sg12
I0
sa(dp1122
g2
I435
sg3
I203197
sg4
I0
sg5
I0
sg6
I0
sg7
I12468274
sg8
I172
sg9
I0
sg10
I77
sg11
I0
sg12
I0
sa(dp1123
g2
I423
sg3
I80243
sg4
I0
sg5
I4
sg6
I0
sg7
I2248987
sg8
I142
sg9
I1
sg10
I77
sg11
I2
sg12
F2.0
sa(dp1124
g2
I246
sg3
I79482
sg4
I0
sg5
I3
sg6
I0
sg7
I12229070
sg8
I170
sg9
I1
sg10
I47
sg11
I3
sg12
F1.0
sa(dp1125
g2
I243
sg3
I66956
sg4
I0
sg5
I0
sg6
I1
sg7
I33024979
sg8
I86
sg9
I2
sg10
I37
sg11
I0
sg12
I0
sa(dp1126
g2
I438
sg3
I41771
sg4
I0
sg5
I4
sg6
I0
sg7
I2829642
sg8
I109
sg9
I2
sg10
I75
sg11
I1
sg12
F4.0
sa(dp1127
g2
I125
sg3
I32767
sg4
I0
sg5
I0
sg6
I0
sg7
I931011
sg8
I128
sg9
I3
sg10
I24
sg11
I0
sg12
I0
sa(dp1128
g2
I578
sg3
I71880
sg4
I0
sg5
I18
sg6
I0
sg7
I902736
sg8
I110
sg9
I1
sg10
I102
sg11
I1
sg12
F18.0
sa(dp1129
g2
I268
sg3
I165222
sg4
I0
sg5
I0
sg6
I0
sg7
I252473
sg8
I96
sg9
I2
sg10
I40
sg11
I0
sg12
I0
sa(dp1130
g2
I825
sg3
I63112
sg4
I0
sg5
I0
sg6
I0
sg7
I4484312
sg8
I112
sg9
I3
sg10
I142
sg11
I0
sg12
I0
sa(dp1131
g2
I267
sg3
I58927
sg4
I0
sg5
I6
sg6
I1
sg7
I21968640
sg8
I75
sg9
I0
sg10
I43
sg11
I1
sg12
F6.0
sa(dp1132
g2
I119
sg3
I78748
sg4
I0
sg5
I2
sg6
I0
sg7
I2077944
sg8
I274
sg9
I0
sg10
I19
sg11
I2
sg12
F1.0
sa(dp1133
g2
I139
sg3
I283534
sg4
I0
sg5
I4
sg6
I0
sg7
I364769
sg8
I191
sg9
I1
sg10
I29
sg11
I1
sg12
F4.0
sa(dp1134
g2
I234
sg3
I356883
sg4
I0
sg5
I4
sg6
I0
sg7
I1876206
sg8
I197
sg9
I2
sg10
I38
sg11
I2
sg12
F2.0
sa(dp1135
g2
I212
sg3
I212279
sg4
I0
sg5
I21
sg6
I0
sg7
I9752970
sg8
I242
sg9
I0
sg10
I43
sg11
I1
sg12
F21.0
sa(dp1136
g2
I97
sg3
I97373
sg4
I0
sg5
I3
sg6
I0
sg7
I4308202
sg8
I150
sg9
I1
sg10
I14
sg11
I1
sg12
F3.0
sa(dp1137
g2
I738
sg3
I99090
sg4
I0
sg5
I0
sg6
I0
sg7
I2753385
sg8
I128
sg9
I5
sg10
I124
sg11
I0
sg12
I0
sa(dp1138
g2
I737
sg3
I94509
sg4
I0
sg5
I7
sg6
I0
sg7
I7244263
sg8
I238
sg9
I1
sg10
I130
sg11
I1
sg12
F7.0
sa(dp1139
g2
I317
sg3
I112523
sg4
I0
sg5
I0
sg6
I0
sg7
I2374662
sg8
I144
sg9
I1
sg10
I46
sg11
I0
sg12
I0
sa(dp1140
g2
I130
sg3
I85513
sg4
I0
sg5
I10
sg6
I0
sg7
I20461206
sg8
I202
sg9
I1
sg10
I23
sg11
I2
sg12
F5.0
sa(dp1141
g2
I777
sg3
I55182
sg4
I0
sg5
I2
sg6
I1
sg7
I2260745
sg8
I208
sg9
I1
sg10
I142
sg11
I2
sg12
F1.0
sa(dp1142
g2
I131
sg3
I44666
sg4
I0
sg5
I7
sg6
I0
sg7
I2951722
sg8
I196
sg9
I1
sg10
I23
sg11
I2
sg12
F3.5
sa(dp1143
g2
I155
sg3
I35218
sg4
I0
sg5
I1
sg6
I0
sg7
I2970891
sg8
I136
sg9
I2
sg10
I25
sg11
I1
sg12
F1.0
sa(dp1144
g2
I412
sg3
I134627
sg4
I0
sg5
I0
sg6
I0
sg7
I415338
sg8
I49
sg9
I1
sg10
I70
sg11
I0
sg12
I0
sa(dp1145
g2
I88
sg3
I42323
sg4
I0
sg5
I4
sg6
I0
sg7
I1285920
sg8
I200
sg9
I0
sg10
I17
sg11
I1
sg12
F4.0
sa(dp1146
g2
I199
sg3
I91071
sg4
I0
sg5
I7
sg6
I0
sg7
I8280500
sg8
I257
sg9
I0
sg10
I42
sg11
I1
sg12
F7.0
sa(dp1147
g2
I180
sg3
I143530
sg4
I0
sg5
I12
sg6
I0
sg7
I23177452
sg8
I239
sg9
I1
sg10
I32
sg11
I1
sg12
F12.0
sa(dp1148
g2
I365
sg3
I322027
sg4
I0
sg5
I9
sg6
I0
sg7
I20199213
sg8
I161
sg9
I0
sg10
I63
sg11
I2
sg12
F4.5
sa(dp1149
g2
I269
sg3
I65312
sg4
I0
sg5
I5
sg6
I0
sg7
I13646263
sg8
I223
sg9
I2
sg10
I50
sg11
I2
sg12
F2.5
sa(dp1150
g2
I571
sg3
I132023
sg4
I0
sg5
I9
sg6
I0
sg7
I11969014
sg8
I209
sg9
I0
sg10
I106
sg11
I2
sg12
F4.5
sa(dp1151
g2
I214
sg3
I141392
sg4
I0
sg5
I0
sg6
I0
sg7
I1000968
sg8
I105
sg9
I1
sg10
I40
sg11
I0
sg12
I0
sa(dp1152
g2
I167
sg3
I114317
sg4
I0
sg5
I4
sg6
I2
sg7
I9236970
sg8
I165
sg9
I1
sg10
I25
sg11
I1
sg12
F4.0
sa(dp1153
g2
I197
sg3
I5170
sg4
I0
sg5
I15
sg6
I0
sg7
I6074117
sg8
I92
sg9
I2
sg10
I37
sg11
I2
sg12
F7.5
sa(dp1154
g2
I2002
sg3
I24413
sg4
I0
sg5
I0
sg6
I3
sg7
I70271
sg8
I98
sg9
I7
sg10
I328
sg11
I0
sg12
I0
sa(dp1155
g2
I108
sg3
I154041
sg4
I0
sg5
I0
sg6
I0
sg7
I1181538
sg8
I215
sg9
I1
sg10
I18
sg11
I0
sg12
I0
sa(dp1156
g2
I274
sg3
I102068
sg4
I0
sg5
I16
sg6
I1
sg7
I1239252
sg8
I105
sg9
I1
sg10
I46
sg11
I2
sg12
F8.0
sa(dp1157
g2
I120
sg3
I32191
sg4
I0
sg5
I0
sg6
I0
sg7
I68817
sg8
I97
sg9
I1
sg10
I18
sg11
I0
sg12
I0
sa(dp1158
g2
I281
sg3
I92997
sg4
I0
sg5
I0
sg6
I0
sg7
I938800
sg8
I54
sg9
I1
sg10
I49
sg11
I0
sg12
I0
sa(dp1159
g2
I161
sg3
I145346
sg4
I0
sg5
I2
sg6
I0
sg7
I8528626
sg8
I195
sg9
I1
sg10
I38
sg11
I2
sg12
F1.0
sa(dp1160
g2
I171
sg3
I65873
sg4
I0
sg5
I1
sg6
I0
sg7
I2541814
sg8
I224
sg9
I1
sg10
I34
sg11
I1
sg12
F1.0
sa(dp1161
g2
I299
sg3
I71931
sg4
I0
sg5
I2
sg6
I0
sg7
I15411146
sg8
I243
sg9
I0
sg10
I57
sg11
I1
sg12
F2.0
sa(dp1162
g2
I144
sg3
I113512
sg4
I0
sg5
I2
sg6
I0
sg7
I3748071
sg8
I205
sg9
I2
sg10
I30
sg11
I1
sg12
F2.0
sa(dp1163
g2
I270
sg3
I200732
sg4
I0
sg5
I11
sg6
I0
sg7
I817296
sg8
I208
sg9
I0
sg10
I47
sg11
I1
sg12
F11.0
sa(dp1164
g2
I515
sg3
I42015
sg4
I0
sg5
I4
sg6
I0
sg7
I1190866
sg8
I233
sg9
I0
sg10
I99
sg11
I1
sg12
F4.0
sa(dp1165
g2
I240
sg3
I76946
sg4
I0
sg5
I0
sg6
I0
sg7
I5507373
sg8
I206
sg9
I1
sg10
I42
sg11
I0
sg12
I0
sa(dp1166
g2
I393
sg3
I69964
sg4
I0
sg5
I6
sg6
I1
sg7
I9856725
sg8
I143
sg9
I1
sg10
I83
sg11
I1
sg12
F6.0
sa(dp1167
g2
I160
sg3
I128327
sg4
I0
sg5
I0
sg6
I0
sg7
I13957915
sg8
I155
sg9
I1
sg10
I25
sg11
I0
sg12
I0
sa(dp1168
g2
I634
sg3
I82324
sg4
I0
sg5
I15
sg6
I0
sg7
I20049773
sg8
I222
sg9
I3
sg10
I115
sg11
I3
sg12
F5.0
sa(dp1169
g2
I147
sg3
I94698
sg4
I0
sg5
I5
sg6
I0
sg7
I4174955
sg8
I165
sg9
I1
sg10
I30
sg11
I1
sg12
F5.0
sa(dp1170
g2
I228
sg3
I112763
sg4
I0
sg5
I10
sg6
I1
sg7
I9056994
sg8
I268
sg9
I1
sg10
I31
sg11
I2
sg12
F5.0
sa(dp1171
g2
I217
sg3
I56670
sg4
I0
sg5
I0
sg6
I0
sg7
I32107024
sg8
I63
sg9
I1
sg10
I38
sg11
I0
sg12
I0
sa(dp1172
g2
I196
sg3
I81864
sg4
I0
sg5
I1
sg6
I0
sg7
I4033743
sg8
I139
sg9
I0
sg10
I34
sg11
I1
sg12
F1.0
sa(dp1173
g2
I142
sg3
I78438
sg4
I0
sg5
I4
sg6
I0
sg7
I1282954
sg8
I164
sg9
I3
sg10
I24
sg11
I1
sg12
F4.0
sa(dp1174
g2
I99
sg3
I35395
sg4
I0
sg5
I0
sg6
I0
sg7
I3862957
sg8
I147
sg9
I0
sg10
I17
sg11
I0
sg12
I0
sa(dp1175
g2
I1080
sg3
I25718
sg4
I0
sg5
I0
sg6
I1
sg7
I4769092
sg8
I135
sg9
I2
sg10
I194
sg11
I0
sg12
I0
sa(dp1176
g2
I356
sg3
I44465
sg4
I0
sg5
I2
sg6
I0
sg7
I4042861
sg8
I143
sg9
I1
sg10
I61
sg11
I2
sg12
F1.0
sa(dp1177
g2
I258
sg3
I151874
sg4
I0
sg5
I0
sg6
I0
sg7
I2252756
sg8
I44
sg9
I2
sg10
I53
sg11
I0
sg12
I0
sa(dp1178
g2
I206
sg3
I92108
sg4
I0
sg5
I1
sg6
I0
sg7
I16522194
sg8
I207
sg9
I1
sg10
I32
sg11
I1
sg12
F1.0
sa(dp1179
g2
I103
sg3
I84268
sg4
I0
sg5
I7
sg6
I0
sg7
I5389547
sg8
I143
sg9
I1
sg10
I18
sg11
I2
sg12
F3.5
sa(dp1180
g2
I374
sg3
I149371
sg4
I0
sg5
I2
sg6
I0
sg7
I13842286
sg8
I136
sg9
I1
sg10
I82
sg11
I2
sg12
F1.0
sa(dp1181
g2
I567
sg3
I315290
sg4
I0
sg5
I7
sg6
I0
sg7
I3545353
sg8
I145
sg9
I0
sg10
I114
sg11
I2
sg12
F3.5
sa(dp1182
g2
I518
sg3
I52722
sg4
I0
sg5
I11
sg6
I0
sg7
I5447119
sg8
I122
sg9
I1
sg10
I93
sg11
I3
sg12
F3.6666666666666665
sa(dp1183
g2
I315
sg3
I32866
sg4
I0
sg5
I0
sg6
I4
sg7
I3571946
sg8
I86
sg9
I1
sg10
I59
sg11
I0
sg12
I0
sa(dp1184
g2
I411
sg3
I96541
sg4
I0
sg5
I0
sg6
I0
sg7
I298793
sg8
I165
sg9
I1
sg10
I72
sg11
I0
sg12
I0
sa(dp1185
g2
I92
sg3
I142268
sg4
I0
sg5
I0
sg6
I0
sg7
I1995397
sg8
I199
sg9
I1
sg10
I19
sg11
I0
sg12
I0
sa(dp1186
g2
I159
sg3
I102658
sg4
I0
sg5
I5
sg6
I0
sg7
I285076
sg8
I171
sg9
I2
sg10
I34
sg11
I1
sg12
F5.0
sa(dp1187
g2
I436
sg3
I17812
sg4
I0
sg5
I0
sg6
I4
sg7
I590412
sg8
I144
sg9
I3
sg10
I72
sg11
I0
sg12
I0
sa(dp1188
g2
I1128
sg3
I64250
sg4
I1
sg5
I11
sg6
I4
sg7
I10154763
sg8
I147
sg9
I2
sg10
I189
sg11
I1
sg12
F11.0
sa(dp1189
g2
I384
sg3
I60833
sg4
I0
sg5
I4
sg6
I0
sg7
I4912856
sg8
I146
sg9
I2
sg10
I66
sg11
I2
sg12
F2.0
sa(dp1190
g2
I33
sg3
I58510
sg4
I0
sg5
I2
sg6
I0
sg7
I8908798
sg8
I122
sg9
I1
sg10
I5
sg11
I2
sg12
F1.0
sa(dp1191
g2
I406
sg3
I95468
sg4
I0
sg5
I44
sg6
I0
sg7
I432403
sg8
I84
sg9
I1
sg10
I71
sg11
I2
sg12
F22.0
sa(dp1192
g2
I1995
sg3
I10437
sg4
I2
sg5
I0
sg6
I7
sg7
I4543848
sg8
I118
sg9
I0
sg10
I331
sg11
I0
sg12
I0
sa(dp1193
g2
I669
sg3
I53604
sg4
I0
sg5
I2
sg6
I0
sg7
I12987916
sg8
I114
sg9
I2
sg10
I118
sg11
I2
sg12
F1.0
sa(dp1194
g2
I235
sg3
I126869
sg4
I0
sg5
I11
sg6
I0
sg7
I1306653
sg8
I112
sg9
I1
sg10
I44
sg11
I1
sg12
F11.0
sa(dp1195
g2
I75
sg3
I179273
sg4
I0
sg5
I5
sg6
I0
sg7
I4499172
sg8
I111
sg9
I1
sg10
I13
sg11
I2
sg12
F2.5
sa(dp1196
g2
I349
sg3
I260204
sg4
I0
sg5
I1
sg6
I0
sg7
I4667014
sg8
I219
sg9
I1
sg10
I61
sg11
I1
sg12
F1.0
sa(dp1197
g2
I155
sg3
I115355
sg4
I0
sg5
I4
sg6
I0
sg7
I28568118
sg8
I143
sg9
I1
sg10
I29
sg11
I3
sg12
F1.3333333333333333
sa(dp1198
g2
I423
sg3
I97805
sg4
I0
sg5
I16
sg6
I1
sg7
I1355444
sg8
I194
sg9
I1
sg10
I80
sg11
I2
sg12
F8.0
sa(dp1199
g2
I63
sg3
I138046
sg4
I0
sg5
I0
sg6
I0
sg7
I2189814
sg8
I135
sg9
I1
sg10
I12
sg11
I0
sg12
I0
sa(dp1200
g2
I284
sg3
I39669
sg4
I0
sg5
I10
sg6
I0
sg7
I16973510
sg8
I98
sg9
I0
sg10
I61
sg11
I1
sg12
F10.0
sa(dp1201
g2
I503
sg3
I47091
sg4
I0
sg5
I2
sg6
I1
sg7
I34243720
sg8
I180
sg9
I3
sg10
I101
sg11
I1
sg12
F2.0
sa(dp1202
g2
I106
sg3
I121901
sg4
I0
sg5
I0
sg6
I0
sg7
I464977
sg8
I203
sg9
I1
sg10
I20
sg11
I0
sg12
I0
sa(dp1203
g2
I339
sg3
I91142
sg4
I0
sg5
I0
sg6
I0
sg7
I756083
sg8
I119
sg9
I1
sg10
I56
sg11
I0
sg12
I0
sa(dp1204
g2
I187
sg3
I254637
sg4
I0
sg5
I2
sg6
I0
sg7
I10487303
sg8
I220
sg9
I1
sg10
I39
sg11
I2
sg12
F1.0
sa(dp1205
g2
I1030
sg3
I134988
sg4
I0
sg5
I2
sg6
I0
sg7
I4771733
sg8
I195
sg9
I3
sg10
I190
sg11
I2
sg12
F1.0
sa(dp1206
g2
I277
sg3
I39448
sg4
I0
sg5
I6
sg6
I0
sg7
I6628642
sg8
I110
sg9
I1
sg10
I47
sg11
I3
sg12
F2.0
sa(dp1207
g2
I1093
sg3
I122499
sg4
I0
sg5
I0
sg6
I0
sg7
I1213795
sg8
I130
sg9
I3
sg10
I186
sg11
I0
sg12
I0
sa(dp1208
g2
I512
sg3
I117566
sg4
I0
sg5
I2
sg6
I0
sg7
I3823822
sg8
I167
sg9
I1
sg10
I89
sg11
I3
sg12
F0.6666666666666666
sa(dp1209
g2
I463
sg3
I109959
sg4
I0
sg5
I4
sg6
I0
sg7
I1270970
sg8
I155
sg9
I3
sg10
I76
sg11
I3
sg12
F1.3333333333333333
sa(dp1210
g2
I216
sg3
I72490
sg4
I0
sg5
I1
sg6
I0
sg7
I1685166
sg8
I154
sg9
I3
sg10
I41
sg11
I1
sg12
F1.0
sa(dp1211
g2
I164
sg3
I87580
sg4
I0
sg5
I0
sg6
I1
sg7
I436299
sg8
I108
sg9
I1
sg10
I32
sg11
I0
sg12
I0
sa(dp1212
g2
I594
sg3
I30763
sg4
I0
sg5
I0
sg6
I4
sg7
I769199
sg8
I54
sg9
I0
sg10
I102
sg11
I0
sg12
I0
sa(dp1213
g2
I476
sg3
I82947
sg4
I0
sg5
I0
sg6
I1
sg7
I3422740
sg8
I112
sg9
I0
sg10
I86
sg11
I0
sg12
I0
sa(dp1214
g2
I110
sg3
I20795
sg4
I0
sg5
I0
sg6
I0
sg7
I6190500
sg8
I60
sg9
I1
sg10
I22
sg11
I0
sg12
I0
sa(dp1215
g2
I1855
sg3
I30938
sg4
I0
sg5
I0
sg6
I15
sg7
I667800
sg8
I40
sg9
I1
sg10
I296
sg11
I0
sg12
I0
sa(dp1216
g2
I1288
sg3
I73748
sg4
I0
sg5
I23
sg6
I0
sg7
I651718
sg8
I35
sg9
I2
sg10
I235
sg11
I2
sg12
F11.5
sa(dp1217
g2
I364
sg3
I62656
sg4
I0
sg5
I7
sg6
I0
sg7
I873333
sg8
I297
sg9
I1
sg10
I63
sg11
I1
sg12
F7.0
sa(dp1218
g2
I57
sg3
I120727
sg4
I0
sg5
I29
sg6
I0
sg7
I14087705
sg8
I97
sg9
I1
sg10
I13
sg11
I1
sg12
F29.0
sa(dp1219
g2
I108
sg3
I61993
sg4
I0
sg5
I0
sg6
I0
sg7
I26910
sg8
I98
sg9
I1
sg10
I15
sg11
I0
sg12
I0
sa(dp1220
g2
I1023
sg3
I35619
sg4
I0
sg5
I0
sg6
I3
sg7
I3098182
sg8
I149
sg9
I3
sg10
I194
sg11
I0
sg12
I0
sa(dp1221
g2
I398
sg3
I122217
sg4
I0
sg5
I0
sg6
I0
sg7
I2461029
sg8
I120
sg9
I1
sg10
I73
sg11
I0
sg12
I0
sa(dp1222
g2
I652
sg3
I77593
sg4
I0
sg5
I53
sg6
I1
sg7
I2110394
sg8
I6
sg9
I1
sg10
I91
sg11
I6
sg12
F8.833333333333334
sa(dp1223
g2
I800
sg3
I38108
sg4
I0
sg5
I21
sg6
I2
sg7
I4828831
sg8
I69
sg9
I2
sg10
I150
sg11
I1
sg12
F21.0
sa(dp1224
g2
I509
sg3
I23748
sg4
I0
sg5
I6
sg6
I1
sg7
I3038096
sg8
I69
sg9
I2
sg10
I77
sg11
I2
sg12
F3.0
sa(dp1225
g2
I575
sg3
I269462
sg4
I0
sg5
I20
sg6
I1
sg7
I13786327
sg8
I96
sg9
I0
sg10
I105
sg11
I1
sg12
F20.0
sa(dp1226
g2
I129
sg3
I117845
sg4
I0
sg5
I2
sg6
I0
sg7
I8489498
sg8
I72
sg9
I1
sg10
I27
sg11
I2
sg12
F1.0
sa(dp1227
g2
I164
sg3
I160749
sg4
I0
sg5
I0
sg6
I0
sg7
I2084521
sg8
I58
sg9
I1
sg10
I29
sg11
I0
sg12
I0
sa(dp1228
g2
I102
sg3
I88271
sg4
I0
sg5
I0
sg6
I0
sg7
I320951
sg8
I149
sg9
I1
sg10
I16
sg11
I0
sg12
I0
sa(dp1229
g2
I241
sg3
I106130
sg4
I0
sg5
I0
sg6
I0
sg7
I3168436
sg8
I172
sg9
I3
sg10
I44
sg11
I0
sg12
I0
sa(dp1230
g2
I188
sg3
I56176
sg4
I0
sg5
I2
sg6
I1
sg7
I595409
sg8
I154
sg9
I0
sg10
I30
sg11
I2
sg12
F1.0
sa(dp1231
g2
I653
sg3
I130011
sg4
I0
sg5
I4
sg6
I0
sg7
I10677896
sg8
I130
sg9
I2
sg10
I119
sg11
I3
sg12
F1.3333333333333333
sa(dp1232
g2
I322
sg3
I55082
sg4
I0
sg5
I11
sg6
I0
sg7
I6035864
sg8
I175
sg9
I1
sg10
I50
sg11
I3
sg12
F3.6666666666666665
sa(dp1233
g2
I309
sg3
I27989
sg4
I0
sg5
I0
sg6
I0
sg7
I6590783
sg8
I124
sg9
I1
sg10
I57
sg11
I0
sg12
I0
sa(dp1234
g2
I307
sg3
I23803
sg4
I0
sg5
I0
sg6
I0
sg7
I1294402
sg8
I109
sg9
I1
sg10
I54
sg11
I0
sg12
I0
sa(dp1235
g2
I405
sg3
I258181
sg4
I0
sg5
I2
sg6
I0
sg7
I2582183
sg8
I118
sg9
I1
sg10
I77
sg11
I2
sg12
F1.0
sa(dp1236
g2
I288
sg3
I99613
sg4
I0
sg5
I6
sg6
I0
sg7
I3371274
sg8
I226
sg9
I1
sg10
I58
sg11
I3
sg12
F2.0
sa(dp1237
g2
I175
sg3
I102631
sg4
I0
sg5
I1
sg6
I0
sg7
I646654
sg8
I218
sg9
I0
sg10
I40
sg11
I1
sg12
F1.0
sa(dp1238
g2
I220
sg3
I81439
sg4
I0
sg5
I0
sg6
I0
sg7
I1712127
sg8
I168
sg9
I0
sg10
I35
sg11
I0
sg12
I0
sa(dp1239
g2
I122
sg3
I30223
sg4
I0
sg5
I7
sg6
I0
sg7
I2217005
sg8
I145
sg9
I0
sg10
I24
sg11
I1
sg12
F7.0
sa(dp1240
g2
I340
sg3
I32607
sg4
I0
sg5
I14
sg6
I0
sg7
I1073582
sg8
I180
sg9
I0
sg10
I58
sg11
I4
sg12
F3.5
sa(dp1241
g2
I242
sg3
I265547
sg4
I0
sg5
I2
sg6
I0
sg7
I2972226
sg8
I169
sg9
I2
sg10
I38
sg11
I2
sg12
F1.0
sa(dp1242
g2
I259
sg3
I7856
sg4
I0
sg5
I6
sg6
I1
sg7
I37313614
sg8
I80
sg9
I0
sg10
I46
sg11
I2
sg12
F3.0
sa(dp1243
g2
I336
sg3
I100090
sg4
I0
sg5
I35
sg6
I0
sg7
I15556596
sg8
I191
sg9
I2
sg10
I58
sg11
I2
sg12
F17.5
sa(dp1244
g2
I1035
sg3
I21898
sg4
I0
sg5
I0
sg6
I0
sg7
I41644981
sg8
I1
sg9
I4
sg10
I167
sg11
I0
sg12
I0
sa(dp1245
g2
I270
sg3
I27792
sg4
I0
sg5
I12
sg6
I0
sg7
I5975555
sg8
I167
sg9
I0
sg10
I46
sg11
I2
sg12
F6.0
sa(dp1246
g2
I102
sg3
I75363
sg4
I0
sg5
I1
sg6
I0
sg7
I2464968
sg8
I63
sg9
I2
sg10
I17
sg11
I1
sg12
F1.0
sa(dp1247
g2
I194
sg3
I275804
sg4
I0
sg5
I15
sg6
I0
sg7
I20449433
sg8
I122
sg9
I1
sg10
I40
sg11
I1
sg12
F15.0
sa(dp1248
g2
I1
sg3
I58197
sg4
I0
sg5
I11
sg6
I0
sg7
I5125636
sg8
I42
sg9
I0
sg10
I0
sg11
I1
sg12
F11.0
sa(dp1249
g2
I119
sg3
I158483
sg4
I0
sg5
I0
sg6
I0
sg7
I5843560
sg8
I182
sg9
I0
sg10
I20
sg11
I0
sg12
I0
sa(dp1250
g2
I299
sg3
I118901
sg4
I0
sg5
I5
sg6
I0
sg7
I3368991
sg8
I93
sg9
I2
sg10
I50
sg11
I1
sg12
F5.0
sa(dp1251
g2
I1
sg3
I42512
sg4
I0
sg5
I3
sg6
I0
sg7
I1979107
sg8
I274
sg9
I0
sg10
I0
sg11
I1
sg12
F3.0
sa(dp1252
g2
I351
sg3
I105939
sg4
I0
sg5
I9
sg6
I0
sg7
I16807050
sg8
I144
sg9
I3
sg10
I74
sg11
I1
sg12
F9.0
sa(dp1253
g2
I483
sg3
I170573
sg4
I0
sg5
I0
sg6
I0
sg7
I11405769
sg8
I152
sg9
I2
sg10
I86
sg11
I0
sg12
I0
sa(dp1254
g2
I494
sg3
I50989
sg4
I0
sg5
I0
sg6
I0
sg7
I668327
sg8
I171
sg9
I0
sg10
I90
sg11
I0
sg12
I0
sa(dp1255
g2
I228
sg3
I92829
sg4
I0
sg5
I2
sg6
I0
sg7
I17351115
sg8
I240
sg9
I2
sg10
I44
sg11
I2
sg12
F1.0
sa(dp1256
g2
I263
sg3
I48113
sg4
I0
sg5
I1
sg6
I1
sg7
I798893
sg8
I206
sg9
I0
sg10
I46
sg11
I1
sg12
F1.0
sa(dp1257
g2
I335
sg3
I113057
sg4
I0
sg5
I3
sg6
I0
sg7
I7534680
sg8
I131
sg9
I0
sg10
I49
sg11
I2
sg12
F1.5
sa(dp1258
g2
I55
sg3
I42687
sg4
I0
sg5
I0
sg6
I0
sg7
I2611897
sg8
I126
sg9
I1
sg10
I11
sg11
I0
sg12
I0
sa(dp1259
g2
I195
sg3
I3700
sg4
I0
sg5
I8
sg6
I0
sg7
I12660938
sg8
I123
sg9
I2
sg10
I33
sg11
I1
sg12
F8.0
sa(dp1260
g2
I428
sg3
I11045
sg4
I0
sg5
I5
sg6
I0
sg7
I34287999
sg8
I140
sg9
I1
sg10
I71
sg11
I2
sg12
F2.5
sa(dp1261
g2
I307
sg3
I63225
sg4
I0
sg5
I5
sg6
I0
sg7
I6610783
sg8
I62
sg9
I2
sg10
I48
sg11
I2
sg12
F2.5
sa(dp1262
g2
I756
sg3
I18088
sg4
I0
sg5
I0
sg6
I0
sg7
I8811418
sg8
I137
sg9
I1
sg10
I135
sg11
I0
sg12
I0
sa(dp1263
g2
I231
sg3
I41615
sg4
I0
sg5
I0
sg6
I0
sg7
I11471777
sg8
I97
sg9
I3
sg10
I35
sg11
I0
sg12
I0
sa(dp1264
g2
I2041
sg3
I5865
sg4
I0
sg5
I230
sg6
I1
sg7
I7141163
sg8
I4
sg9
I1
sg10
I330
sg11
I6
sg12
F38.333333333333336
sa(dp1265
g2
I178
sg3
I107475
sg4
I0
sg5
I6
sg6
I0
sg7
I3391105
sg8
I30
sg9
I3
sg10
I31
sg11
I1
sg12
F6.0
sa(dp1266
g2
I121
sg3
I83390
sg4
I0
sg5
I4
sg6
I0
sg7
I2627022
sg8
I41
sg9
I0
sg10
I23
sg11
I2
sg12
F2.0
sa(dp1267
g2
I181
sg3
I88648
sg4
I0
sg5
I7
sg6
I0
sg7
I18713344
sg8
I201
sg9
I1
sg10
I31
sg11
I2
sg12
F3.5
sa(dp1268
g2
I385
sg3
I97968
sg4
I0
sg5
I0
sg6
I0
sg7
I3041990
sg8
I143
sg9
I1
sg10
I70
sg11
I0
sg12
I0
sa(dp1269
g2
I439
sg3
I91773
sg4
I0
sg5
I0
sg6
I0
sg7
I3935002
sg8
I170
sg9
I0
sg10
I73
sg11
I0
sg12
I0
sa(dp1270
g2
I265
sg3
I83828
sg4
I0
sg5
I41
sg6
I0
sg7
I1960546
sg8
I90
sg9
I1
sg10
I43
sg11
I2
sg12
F20.5
sa(dp1271
g2
I373
sg3
I223956
sg4
I0
sg5
I0
sg6
I1
sg7
I15626784
sg8
I132
sg9
I1
sg10
I58
sg11
I0
sg12
I0
sa(dp1272
g2
I568
sg3
I122141
sg4
I0
sg5
I0
sg6
I0
sg7
I3160819
sg8
I100
sg9
I3
sg10
I114
sg11
I0
sg12
I0
sa(dp1273
g2
I151
sg3
I156438
sg4
I0
sg5
I0
sg6
I0
sg7
I10624968
sg8
I189
sg9
I0
sg10
I35
sg11
I0
sg12
I0
sa(dp1274
g2
I185
sg3
I49662
sg4
I0
sg5
I6
sg6
I0
sg7
I18351977
sg8
I218
sg9
I2
sg10
I34
sg11
I1
sg12
F6.0
sa(dp1275
g2
I93
sg3
I54737
sg4
I0
sg5
I1
sg6
I0
sg7
I3554380
sg8
I180
sg9
I1
sg10
I14
sg11
I1
sg12
F1.0
sa(dp1276
g2
I321
sg3
I56840
sg4
I0
sg5
I9
sg6
I0
sg7
I866311
sg8
I60
sg9
I1
sg10
I54
sg11
I2
sg12
F4.5
sa(dp1277
g2
I191
sg3
I46607
sg4
I0
sg5
I8
sg6
I0
sg7
I3235418
sg8
I166
sg9
I2
sg10
I42
sg11
I1
sg12
F8.0
sa(dp1278
g2
I431
sg3
I65788
sg4
I0
sg5
I1
sg6
I0
sg7
I1262961
sg8
I205
sg9
I1
sg10
I92
sg11
I1
sg12
F1.0
sa(dp1279
g2
I1283
sg3
I19528
sg4
I0
sg5
I8
sg6
I0
sg7
I2228821
sg8
I193
sg9
I1
sg10
I227
sg11
I1
sg12
F8.0
sa(dp1280
g2
I45
sg3
I140598
sg4
I0
sg5
I0
sg6
I0
sg7
I3777308
sg8
I127
sg9
I1
sg10
I8
sg11
I0
sg12
I0
sa(dp1281
g2
I512
sg3
I31295
sg4
I0
sg5
I0
sg6
I1
sg7
I8960727
sg8
I100
sg9
I6
sg10
I98
sg11
I0
sg12
I0
sa(dp1282
g2
I462
sg3
I120006
sg4
I0
sg5
I0
sg6
I5
sg7
I1793052
sg8
I35
sg9
I1
sg10
I88
sg11
I0
sg12
I0
sa(dp1283
g2
I95
sg3
I14119
sg4
I0
sg5
I2
sg6
I1
sg7
I9885287
sg8
I100
sg9
I1
sg10
I15
sg11
I1
sg12
F2.0
sa(dp1284
g2
I388
sg3
I154472
sg4
I0
sg5
I5
sg6
I0
sg7
I6579139
sg8
I89
sg9
I2
sg10
I72
sg11
I1
sg12
F5.0
sa(dp1285
g2
I877
sg3
I75442
sg4
I0
sg5
I16
sg6
I0
sg7
I2830127
sg8
I69
sg9
I0
sg10
I164
sg11
I2
sg12
F8.0
sa(dp1286
g2
I176
sg3
I90426
sg4
I0
sg5
I3
sg6
I0
sg7
I12998531
sg8
I188
sg9
I1
sg10
I34
sg11
I1
sg12
F3.0
sa(dp1287
g2
I339
sg3
I44671
sg4
I0
sg5
I2
sg6
I0
sg7
I1121068
sg8
I173
sg9
I0
sg10
I57
sg11
I1
sg12
F2.0
sa(dp1288
g2
I134
sg3
I47118
sg4
I0
sg5
I0
sg6
I0
sg7
I3164163
sg8
I108
sg9
I1
sg10
I26
sg11
I0
sg12
I0
sa(dp1289
g2
I591
sg3
I182507
sg4
I0
sg5
I18
sg6
I2
sg7
I1185557
sg8
I200
sg9
I1
sg10
I109
sg11
I2
sg12
F9.0
sa(dp1290
g2
I171
sg3
I33389
sg4
I0
sg5
I17
sg6
I0
sg7
I310785
sg8
I193
sg9
I1
sg10
I29
sg11
I2
sg12
F8.5
sa(dp1291
g2
I464
sg3
I97184
sg4
I0
sg5
I0
sg6
I1
sg7
I21034906
sg8
I144
sg9
I1
sg10
I81
sg11
I0
sg12
I0
sa(dp1292
g2
I340
sg3
I45148
sg4
I0
sg5
I1
sg6
I1
sg7
I7681815
sg8
I164
sg9
I2
sg10
I67
sg11
I1
sg12
F1.0
sa(dp1293
g2
I102
sg3
I83484
sg4
I0
sg5
I3
sg6
I0
sg7
I3828742
sg8
I97
sg9
I1
sg10
I21
sg11
I1
sg12
F3.0
sa(dp1294
g2
I37
sg3
I55719
sg4
I0
sg5
I6
sg6
I0
sg7
I1802980
sg8
I102
sg9
I1
sg10
I5
sg11
I1
sg12
F6.0
sa(dp1295
g2
I86
sg3
I83971
sg4
I0
sg5
I5
sg6
I0
sg7
I6486513
sg8
I104
sg9
I1
sg10
I13
sg11
I1
sg12
F5.0
sa(dp1296
g2
I388
sg3
I54581
sg4
I0
sg5
I22
sg6
I0
sg7
I3679747
sg8
I113
sg9
I0
sg10
I66
sg11
I1
sg12
F22.0
sa(dp1297
g2
I117
sg3
I112011
sg4
I0
sg5
I7
sg6
I0
sg7
I3428637
sg8
I152
sg9
I1
sg10
I21
sg11
I1
sg12
F7.0
sa(dp1298
g2
I349
sg3
I72811
sg4
I0
sg5
I0
sg6
I0
sg7
I1960649
sg8
I88
sg9
I1
sg10
I67
sg11
I0
sg12
I0
sa(dp1299
g2
I166
sg3
I52712
sg4
I0
sg5
I3
sg6
I0
sg7
I34632233
sg8
I28
sg9
I1
sg10
I28
sg11
I3
sg12
F1.0
sa(dp1300
g2
I179
sg3
I49048
sg4
I0
sg5
I0
sg6
I0
sg7
I6824868
sg8
I155
sg9
I1
sg10
I36
sg11
I0
sg12
I0
sa(dp1301
g2
I668
sg3
I75489
sg4
I0
sg5
I56
sg6
I0
sg7
I13784887
sg8
I154
sg9
I0
sg10
I123
sg11
I1
sg12
F56.0
sa(dp1302
g2
I312
sg3
I41338
sg4
I0
sg5
I0
sg6
I1
sg7
I121671
sg8
I84
sg9
I1
sg10
I56
sg11
I0
sg12
I0
sa(dp1303
g2
I102
sg3
I63287
sg4
I0
sg5
I1
sg6
I0
sg7
I8603129
sg8
I133
sg9
I0
sg10
I17
sg11
I1
sg12
F1.0
sa(dp1304
g2
I206
sg3
I170690
sg4
I0
sg5
I0
sg6
I0
sg7
I9383764
sg8
I109
sg9
I2
sg10
I41
sg11
I0
sg12
I0
sa(dp1305
g2
I129
sg3
I90659
sg4
I0
sg5
I4
sg6
I0
sg7
I4932473
sg8
I151
sg9
I1
sg10
I17
sg11
I2
sg12
F2.0
sa(dp1306
g2
I431
sg3
I52378
sg4
I0
sg5
I2
sg6
I0
sg7
I3172488
sg8
I85
sg9
I0
sg10
I80
sg11
I2
sg12
F1.0
sa(dp1307
g2
I208
sg3
I100301
sg4
I0
sg5
I0
sg6
I3
sg7
I4301979
sg8
I49
sg9
I1
sg10
I33
sg11
I0
sg12
I0
sa(dp1308
g2
I89
sg3
I6674
sg4
I0
sg5
I3
sg6
I0
sg7
I34756226
sg8
I123
sg9
I1
sg10
I10
sg11
I2
sg12
F1.5
sa(dp1309
g2
I130
sg3
I144313
sg4
I0
sg5
I20
sg6
I0
sg7
I4690655
sg8
I147
sg9
I0
sg10
I25
sg11
I1
sg12
F20.0
sa(dp1310
g2
I773
sg3
I34100
sg4
I0
sg5
I0
sg6
I1
sg7
I4295743
sg8
I169
sg9
I3
sg10
I140
sg11
I0
sg12
I0
sa(dp1311
g2
I150
sg3
I101163
sg4
I0
sg5
I16
sg6
I1
sg7
I741884
sg8
I92
sg9
I1
sg10
I26
sg11
I1
sg12
F16.0
sa(dp1312
g2
I54
sg3
I149008
sg4
I0
sg5
I1
sg6
I0
sg7
I9637908
sg8
I166
sg9
I1
sg10
I10
sg11
I1
sg12
F1.0
sa(dp1313
g2
I90
sg3
I79732
sg4
I0
sg5
I4
sg6
I0
sg7
I16511493
sg8
I231
sg9
I3
sg10
I17
sg11
I1
sg12
F4.0
sa(dp1314
g2
I134
sg3
I29023
sg4
I0
sg5
I0
sg6
I0
sg7
I6259981
sg8
I202
sg9
I1
sg10
I22
sg11
I0
sg12
I0
sa(dp1315
g2
I601
sg3
I60907
sg4
I0
sg5
I2
sg6
I0
sg7
I1325587
sg8
I135
sg9
I2
sg10
I100
sg11
I1
sg12
F2.0
sa(dp1316
g2
I387
sg3
I86945
sg4
I0
sg5
I0
sg6
I0
sg7
I5826283
sg8
I64
sg9
I0
sg10
I72
sg11
I0
sg12
I0
sa(dp1317
g2
I358
sg3
I43792
sg4
I0
sg5
I0
sg6
I1
sg7
I2793525
sg8
I52
sg9
I2
sg10
I59
sg11
I0
sg12
I0
sa(dp1318
g2
I782
sg3
I53288
sg4
I0
sg5
I0
sg6
I1
sg7
I17001474
sg8
I149
sg9
I2
sg10
I146
sg11
I0
sg12
I0
sa(dp1319
g2
I416
sg3
I131477
sg4
I0
sg5
I7
sg6
I0
sg7
I9295472
sg8
I134
sg9
I1
sg10
I69
sg11
I1
sg12
F7.0
sa(dp1320
g2
I443
sg3
I68501
sg4
I0
sg5
I12
sg6
I0
sg7
I6388237
sg8
I132
sg9
I1
sg10
I83
sg11
I3
sg12
F4.0
sa(dp1321
g2
I278
sg3
I28531
sg4
I0
sg5
I0
sg6
I0
sg7
I245208
sg8
I96
sg9
I3
sg10
I46
sg11
I0
sg12
I0
sa(dp1322
g2
I106
sg3
I106204
sg4
I0
sg5
I7
sg6
I0
sg7
I2241904
sg8
I189
sg9
I1
sg10
I20
sg11
I3
sg12
F2.3333333333333335
sa(dp1323
g2
I213
sg3
I52823
sg4
I0
sg5
I8
sg6
I0
sg7
I3191811
sg8
I147
sg9
I1
sg10
I32
sg11
I3
sg12
F2.6666666666666665
sa(dp1324
g2
I242
sg3
I135997
sg4
I0
sg5
I20
sg6
I0
sg7
I5658439
sg8
I214
sg9
I0
sg10
I44
sg11
I4
sg12
F5.0
sa(dp1325
g2
I200
sg3
I104798
sg4
I0
sg5
I1
sg6
I0
sg7
I4880971
sg8
I193
sg9
I0
sg10
I36
sg11
I1
sg12
F1.0
sa(dp1326
g2
I255
sg3
I75023
sg4
I0
sg5
I4
sg6
I1
sg7
I16096769
sg8
I157
sg9
I1
sg10
I48
sg11
I4
sg12
F1.0
sa(dp1327
g2
I117
sg3
I44591
sg4
I0
sg5
I0
sg6
I0
sg7
I3280732
sg8
I204
sg9
I0
sg10
I22
sg11
I0
sg12
I0
sa(dp1328
g2
I464
sg3
I23028
sg4
I0
sg5
I3
sg6
I0
sg7
I5255760
sg8
I147
sg9
I1
sg10
I78
sg11
I2
sg12
F1.5
sa(dp1329
g2
I269
sg3
I82141
sg4
I0
sg5
I4
sg6
I1
sg7
I12517490
sg8
I196
sg9
I2
sg10
I45
sg11
I1
sg12
F4.0
sa(dp1330
g2
I232
sg3
I95661
sg4
I0
sg5
I0
sg6
I0
sg7
I9189193
sg8
I194
sg9
I1
sg10
I41
sg11
I0
sg12
I0
sa(dp1331
g2
I430
sg3
I44268
sg4
I0
sg5
I0
sg6
I1
sg7
I3481388
sg8
I130
sg9
I1
sg10
I68
sg11
I0
sg12
I0
sa(dp1332
g2
I529
sg3
I41656
sg4
I0
sg5
I0
sg6
I2
sg7
I840596
sg8
I98
sg9
I1
sg10
I90
sg11
I0
sg12
I0
sa(dp1333
g2
I128
sg3
I80307
sg4
I0
sg5
I0
sg6
I1
sg7
I356238
sg8
I130
sg9
I2
sg10
I20
sg11
I0
sg12
I0
sa(dp1334
g2
I406
sg3
I58500
sg4
I0
sg5
I3
sg6
I0
sg7
I6242813
sg8
I160
sg9
I3
sg10
I78
sg11
I1
sg12
F3.0
sa(dp1335
g2
I242
sg3
I3465
sg4
I0
sg5
I4
sg6
I0
sg7
I30147179
sg8
I125
sg9
I1
sg10
I41
sg11
I4
sg12
F1.0
sa(dp1336
g2
I363
sg3
I44756
sg4
I0
sg5
I13
sg6
I0
sg7
I1918581
sg8
I98
sg9
I2
sg10
I62
sg11
I3
sg12
F4.333333333333333
sa(dp1337
g2
I98
sg3
I102194
sg4
I0
sg5
I2
sg6
I0
sg7
I2872519
sg8
I198
sg9
I1
sg10
I17
sg11
I1
sg12
F2.0
sa(dp1338
g2
I301
sg3
I97118
sg4
I0
sg5
I9
sg6
I2
sg7
I3020756
sg8
I155
sg9
I0
sg10
I54
sg11
I1
sg12
F9.0
sa(dp1339
g2
I149
sg3
I71193
sg4
I0
sg5
I3
sg6
I0
sg7
I2548531
sg8
I128
sg9
I1
sg10
I28
sg11
I2
sg12
F1.5
sa(dp1340
g2
I252
sg3
I188680
sg4
I0
sg5
I0
sg6
I1
sg7
I2668139
sg8
I66
sg9
I0
sg10
I51
sg11
I0
sg12
I0
sa(dp1341
g2
I422
sg3
I133667
sg4
I0
sg5
I3
sg6
I3
sg7
I474543
sg8
I108
sg9
I1
sg10
I74
sg11
I1
sg12
F3.0
sa(dp1342
g2
I131
sg3
I44372
sg4
I0
sg5
I6
sg6
I0
sg7
I9484008
sg8
I165
sg9
I1
sg10
I21
sg11
I2
sg12
F3.0
sa(dp1343
g2
I203
sg3
I78204
sg4
I0
sg5
I0
sg6
I0
sg7
I114831
sg8
I149
sg9
I2
sg10
I38
sg11
I0
sg12
I0
sa(dp1344
g2
I163
sg3
I162923
sg4
I0
sg5
I19
sg6
I0
sg7
I4473245
sg8
I131
sg9
I2
sg10
I27
sg11
I3
sg12
F6.333333333333333
sa(dp1345
g2
I179
sg3
I200721
sg4
I0
sg5
I0
sg6
I0
sg7
I8248430
sg8
I149
sg9
I1
sg10
I36
sg11
I0
sg12
I0
sa(dp1346
g2
I225
sg3
I478713
sg4
I0
sg5
I0
sg6
I0
sg7
I11497391
sg8
I134
sg9
I2
sg10
I40
sg11
I0
sg12
I0
sa(dp1347
g2
I281
sg3
I4347
sg4
I0
sg5
I9
sg6
I0
sg7
I31448530
sg8
I98
sg9
I2
sg10
I47
sg11
I1
sg12
F9.0
sa(dp1348
g2
I571
sg3
I104412
sg4
I0
sg5
I0
sg6
I0
sg7
I552810
sg8
I73
sg9
I1
sg10
I93
sg11
I0
sg12
I0
sa(dp1349
g2
I230
sg3
I50287
sg4
I0
sg5
I0
sg6
I0
sg7
I9578590
sg8
I82
sg9
I1
sg10
I37
sg11
I0
sg12
I0
sa(dp1350
g2
I135
sg3
I54967
sg4
I0
sg5
I2
sg6
I1
sg7
I7942571
sg8
I151
sg9
I0
sg10
I27
sg11
I2
sg12
F1.0
sa(dp1351
g2
I201
sg3
I101573
sg4
I0
sg5
I0
sg6
I2
sg7
I14463321
sg8
I113
sg9
I2
sg10
I41
sg11
I0
sg12
I0
sa(dp1352
g2
I356
sg3
I52504
sg4
I0
sg5
I0
sg6
I0
sg7
I107427
sg8
I96
sg9
I1
sg10
I76
sg11
I0
sg12
I0
sa(dp1353
g2
I136
sg3
I105186
sg4
I0
sg5
I1
sg6
I0
sg7
I9834153
sg8
I211
sg9
I1
sg10
I24
sg11
I1
sg12
F1.0
sa(dp1354
g2
I165
sg3
I184752
sg4
I0
sg5
I0
sg6
I0
sg7
I1801676
sg8
I198
sg9
I1
sg10
I28
sg11
I0
sg12
I0
sa(dp1355
g2
I110
sg3
I76619
sg4
I0
sg5
I0
sg6
I0
sg7
I1061702
sg8
I143
sg9
I2
sg10
I18
sg11
I0
sg12
I0
sa(dp1356
g2
I215
sg3
I24254
sg4
I0
sg5
I0
sg6
I0
sg7
I16645307
sg8
I183
sg9
I2
sg10
I43
sg11
I0
sg12
I0
sa(dp1357
g2
I311
sg3
I78085
sg4
I0
sg5
I0
sg6
I0
sg7
I10775442
sg8
I72
sg9
I1
sg10
I53
sg11
I0
sg12
I0
sa(dp1358
g2
I587
sg3
I227914
sg4
I0
sg5
I0
sg6
I0
sg7
I901101
sg8
I26
sg9
I1
sg10
I106
sg11
I0
sg12
I0
sa(dp1359
g2
I441
sg3
I73290
sg4
I0
sg5
I11
sg6
I0
sg7
I3420588
sg8
I145
sg9
I1
sg10
I74
sg11
I2
sg12
F5.5
sa(dp1360
g2
I94
sg3
I23879
sg4
I0
sg5
I0
sg6
I0
sg7
I1883251
sg8
I118
sg9
I1
sg10
I14
sg11
I0
sg12
I0
sa(dp1361
g2
I652
sg3
I6786
sg4
I0
sg5
I0
sg6
I6
sg7
I39980744
sg8
I81
sg9
I1
sg10
I100
sg11
I0
sg12
I0
sa(dp1362
g2
I109
sg3
I212740
sg4
I0
sg5
I0
sg6
I0
sg7
I12214880
sg8
I151
sg9
I1
sg10
I23
sg11
I0
sg12
I0
sa(dp1363
g2
I98
sg3
I75948
sg4
I0
sg5
I17
sg6
I0
sg7
I17902926
sg8
I214
sg9
I0
sg10
I16
sg11
I2
sg12
F8.5
sa(dp1364
g2
I112
sg3
I95785
sg4
I0
sg5
I7
sg6
I1
sg7
I702903
sg8
I292
sg9
I2
sg10
I15
sg11
I1
sg12
F7.0
sa(dp1365
g2
I169
sg3
I51813
sg4
I0
sg5
I12
sg6
I0
sg7
I6103983
sg8
I159
sg9
I1
sg10
I26
sg11
I2
sg12
F6.0
sa(dp1366
g2
I131
sg3
I58547
sg4
I0
sg5
I0
sg6
I0
sg7
I9754466
sg8
I163
sg9
I1
sg10
I26
sg11
I0
sg12
I0
sa(dp1367
g2
I256
sg3
I272938
sg4
I0
sg5
I0
sg6
I0
sg7
I2269836
sg8
I122
sg9
I0
sg10
I53
sg11
I0
sg12
I0
sa(dp1368
g2
I223
sg3
I55904
sg4
I0
sg5
I6
sg6
I0
sg7
I2654130
sg8
I133
sg9
I2
sg10
I41
sg11
I1
sg12
F6.0
sa(dp1369
g2
I381
sg3
I33074
sg4
I0
sg5
I7
sg6
I0
sg7
I13592002
sg8
I109
sg9
I1
sg10
I62
sg11
I1
sg12
F7.0
sa(dp1370
g2
I217
sg3
I40429
sg4
I0
sg5
I8
sg6
I0
sg7
I3782877
sg8
I126
sg9
I2
sg10
I33
sg11
I1
sg12
F8.0
sa(dp1371
g2
I272
sg3
I42913
sg4
I0
sg5
I5
sg6
I0
sg7
I207128
sg8
I114
sg9
I2
sg10
I42
sg11
I2
sg12
F2.5
sa(dp1372
g2
I670
sg3
I10952
sg4
I0
sg5
I0
sg6
I3
sg7
I10719349
sg8
I78
sg9
I1
sg10
I124
sg11
I0
sg12
I0
sa(dp1373
g2
I129
sg3
I41440
sg4
I0
sg5
I15
sg6
I0
sg7
I489278
sg8
I123
sg9
I1
sg10
I22
sg11
I1
sg12
F15.0
sa(dp1374
g2
I753
sg3
I13830
sg4
I0
sg5
I0
sg6
I1
sg7
I4441740
sg8
I42
sg9
I1
sg10
I130
sg11
I0
sg12
I0
sa(dp1375
g2
I601
sg3
I51373
sg4
I0
sg5
I0
sg6
I6
sg7
I16021216
sg8
I45
sg9
I2
sg10
I107
sg11
I0
sg12
I0
sa(dp1376
g2
I331
sg3
I88877
sg4
I0
sg5
I0
sg6
I0
sg7
I2083996
sg8
I174
sg9
I1
sg10
I63
sg11
I0
sg12
I0
sa(dp1377
g2
I179
sg3
I112990
sg4
I0
sg5
I1
sg6
I0
sg7
I1007499
sg8
I170
sg9
I1
sg10
I31
sg11
I1
sg12
F1.0
sa(dp1378
g2
I153
sg3
I244773
sg4
I0
sg5
I0
sg6
I0
sg7
I2081880
sg8
I131
sg9
I1
sg10
I29
sg11
I0
sg12
I0
sa(dp1379
g2
I96
sg3
I424614
sg4
I0
sg5
I2
sg6
I0
sg7
I2711589
sg8
I157
sg9
I1
sg10
I15
sg11
I2
sg12
F1.0
sa(dp1380
g2
I216
sg3
I120901
sg4
I0
sg5
I1
sg6
I0
sg7
I3395185
sg8
I112
sg9
I1
sg10
I44
sg11
I1
sg12
F1.0
sa(dp1381
g2
I264
sg3
I54250
sg4
I0
sg5
I0
sg6
I0
sg7
I15950647
sg8
I169
sg9
I1
sg10
I44
sg11
I0
sg12
I0
sa(dp1382
g2
I287
sg3
I104664
sg4
I0
sg5
I3
sg6
I0
sg7
I10580782
sg8
I154
sg9
I2
sg10
I56
sg11
I1
sg12
F3.0
sa(dp1383
g2
I422
sg3
I119484
sg4
I0
sg5
I21
sg6
I0
sg7
I2212698
sg8
I196
sg9
I0
sg10
I79
sg11
I1
sg12
F21.0
sa(dp1384
g2
I414
sg3
I92827
sg4
I0
sg5
I15
sg6
I0
sg7
I6367023
sg8
I40
sg9
I3
sg10
I70
sg11
I2
sg12
F7.5
sa(dp1385
g2
I733
sg3
I7072
sg4
I0
sg5
I54
sg6
I2
sg7
I14133837
sg8
I150
sg9
I1
sg10
I123
sg11
I6
sg12
F9.0
sa(dp1386
g2
I668
sg3
I140105
sg4
I0
sg5
I2
sg6
I0
sg7
I29860484
sg8
I19
sg9
I1
sg10
I121
sg11
I2
sg12
F1.0
sa(dp1387
g2
I136
sg3
I75513
sg4
I0
sg5
I0
sg6
I0
sg7
I1054281
sg8
I88
sg9
I1
sg10
I25
sg11
I0
sg12
I0
sa(dp1388
g2
I112
sg3
I58484
sg4
I0
sg5
I0
sg6
I0
sg7
I19828967
sg8
I152
sg9
I1
sg10
I25
sg11
I0
sg12
I0
sa(dp1389
g2
I899
sg3
I56073
sg4
I0
sg5
I23
sg6
I0
sg7
I5437652
sg8
I152
sg9
I1
sg10
I155
sg11
I9
sg12
F2.5555555555555554
sa(dp1390
g2
I445
sg3
I105343
sg4
I0
sg5
I3
sg6
I2
sg7
I6475407
sg8
I131
sg9
I4
sg10
I86
sg11
I1
sg12
F3.0
sa(dp1391
g2
I1055
sg3
I29067
sg4
I0
sg5
I0
sg6
I2
sg7
I6786745
sg8
I130
sg9
I2
sg10
I179
sg11
I0
sg12
I0
sa(dp1392
g2
I1723
sg3
I51729
sg4
I0
sg5
I0
sg6
I1
sg7
I23388116
sg8
I34
sg9
I1
sg10
I300
sg11
I0
sg12
I0
sa(dp1393
g2
I697
sg3
I262785
sg4
I0
sg5
I2
sg6
I2
sg7
I450329
sg8
I92
sg9
I2
sg10
I118
sg11
I1
sg12
F2.0
sa(dp1394
g2
I359
sg3
I36870
sg4
I0
sg5
I4
sg6
I0
sg7
I1676069
sg8
I67
sg9
I1
sg10
I61
sg11
I1
sg12
F4.0
sa(dp1395
g2
I128
sg3
I130334
sg4
I0
sg5
I0
sg6
I0
sg7
I575822
sg8
I86
sg9
I1
sg10
I25
sg11
I0
sg12
I0
sa(dp1396
g2
I485
sg3
I66102
sg4
I0
sg5
I0
sg6
I3
sg7
I849426
sg8
I101
sg9
I2
sg10
I80
sg11
I0
sg12
I0
sa(dp1397
g2
I185
sg3
I147340
sg4
I0
sg5
I0
sg6
I0
sg7
I902774
sg8
I24
sg9
I1
sg10
I39
sg11
I0
sg12
I0
sa(dp1398
g2
I38
sg3
I85685
sg4
I0
sg5
I4
sg6
I0
sg7
I725882
sg8
I141
sg9
I0
sg10
I4
sg11
I2
sg12
F2.0
sa(dp1399
g2
I634
sg3
I97054
sg4
I0
sg5
I0
sg6
I0
sg7
I2282656
sg8
I165
sg9
I1
sg10
I110
sg11
I0
sg12
I0
sa(dp1400
g2
I139
sg3
I66740
sg4
I0
sg5
I0
sg6
I0
sg7
I3289057
sg8
I165
sg9
I1
sg10
I26
sg11
I0
sg12
I0
sa(dp1401
g2
I304
sg3
I41446
sg4
I0
sg5
I1
sg6
I0
sg7
I2451826
sg8
I176
sg9
I2
sg10
I65
sg11
I1
sg12
F1.0
sa(dp1402
g2
I117
sg3
I74889
sg4
I0
sg5
I4
sg6
I0
sg7
I9359011
sg8
I141
sg9
I0
sg10
I18
sg11
I1
sg12
F4.0
sa(dp1403
g2
I333
sg3
I104371
sg4
I0
sg5
I3
sg6
I1
sg7
I517207
sg8
I165
sg9
I1
sg10
I55
sg11
I1
sg12
F3.0
sa(dp1404
g2
I271
sg3
I71004
sg4
I0
sg5
I6
sg6
I0
sg7
I2043499
sg8
I82
sg9
I1
sg10
I51
sg11
I2
sg12
F3.0
sa(dp1405
g2
I847
sg3
I65643
sg4
I0
sg5
I6
sg6
I0
sg7
I6776578
sg8
I138
sg9
I0
sg10
I157
sg11
I1
sg12
F6.0
sa(dp1406
g2
I463
sg3
I22015
sg4
I0
sg5
I9
sg6
I0
sg7
I3025119
sg8
I178
sg9
I2
sg10
I83
sg11
I3
sg12
F3.0
sa(dp1407
g2
I390
sg3
I25609
sg4
I0
sg5
I0
sg6
I0
sg7
I2585406
sg8
I152
sg9
I0
sg10
I79
sg11
I0
sg12
I0
sa(dp1408
g2
I331
sg3
I36935
sg4
I0
sg5
I0
sg6
I0
sg7
I2704866
sg8
I80
sg9
I2
sg10
I64
sg11
I0
sg12
I0
sa(dp1409
g2
I364
sg3
I146010
sg4
I0
sg5
I9
sg6
I0
sg7
I33054552
sg8
I103
sg9
I0
sg10
I59
sg11
I3
sg12
F3.0
sa(dp1410
g2
I503
sg3
I129391
sg4
I0
sg5
I7
sg6
I1
sg7
I275246
sg8
I94
sg9
I1
sg10
I90
sg11
I2
sg12
F3.5
sa(dp1411
g2
I473
sg3
I116848
sg4
I0
sg5
I1
sg6
I0
sg7
I2493980
sg8
I200
sg9
I1
sg10
I78
sg11
I1
sg12
F1.0
sa(dp1412
g2
I570
sg3
I86955
sg4
I0
sg5
I0
sg6
I1
sg7
I191617
sg8
I38
sg9
I1
sg10
I96
sg11
I0
sg12
I0
sa(dp1413
g2
I245
sg3
I195034
sg4
I0
sg5
I23
sg6
I0
sg7
I23709194
sg8
I192
sg9
I1
sg10
I39
sg11
I2
sg12
F11.5
sa(dp1414
g2
I683
sg3
I31263
sg4
I0
sg5
I8
sg6
I0
sg7
I2600813
sg8
I212
sg9
I1
sg10
I122
sg11
I2
sg12
F4.0
sa(dp1415
g2
I308
sg3
I47247
sg4
I0
sg5
I37
sg6
I0
sg7
I17246744
sg8
I192
sg9
I3
sg10
I50
sg11
I6
sg12
F6.166666666666667
sa(dp1416
g2
I364
sg3
I67710
sg4
I0
sg5
I14
sg6
I0
sg7
I8109158
sg8
I195
sg9
I0
sg10
I73
sg11
I2
sg12
F7.0
sa(dp1417
g2
I88
sg3
I82415
sg4
I0
sg5
I2
sg6
I0
sg7
I4529901
sg8
I197
sg9
I1
sg10
I16
sg11
I1
sg12
F2.0
sa(dp1418
g2
I376
sg3
I143711
sg4
I0
sg5
I9
sg6
I0
sg7
I2853739
sg8
I116
sg9
I3
sg10
I66
sg11
I1
sg12
F9.0
sa(dp1419
g2
I600
sg3
I78034
sg4
I0
sg5
I6
sg6
I1
sg7
I30418498
sg8
I206
sg9
I0
sg10
I105
sg11
I1
sg12
F6.0
sa(dp1420
g2
I536
sg3
I81461
sg4
I0
sg5
I4
sg6
I1
sg7
I513906
sg8
I136
sg9
I2
sg10
I101
sg11
I2
sg12
F2.0
sa(dp1421
g2
I611
sg3
I122999
sg4
I0
sg5
I0
sg6
I0
sg7
I2119512
sg8
I141
sg9
I2
sg10
I109
sg11
I0
sg12
I0
sa(dp1422
g2
I474
sg3
I60791
sg4
I0
sg5
I0
sg6
I0
sg7
I1365284
sg8
I152
sg9
I2
sg10
I84
sg11
I0
sg12
I0
sa(dp1423
g2
I677
sg3
I32431
sg4
I0
sg5
I0
sg6
I0
sg7
I22074424
sg8
I171
sg9
I1
sg10
I129
sg11
I0
sg12
I0
sa(dp1424
g2
I170
sg3
I298200
sg4
I0
sg5
I0
sg6
I0
sg7
I5188909
sg8
I144
sg9
I1
sg10
I29
sg11
I0
sg12
I0
sa(dp1425
g2
I567
sg3
I25723
sg4
I0
sg5
I3
sg6
I0
sg7
I2703173
sg8
I107
sg9
I1
sg10
I111
sg11
I1
sg12
F3.0
sa(dp1426
g2
I249
sg3
I40432
sg4
I0
sg5
I12
sg6
I1
sg7
I647787
sg8
I72
sg9
I1
sg10
I38
sg11
I1
sg12
F12.0
sa(dp1427
g2
I152
sg3
I177255
sg4
I0
sg5
I2
sg6
I0
sg7
I13628825
sg8
I332
sg9
I0
sg10
I25
sg11
I1
sg12
F2.0
sa(dp1428
g2
I237
sg3
I71236
sg4
I0
sg5
I5
sg6
I0
sg7
I347560
sg8
I182
sg9
I0
sg10
I42
sg11
I1
sg12
F5.0
sa(dp1429
g2
I275
sg3
I93207
sg4
I0
sg5
I5
sg6
I0
sg7
I1178089
sg8
I67
sg9
I1
sg10
I48
sg11
I1
sg12
F5.0
sa(dp1430
g2
I127
sg3
I104784
sg4
I0
sg5
I4
sg6
I0
sg7
I12410288
sg8
I122
sg9
I1
sg10
I20
sg11
I2
sg12
F2.0
sa(dp1431
g2
I733
sg3
I366350
sg4
I0
sg5
I3
sg6
I0
sg7
I5905166
sg8
I199
sg9
I1
sg10
I140
sg11
I2
sg12
F1.5
sa(dp1432
g2
I296
sg3
I93523
sg4
I0
sg5
I4
sg6
I0
sg7
I4046233
sg8
I142
sg9
I0
sg10
I52
sg11
I1
sg12
F4.0
sa(dp1433
g2
I280
sg3
I112060
sg4
I0
sg5
I0
sg6
I0
sg7
I8022584
sg8
I150
sg9
I1
sg10
I50
sg11
I0
sg12
I0
sa(dp1434
g2
I975
sg3
I4136
sg4
I0
sg5
I1
sg6
I1
sg7
I14606540
sg8
I163
sg9
I1
sg10
I176
sg11
I1
sg12
F1.0
sa(dp1435
g2
I562
sg3
I80763
sg4
I0
sg5
I0
sg6
I1
sg7
I1730690
sg8
I28
sg9
I1
sg10
I92
sg11
I0
sg12
I0
sa(dp1436
g2
I178
sg3
I167094
sg4
I0
sg5
I9
sg6
I0
sg7
I12595082
sg8
I174
sg9
I1
sg10
I22
sg11
I2
sg12
F4.5
sa(dp1437
g2
I500
sg3
I64914
sg4
I0
sg5
I0
sg6
I0
sg7
I710653
sg8
I6
sg9
I2
sg10
I86
sg11
I0
sg12
I0
sa(dp1438
g2
I624
sg3
I65325
sg4
I0
sg5
I10
sg6
I0
sg7
I24929525
sg8
I20
sg9
I2
sg10
I117
sg11
I2
sg12
F5.0
sa(dp1439
g2
I1233
sg3
I145395
sg4
I0
sg5
I1
sg6
I0
sg7
I19189930
sg8
I173
sg9
I3
sg10
I224
sg11
I1
sg12
F1.0
sa(dp1440
g2
I293
sg3
I47129
sg4
I0
sg5
I0
sg6
I1
sg7
I14247383
sg8
I136
sg9
I1
sg10
I56
sg11
I0
sg12
I0
sa(dp1441
g2
I450
sg3
I130491
sg4
I0
sg5
I0
sg6
I0
sg7
I918178
sg8
I124
sg9
I1
sg10
I83
sg11
I0
sg12
I0
sa(dp1442
g2
I86
sg3
I73305
sg4
I0
sg5
I1
sg6
I0
sg7
I2259250
sg8
I144
sg9
I1
sg10
I15
sg11
I1
sg12
F1.0
sa(dp1443
g2
I743
sg3
I70473
sg4
I0
sg5
I9
sg6
I0
sg7
I8805244
sg8
I123
sg9
I0
sg10
I136
sg11
I1
sg12
F9.0
sa(dp1444
g2
I577
sg3
I54545
sg4
I0
sg5
I4
sg6
I0
sg7
I1198788
sg8
I54
sg9
I4
sg10
I94
sg11
I4
sg12
F1.0
sa(dp1445
g2
I101
sg3
I40024
sg4
I0
sg5
I0
sg6
I0
sg7
I1957793
sg8
I133
sg9
I1
sg10
I18
sg11
I0
sg12
I0
sa(dp1446
g2
I152
sg3
I114649
sg4
I0
sg5
I0
sg6
I0
sg7
I7975511
sg8
I142
sg9
I1
sg10
I34
sg11
I0
sg12
I0
sa(dp1447
g2
I245
sg3
I26688
sg4
I0
sg5
I8
sg6
I2
sg7
I2587041
sg8
I54
sg9
I1
sg10
I41
sg11
I1
sg12
F8.0
sa(dp1448
g2
I416
sg3
I127244
sg4
I0
sg5
I5
sg6
I0
sg7
I753657
sg8
I123
sg9
I3
sg10
I80
sg11
I1
sg12
F5.0
sa(dp1449
g2
I329
sg3
I27917
sg4
I0
sg5
I2
sg6
I0
sg7
I2933481
sg8
I140
sg9
I1
sg10
I55
sg11
I2
sg12
F1.0
sa(dp1450
g2
I565
sg3
I22916
sg4
I0
sg5
I0
sg6
I1
sg7
I19609168
sg8
I141
sg9
I3
sg10
I93
sg11
I0
sg12
I0
sa(dp1451
g2
I329
sg3
I61058
sg4
I0
sg5
I3
sg6
I0
sg7
I3480190
sg8
I119
sg9
I2
sg10
I60
sg11
I1
sg12
F3.0
sa(dp1452
g2
I302
sg3
I4674
sg4
I0
sg5
I5
sg6
I0
sg7
I43390931
sg8
I125
sg9
I3
sg10
I46
sg11
I2
sg12
F2.5
sa(dp1453
g2
I70
sg3
I7495
sg4
I0
sg5
I3
sg6
I2
sg7
I26136895
sg8
I127
sg9
I1
sg10
I14
sg11
I1
sg12
F3.0
sa(dp1454
g2
I365
sg3
I71455
sg4
I0
sg5
I8
sg6
I1
sg7
I16589453
sg8
I190
sg9
I1
sg10
I67
sg11
I3
sg12
F2.6666666666666665
sa(dp1455
g2
I1177
sg3
I141809
sg4
I0
sg5
I12
sg6
I1
sg7
I444610
sg8
I65
sg9
I1
sg10
I198
sg11
I5
sg12
F2.4
sa(dp1456
g2
I157
sg3
I89583
sg4
I0
sg5
I11
sg6
I0
sg7
I9843560
sg8
I163
sg9
I1
sg10
I26
sg11
I3
sg12
F3.6666666666666665
sa(dp1457
g2
I412
sg3
I100114
sg4
I0
sg5
I0
sg6
I0
sg7
I142566
sg8
I82
sg9
I1
sg10
I80
sg11
I0
sg12
I0
sa(dp1458
g2
I185
sg3
I87035
sg4
I0
sg5
I0
sg6
I0
sg7
I121452
sg8
I125
sg9
I1
sg10
I39
sg11
I0
sg12
I0
sa(dp1459
g2
I214
sg3
I103054
sg4
I0
sg5
I3
sg6
I0
sg7
I20606278
sg8
I93
sg9
I0
sg10
I48
sg11
I1
sg12
F3.0
sa(dp1460
g2
I94
sg3
I97735
sg4
I0
sg5
I0
sg6
I0
sg7
I2405300
sg8
I154
sg9
I1
sg10
I18
sg11
I0
sg12
I0
sa(dp1461
g2
I159
sg3
I200586
sg4
I0
sg5
I11
sg6
I0
sg7
I5653549
sg8
I160
sg9
I1
sg10
I24
sg11
I2
sg12
F5.5
sa(dp1462
g2
I126
sg3
I46344
sg4
I0
sg5
I0
sg6
I0
sg7
I11077215
sg8
I148
sg9
I0
sg10
I20
sg11
I0
sg12
I0
sa(dp1463
g2
I59
sg3
I26352
sg4
I0
sg5
I0
sg6
I0
sg7
I521545
sg8
I148
sg9
I1
sg10
I10
sg11
I0
sg12
I0
sa(dp1464
g2
I171
sg3
I76290
sg4
I0
sg5
I0
sg6
I0
sg7
I18062521
sg8
I149
sg9
I1
sg10
I35
sg11
I0
sg12
I0
sa(dp1465
g2
I232
sg3
I35880
sg4
I0
sg5
I1
sg6
I0
sg7
I8474692
sg8
I179
sg9
I0
sg10
I42
sg11
I1
sg12
F1.0
sa(dp1466
g2
I75
sg3
I46674
sg4
I0
sg5
I1
sg6
I0
sg7
I3925147
sg8
I147
sg9
I1
sg10
I15
sg11
I1
sg12
F1.0
sa(dp1467
g2
I134
sg3
I32248
sg4
I0
sg5
I0
sg6
I0
sg7
I1676860
sg8
I141
sg9
I2
sg10
I25
sg11
I0
sg12
I0
sa(dp1468
g2
I678
sg3
I54583
sg4
I0
sg5
I0
sg6
I0
sg7
I138553
sg8
I17
sg9
I2
sg10
I107
sg11
I0
sg12
I0
sa(dp1469
g2
I148
sg3
I76589
sg4
I0
sg5
I9
sg6
I1
sg7
I335754
sg8
I76
sg9
I1
sg10
I21
sg11
I2
sg12
F4.5
sa(dp1470
g2
I326
sg3
I73616
sg4
I0
sg5
I9
sg6
I0
sg7
I4937526
sg8
I218
sg9
I0
sg10
I65
sg11
I3
sg12
F3.0
sa(dp1471
g2
I332
sg3
I198990
sg4
I0
sg5
I3
sg6
I0
sg7
I4056782
sg8
I215
sg9
I1
sg10
I66
sg11
I1
sg12
F3.0
sa(dp1472
g2
I542
sg3
I112830
sg4
I0
sg5
I2
sg6
I0
sg7
I2489718
sg8
I85
sg9
I3
sg10
I93
sg11
I1
sg12
F2.0
sa(dp1473
g2
I1009
sg3
I6284
sg4
I0
sg5
I7
sg6
I0
sg7
I42742898
sg8
I93
sg9
I2
sg10
I173
sg11
I2
sg12
F3.5
sa(dp1474
g2
I254
sg3
I68794
sg4
I0
sg5
I2
sg6
I0
sg7
I409843
sg8
I24
sg9
I1
sg10
I46
sg11
I1
sg12
F2.0
sa(dp1475
g2
I108
sg3
I40635
sg4
I0
sg5
I3
sg6
I1
sg7
I6112456
sg8
I96
sg9
I0
sg10
I18
sg11
I1
sg12
F3.0
sa(dp1476
g2
I91
sg3
I157891
sg4
I0
sg5
I8
sg6
I0
sg7
I5552623
sg8
I107
sg9
I2
sg10
I14
sg11
I2
sg12
F4.0
sa(dp1477
g2
I574
sg3
I101030
sg4
I0
sg5
I0
sg6
I1
sg7
I753832
sg8
I32
sg9
I2
sg10
I114
sg11
I0
sg12
I0
sa(dp1478
g2
I181
sg3
I17184
sg4
I0
sg5
I0
sg6
I0
sg7
I200027
sg8
I142
sg9
I1
sg10
I33
sg11
I0
sg12
I0
sa(dp1479
g2
I273
sg3
I61522
sg4
I0
sg5
I9
sg6
I0
sg7
I24892131
sg8
I163
sg9
I2
sg10
I49
sg11
I1
sg12
F9.0
sa(dp1480
g2
I666
sg3
I5274
sg4
I0
sg5
I15
sg6
I2
sg7
I37614182
sg8
I65
sg9
I2
sg10
I115
sg11
I2
sg12
F7.5
sa(dp1481
g2
I191
sg3
I32419
sg4
I0
sg5
I4
sg6
I0
sg7
I2136580
sg8
I129
sg9
I0
sg10
I32
sg11
I2
sg12
F2.0
sa(dp1482
g2
I4509
sg3
I13069
sg4
I0
sg5
I0
sg6
I1
sg7
I4200765
sg8
I84
sg9
I3
sg10
I807
sg11
I0
sg12
I0
sa(dp1483
g2
I363
sg3
I246250
sg4
I0
sg5
I4
sg6
I0
sg7
I2960791
sg8
I83
sg9
I0
sg10
I68
sg11
I2
sg12
F2.0
sa(dp1484
g2
I405
sg3
I179731
sg4
I0
sg5
I0
sg6
I0
sg7
I4547331
sg8
I45
sg9
I1
sg10
I68
sg11
I0
sg12
I0
sa(dp1485
g2
I144
sg3
I31270
sg4
I0
sg5
I0
sg6
I0
sg7
I3917632
sg8
I38
sg9
I1
sg10
I28
sg11
I0
sg12
I0
sa(dp1486
g2
I349
sg3
I127033
sg4
I0
sg5
I0
sg6
I0
sg7
I497439
sg8
I58
sg9
I1
sg10
I59
sg11
I0
sg12
I0
sa(dp1487
g2
I158
sg3
I256171
sg4
I0
sg5
I11
sg6
I0
sg7
I36110735
sg8
I50
sg9
I1
sg10
I32
sg11
I2
sg12
F5.5
sa(dp1488
g2
I287
sg3
I66210
sg4
I0
sg5
I3
sg6
I2
sg7
I12974504
sg8
I159
sg9
I0
sg10
I46
sg11
I1
sg12
F3.0
sa(dp1489
g2
I357
sg3
I88367
sg4
I0
sg5
I1
sg6
I0
sg7
I5895670
sg8
I164
sg9
I1
sg10
I58
sg11
I1
sg12
F1.0
sa(dp1490
g2
I227
sg3
I58544
sg4
I0
sg5
I0
sg6
I0
sg7
I1377652
sg8
I184
sg9
I0
sg10
I37
sg11
I0
sg12
I0
sa(dp1491
g2
I199
sg3
I168667
sg4
I0
sg5
I7
sg6
I0
sg7
I714890
sg8
I138
sg9
I1
sg10
I38
sg11
I2
sg12
F3.5
sa(dp1492
g2
I223
sg3
I105344
sg4
I0
sg5
I0
sg6
I1
sg7
I3305964
sg8
I138
sg9
I1
sg10
I41
sg11
I0
sg12
I0
sa(dp1493
g2
I145
sg3
I51281
sg4
I0
sg5
I6
sg6
I1
sg7
I15753721
sg8
I178
sg9
I1
sg10
I29
sg11
I2
sg12
F3.0
sa(dp1494
g2
I909
sg3
I78999
sg4
I0
sg5
I13
sg6
I0
sg7
I1590657
sg8
I47
sg9
I4
sg10
I159
sg11
I3
sg12
F4.333333333333333
sa(dp1495
g2
I169
sg3
I76467
sg4
I0
sg5
I43
sg6
I0
sg7
I2105155
sg8
I104
sg9
I1
sg10
I24
sg11
I3
sg12
F14.333333333333334
sa(dp1496
g2
I421
sg3
I104753
sg4
I0
sg5
I5
sg6
I1
sg7
I20001283
sg8
I154
sg9
I1
sg10
I89
sg11
I1
sg12
F5.0
sa(dp1497
g2
I243
sg3
I63075
sg4
I0
sg5
I0
sg6
I0
sg7
I17098736
sg8
I138
sg9
I1
sg10
I45
sg11
I0
sg12
I0
sa(dp1498
g2
I615
sg3
I39709
sg4
I0
sg5
I19
sg6
I0
sg7
I15971771
sg8
I112
sg9
I1
sg10
I115
sg11
I2
sg12
F9.5
sa(dp1499
g2
I116
sg3
I119484
sg4
I0
sg5
I0
sg6
I0
sg7
I5036775
sg8
I76
sg9
I1
sg10
I20
sg11
I0
sg12
I0
sa(dp1500
g2
I340
sg3
I22788
sg4
I0
sg5
I0
sg6
I0
sg7
I827449
sg8
I96
sg9
I0
sg10
I55
sg11
I0
sg12
I0
sa(dp1501
g2
I390
sg3
I11557
sg4
I0
sg5
I0
sg6
I0
sg7
I3374514
sg8
I119
sg9
I1
sg10
I68
sg11
I0
sg12
I0
sa(dp1502
g2
I172
sg3
I26517
sg4
I0
sg5
I0
sg6
I2
sg7
I14415801
sg8
I96
sg9
I2
sg10
I30
sg11
I0
sg12
I0
sa(dp1503
g2
I567
sg3
I34128
sg4
I0
sg5
I55
sg6
I1
sg7
I3815387
sg8
I112
sg9
I3
sg10
I90
sg11
I4
sg12
F13.75
sa(dp1504
g2
I187
sg3
I246550
sg4
I0
sg5
I19
sg6
I1
sg7
I1679406
sg8
I76
sg9
I1
sg10
I28
sg11
I1
sg12
F19.0
sa(dp1505
g2
I323
sg3
I37563
sg4
I0
sg5
I0
sg6
I0
sg7
I4765191
sg8
I46
sg9
I1
sg10
I56
sg11
I0
sg12
I0
sa(dp1506
g2
I459
sg3
I71754
sg4
I0
sg5
I18
sg6
I0
sg7
I682052
sg8
I64
sg9
I1
sg10
I82
sg11
I1
sg12
F18.0
sa(dp1507
g2
I859
sg3
I19438
sg4
I0
sg5
I16
sg6
I0
sg7
I1350981
sg8
I103
sg9
I2
sg10
I153
sg11
I3
sg12
F5.333333333333333
sa(dp1508
g2
I195
sg3
I25811
sg4
I0
sg5
I0
sg6
I0
sg7
I24207353
sg8
I118
sg9
I0
sg10
I34
sg11
I0
sg12
I0
sa(dp1509
g2
I99
sg3
I57394
sg4
I0
sg5
I5
sg6
I0
sg7
I11774026
sg8
I130
sg9
I1
sg10
I20
sg11
I1
sg12
F5.0
sa(dp1510
g2
I328
sg3
I96653
sg4
I0
sg5
I0
sg6
I1
sg7
I2164279
sg8
I110
sg9
I2
sg10
I57
sg11
I0
sg12
I0
sa(dp1511
g2
I339
sg3
I7458
sg4
I0
sg5
I0
sg6
I0
sg7
I15479974
sg8
I175
sg9
I2
sg10
I58
sg11
I0
sg12
I0
sa(dp1512
g2
I130
sg3
I110437
sg4
I0
sg5
I3
sg6
I0
sg7
I707685
sg8
I122
sg9
I1
sg10
I20
sg11
I2
sg12
F1.5
sa(dp1513
g2
I791
sg3
I24656
sg4
I0
sg5
I0
sg6
I0
sg7
I4144088
sg8
I218
sg9
I2
sg10
I123
sg11
I0
sg12
I0
sa(dp1514
g2
I509
sg3
I24158
sg4
I0
sg5
I15
sg6
I0
sg7
I367599
sg8
I78
sg9
I2
sg10
I84
sg11
I1
sg12
F15.0
sa(dp1515
g2
I370
sg3
I230672
sg4
I0
sg5
I0
sg6
I0
sg7
I4182635
sg8
I144
sg9
I1
sg10
I67
sg11
I0
sg12
I0
sa(dp1516
g2
I327
sg3
I212100
sg4
I0
sg5
I5
sg6
I1
sg7
I179608
sg8
I160
sg9
I0
sg10
I53
sg11
I1
sg12
F5.0
sa(dp1517
g2
I94
sg3
I185977
sg4
I0
sg5
I2
sg6
I0
sg7
I7361274
sg8
I153
sg9
I1
sg10
I18
sg11
I2
sg12
F1.0
sa(dp1518
g2
I104
sg3
I309808
sg4
I0
sg5
I13
sg6
I0
sg7
I1250135
sg8
I102
sg9
I2
sg10
I19
sg11
I3
sg12
F4.333333333333333
sa(dp1519
g2
I950
sg3
I31110
sg4
I0
sg5
I0
sg6
I0
sg7
I717261
sg8
I160
sg9
I3
sg10
I141
sg11
I0
sg12
I0
sa(dp1520
g2
I361
sg3
I69231
sg4
I0
sg5
I4
sg6
I1
sg7
I3719679
sg8
I25
sg9
I1
sg10
I56
sg11
I2
sg12
F2.0
sa(dp1521
g2
I315
sg3
I57110
sg4
I0
sg5
I6
sg6
I0
sg7
I18072799
sg8
I140
sg9
I1
sg10
I54
sg11
I3
sg12
F2.0
sa(dp1522
g2
I94
sg3
I5898
sg4
I0
sg5
I9
sg6
I0
sg7
I5693363
sg8
I176
sg9
I1
sg10
I17
sg11
I1
sg12
F9.0
sa(dp1523
g2
I525
sg3
I77301
sg4
I0
sg5
I2
sg6
I0
sg7
I1432949
sg8
I113
sg9
I1
sg10
I88
sg11
I2
sg12
F1.0
sa(dp1524
g2
I287
sg3
I16214
sg4
I0
sg5
I9
sg6
I0
sg7
I41446882
sg8
I101
sg9
I1
sg10
I55
sg11
I1
sg12
F9.0
sa(dp1525
g2
I187
sg3
I62511
sg4
I0
sg5
I16
sg6
I0
sg7
I575337
sg8
I121
sg9
I1
sg10
I36
sg11
I2
sg12
F8.0
sa(dp1526
g2
I279
sg3
I16961
sg4
I0
sg5
I3
sg6
I0
sg7
I1077118
sg8
I145
sg9
I1
sg10
I53
sg11
I2
sg12
F1.5
sa(dp1527
g2
I483
sg3
I93564
sg4
I1
sg5
I6
sg6
I3
sg7
I16124677
sg8
I112
sg9
I1
sg10
I88
sg11
I2
sg12
F3.0
sa(dp1528
g2
I443
sg3
I35693
sg4
I0
sg5
I0
sg6
I0
sg7
I105473
sg8
I31
sg9
I1
sg10
I67
sg11
I0
sg12
I0
sa(dp1529
g2
I191
sg3
I62966
sg4
I0
sg5
I1
sg6
I0
sg7
I5212885
sg8
I91
sg9
I1
sg10
I39
sg11
I1
sg12
F1.0
sa(dp1530
g2
I193
sg3
I77662
sg4
I0
sg5
I0
sg6
I1
sg7
I11218504
sg8
I207
sg9
I1
sg10
I35
sg11
I0
sg12
I0
sa(dp1531
g2
I319
sg3
I69089
sg4
I0
sg5
I2
sg6
I0
sg7
I547867
sg8
I127
sg9
I1
sg10
I61
sg11
I1
sg12
F2.0
sa(dp1532
g2
I579
sg3
I28752
sg4
I0
sg5
I2
sg6
I1
sg7
I11887885
sg8
I133
sg9
I1
sg10
I108
sg11
I1
sg12
F2.0
sa(dp1533
g2
I149
sg3
I56456
sg4
I0
sg5
I4
sg6
I0
sg7
I100762
sg8
I150
sg9
I2
sg10
I23
sg11
I2
sg12
F2.0
sa(dp1534
g2
I749
sg3
I30686
sg4
I0
sg5
I31
sg6
I2
sg7
I3073368
sg8
I174
sg9
I0
sg10
I129
sg11
I4
sg12
F7.75
sa(dp1535
g2
I251
sg3
I102163
sg4
I0
sg5
I2
sg6
I0
sg7
I19071568
sg8
I168
sg9
I0
sg10
I44
sg11
I2
sg12
F1.0
sa(dp1536
g2
I608
sg3
I36187
sg4
I0
sg5
I7
sg6
I0
sg7
I8534381
sg8
I134
sg9
I0
sg10
I107
sg11
I3
sg12
F2.3333333333333335
sa(dp1537
g2
I242
sg3
I122667
sg4
I0
sg5
I12
sg6
I0
sg7
I7880519
sg8
I135
sg9
I1
sg10
I39
sg11
I3
sg12
F4.0
sa(dp1538
g2
I308
sg3
I200546
sg4
I0
sg5
I3
sg6
I0
sg7
I4576128
sg8
I154
sg9
I1
sg10
I52
sg11
I2
sg12
F1.5
sa(dp1539
g2
I83
sg3
I33069
sg4
I0
sg5
I0
sg6
I0
sg7
I2073599
sg8
I146
sg9
I1
sg10
I16
sg11
I0
sg12
I0
sa(dp1540
g2
I186
sg3
I165381
sg4
I0
sg5
I53
sg6
I0
sg7
I6270987
sg8
I115
sg9
I1
sg10
I38
sg11
I3
sg12
F17.666666666666668
sa(dp1541
g2
I239
sg3
I101590
sg4
I0
sg5
I0
sg6
I1
sg7
I29530601
sg8
I106
sg9
I1
sg10
I41
sg11
I0
sg12
I0
sa(dp1542
g2
I283
sg3
I30151
sg4
I0
sg5
I30
sg6
I0
sg7
I14581826
sg8
I136
sg9
I3
sg10
I43
sg11
I3
sg12
F10.0
sa(dp1543
g2
I677
sg3
I14505
sg4
I1
sg5
I17
sg6
I0
sg7
I15641148
sg8
I101
sg9
I1
sg10
I122
sg11
I1
sg12
F17.0
sa(dp1544
g2
I466
sg3
I21731
sg4
I0
sg5
I92
sg6
I1
sg7
I23326971
sg8
I106
sg9
I1
sg10
I67
sg11
I4
sg12
F23.0
sa(dp1545
g2
I1057
sg3
I34274
sg4
I0
sg5
I0
sg6
I1
sg7
I5364844
sg8
I84
sg9
I6
sg10
I190
sg11
I0
sg12
I0
sa(dp1546
g2
I194
sg3
I63574
sg4
I0
sg5
I2
sg6
I0
sg7
I11067072
sg8
I123
sg9
I1
sg10
I37
sg11
I2
sg12
F1.0
sa(dp1547
g2
I262
sg3
I188917
sg4
I0
sg5
I2
sg6
I0
sg7
I1614247
sg8
I187
sg9
I1
sg10
I52
sg11
I1
sg12
F2.0
sa(dp1548
g2
I372
sg3
I5151
sg4
I0
sg5
I2
sg6
I1
sg7
I30563742
sg8
I137
sg9
I1
sg10
I67
sg11
I2
sg12
F1.0
sa(dp1549
g2
I165
sg3
I140641
sg4
I0
sg5
I3
sg6
I0
sg7
I8548165
sg8
I126
sg9
I2
sg10
I40
sg11
I1
sg12
F3.0
sa(dp1550
g2
I56
sg3
I37045
sg4
I0
sg5
I6
sg6
I0
sg7
I2272174
sg8
I168
sg9
I0
sg10
I9
sg11
I1
sg12
F6.0
sa(dp1551
g2
I655
sg3
I154629
sg4
I0
sg5
I16
sg6
I1
sg7
I21928790
sg8
I56
sg9
I4
sg10
I113
sg11
I1
sg12
F16.0
sa(dp1552
g2
I277
sg3
I151077
sg4
I0
sg5
I0
sg6
I0
sg7
I2212442
sg8
I174
sg9
I1
sg10
I56
sg11
I0
sg12
I0
sa(dp1553
g2
I277
sg3
I16549
sg4
I0
sg5
I4
sg6
I0
sg7
I98178
sg8
I122
sg9
I1
sg10
I46
sg11
I2
sg12
F2.0
sa(dp1554
g2
I70
sg3
I40498
sg4
I0
sg5
I3
sg6
I0
sg7
I713143
sg8
I126
sg9
I1
sg10
I11
sg11
I1
sg12
F3.0
sa(dp1555
g2
I199
sg3
I119045
sg4
I0
sg5
I0
sg6
I0
sg7
I5438756
sg8
I130
sg9
I3
sg10
I38
sg11
I0
sg12
I0
sa(dp1556
g2
I1030
sg3
I10179
sg4
I0
sg5
I22
sg6
I2
sg7
I16118756
sg8
I169
sg9
I2
sg10
I159
sg11
I2
sg12
F11.0
sa(dp1557
g2
I187
sg3
I39856
sg4
I0
sg5
I9
sg6
I0
sg7
I10344231
sg8
I121
sg9
I0
sg10
I32
sg11
I2
sg12
F4.5
sa(dp1558
g2
I605
sg3
I56008
sg4
I0
sg5
I0
sg6
I1
sg7
I33694864
sg8
I66
sg9
I1
sg10
I109
sg11
I0
sg12
I0
sa(dp1559
g2
I340
sg3
I43219
sg4
I0
sg5
I11
sg6
I0
sg7
I1537226
sg8
I115
sg9
I2
sg10
I59
sg11
I1
sg12
F11.0
sa(dp1560
g2
I790
sg3
I76121
sg4
I0
sg5
I8
sg6
I1
sg7
I2923719
sg8
I97
sg9
I1
sg10
I145
sg11
I1
sg12
F8.0
sa(dp1561
g2
I445
sg3
I49827
sg4
I0
sg5
I2
sg6
I0
sg7
I2970789
sg8
I65
sg9
I1
sg10
I82
sg11
I1
sg12
F2.0
sa(dp1562
g2
I223
sg3
I86563
sg4
I0
sg5
I0
sg6
I0
sg7
I498505
sg8
I69
sg9
I0
sg10
I41
sg11
I0
sg12
I0
sa(dp1563
g2
I354
sg3
I52624
sg4
I0
sg5
I0
sg6
I0
sg7
I11060240
sg8
I40
sg9
I2
sg10
I66
sg11
I0
sg12
I0
sa(dp1564
g2
I371
sg3
I57693
sg4
I0
sg5
I0
sg6
I20
sg7
I1880001
sg8
I24
sg9
I1
sg10
I47
sg11
I0
sg12
I0
sa(dp1565
g2
I309
sg3
I62619
sg4
I0
sg5
I15
sg6
I0
sg7
I5952472
sg8
I197
sg9
I0
sg10
I57
sg11
I2
sg12
F7.5
sa(dp1566
g2
I500
sg3
I168258
sg4
I0
sg5
I14
sg6
I0
sg7
I15720891
sg8
I141
sg9
I1
sg10
I85
sg11
I1
sg12
F14.0
sa(dp1567
g2
I97
sg3
I105812
sg4
I0
sg5
I1
sg6
I0
sg7
I4187266
sg8
I117
sg9
I1
sg10
I16
sg11
I1
sg12
F1.0
sa(dp1568
g2
I401
sg3
I195768
sg4
I0
sg5
I0
sg6
I0
sg7
I4784123
sg8
I141
sg9
I2
sg10
I65
sg11
I0
sg12
I0
sa(dp1569
g2
I126
sg3
I7862
sg4
I0
sg5
I8
sg6
I0
sg7
I35015128
sg8
I121
sg9
I1
sg10
I25
sg11
I2
sg12
F4.0
sa(dp1570
g2
I110
sg3
I89906
sg4
I0
sg5
I0
sg6
I0
sg7
I13332300
sg8
I188
sg9
I1
sg10
I23
sg11
I0
sg12
I0
sa(dp1571
g2
I560
sg3
I234588
sg4
I0
sg5
I6
sg6
I0
sg7
I2958717
sg8
I178
sg9
I1
sg10
I109
sg11
I3
sg12
F2.0
sa(dp1572
g2
I264
sg3
I265856
sg4
I0
sg5
I0
sg6
I1
sg7
I11200146
sg8
I149
sg9
I1
sg10
I48
sg11
I0
sg12
I0
sa(dp1573
g2
I868
sg3
I40543
sg4
I0
sg5
I13
sg6
I0
sg7
I604756
sg8
I175
sg9
I1
sg10
I159
sg11
I1
sg12
F13.0
sa(dp1574
g2
I378
sg3
I228953
sg4
I0
sg5
I0
sg6
I0
sg7
I1274465
sg8
I156
sg9
I1
sg10
I70
sg11
I0
sg12
I0
sa(dp1575
g2
I127
sg3
I160397
sg4
I0
sg5
I1
sg6
I0
sg7
I937516
sg8
I187
sg9
I1
sg10
I20
sg11
I1
sg12
F1.0
sa(dp1576
g2
I131
sg3
I200310
sg4
I0
sg5
I0
sg6
I0
sg7
I285326
sg8
I108
sg9
I4
sg10
I24
sg11
I0
sg12
I0
sa(dp1577
g2
I232
sg3
I29437
sg4
I0
sg5
I5
sg6
I1
sg7
I10506715
sg8
I142
sg9
I1
sg10
I41
sg11
I2
sg12
F2.5
sa(dp1578
g2
I825
sg3
I62676
sg4
I1
sg5
I6
sg6
I0
sg7
I8719100
sg8
I142
sg9
I0
sg10
I135
sg11
I3
sg12
F2.0
sa(dp1579
g2
I134
sg3
I36823
sg4
I0
sg5
I11
sg6
I0
sg7
I11552007
sg8
I135
sg9
I1
sg10
I26
sg11
I2
sg12
F5.5
sa(dp1580
g2
I138
sg3
I194169
sg4
I0
sg5
I15
sg6
I0
sg7
I7053615
sg8
I119
sg9
I1
sg10
I25
sg11
I1
sg12
F15.0
sa(dp1581
g2
I204
sg3
I94255
sg4
I0
sg5
I0
sg6
I0
sg7
I4584180
sg8
I77
sg9
I1
sg10
I40
sg11
I0
sg12
I0
sa(dp1582
g2
I220
sg3
I100690
sg4
I0
sg5
I11
sg6
I0
sg7
I7783326
sg8
I150
sg9
I1
sg10
I40
sg11
I3
sg12
F3.6666666666666665
sa(dp1583
g2
I969
sg3
I29942
sg4
I0
sg5
I19
sg6
I0
sg7
I248854
sg8
I106
sg9
I2
sg10
I157
sg11
I2
sg12
F9.5
sa(dp1584
g2
I89
sg3
I31600
sg4
I0
sg5
I0
sg6
I0
sg7
I24000174
sg8
I66
sg9
I1
sg10
I18
sg11
I0
sg12
I0
sa(dp1585
g2
I1401
sg3
I15946
sg4
I0
sg5
I0
sg6
I2
sg7
I3460977
sg8
I114
sg9
I2
sg10
I242
sg11
I0
sg12
I0
sa(dp1586
g2
I105
sg3
I47395
sg4
I0
sg5
I0
sg6
I0
sg7
I20612691
sg8
I122
sg9
I1
sg10
I17
sg11
I0
sg12
I0
sa(dp1587
g2
I420
sg3
I17597
sg4
I0
sg5
I0
sg6
I0
sg7
I29950604
sg8
I88
sg9
I2
sg10
I70
sg11
I0
sg12
I0
sa(dp1588
g2
I152
sg3
I152582
sg4
I0
sg5
I3
sg6
I0
sg7
I2161801
sg8
I57
sg9
I0
sg10
I26
sg11
I3
sg12
F1.0
sa(dp1589
g2
I122
sg3
I76129
sg4
I0
sg5
I1
sg6
I0
sg7
I6557570
sg8
I120
sg9
I2
sg10
I26
sg11
I1
sg12
F1.0
sa(dp1590
g2
I189
sg3
I25422
sg4
I0
sg5
I3
sg6
I0
sg7
I1874635
sg8
I57
sg9
I0
sg10
I33
sg11
I2
sg12
F1.5
sa(dp1591
g2
I123
sg3
I34473
sg4
I0
sg5
I7
sg6
I0
sg7
I15063941
sg8
I135
sg9
I0
sg10
I21
sg11
I2
sg12
F3.5
sa(dp1592
g2
I230
sg3
I45918
sg4
I0
sg5
I0
sg6
I1
sg7
I9002656
sg8
I23
sg9
I1
sg10
I38
sg11
I0
sg12
I0
sa(dp1593
g2
I1158
sg3
I23150
sg4
I0
sg5
I16
sg6
I0
sg7
I3013910
sg8
I109
sg9
I2
sg10
I184
sg11
I1
sg12
F16.0
sa(dp1594
g2
I177
sg3
I138090
sg4
I0
sg5
I10
sg6
I0
sg7
I5615674
sg8
I163
sg9
I1
sg10
I30
sg11
I1
sg12
F10.0
sa(dp1595
g2
I91
sg3
I296135
sg4
I0
sg5
I5
sg6
I0
sg7
I997807
sg8
I105
sg9
I2
sg10
I16
sg11
I1
sg12
F5.0
sa(dp1596
g2
I56
sg3
I72487
sg4
I0
sg5
I6
sg6
I0
sg7
I8900189
sg8
I164
sg9
I2
sg10
I9
sg11
I1
sg12
F6.0
sa(dp1597
g2
I362
sg3
I130398
sg4
I0
sg5
I0
sg6
I0
sg7
I17242374
sg8
I112
sg9
I1
sg10
I71
sg11
I0
sg12
I0
sa(dp1598
g2
I152
sg3
I31389
sg4
I0
sg5
I0
sg6
I0
sg7
I8960883
sg8
I158
sg9
I2
sg10
I27
sg11
I0
sg12
I0
sa(dp1599
g2
I62
sg3
I38938
sg4
I0
sg5
I0
sg6
I1
sg7
I4045505
sg8
I127
sg9
I1
sg10
I14
sg11
I0
sg12
I0
sa(dp1600
g2
I224
sg3
I34114
sg4
I0
sg5
I0
sg6
I0
sg7
I24965191
sg8
I142
sg9
I1
sg10
I35
sg11
I0
sg12
I0
sa(dp1601
g2
I469
sg3
I47168
sg4
I0
sg5
I4
sg6
I1
sg7
I729016
sg8
I100
sg9
I3
sg10
I80
sg11
I2
sg12
F2.0
sa(dp1602
g2
I372
sg3
I42260
sg4
I0
sg5
I13
sg6
I0
sg7
I4912999
sg8
I96
sg9
I1
sg10
I65
sg11
I2
sg12
F6.5
sa(dp1603
g2
I93
sg3
I5358
sg4
I0
sg5
I4
sg6
I0
sg7
I35121348
sg8
I83
sg9
I1
sg10
I18
sg11
I1
sg12
F4.0
sa(dp1604
g2
I539
sg3
I5722
sg4
I0
sg5
I12
sg6
I1
sg7
I35036528
sg8
I78
sg9
I2
sg10
I99
sg11
I2
sg12
F6.0
sa(dp1605
g2
I810
sg3
I2861
sg4
I0
sg5
I3
sg6
I3
sg7
I20159305
sg8
I85
sg9
I3
sg10
I127
sg11
I1
sg12
F3.0
sa(dp1606
g2
I1323
sg3
I14322
sg4
I0
sg5
I130
sg6
I1
sg7
I11641388
sg8
I28
sg9
I6
sg10
I198
sg11
I10
sg12
F13.0
sa(dp1607
g2
I321
sg3
I53328
sg4
I0
sg5
I0
sg6
I0
sg7
I1435426
sg8
I57
sg9
I2
sg10
I51
sg11
I0
sg12
I0
sa(dp1608
g2
I963
sg3
I13312
sg4
I0
sg5
I0
sg6
I3
sg7
I6567266
sg8
I6
sg9
I1
sg10
I141
sg11
I0
sg12
I0
sa(dp1609
g2
I932
sg3
I7576
sg4
I0
sg5
I0
sg6
I3
sg7
I11270687
sg8
I26
sg9
I4
sg10
I159
sg11
I0
sg12
I0
sa(dp1610
g2
I322
sg3
I141259
sg4
I0
sg5
I0
sg6
I0
sg7
I4548711
sg8
I76
sg9
I1
sg10
I67
sg11
I0
sg12
I0
sa(dp1611
g2
I187
sg3
I199917
sg4
I0
sg5
I3
sg6
I0
sg7
I8237659
sg8
I82
sg9
I1
sg10
I37
sg11
I1
sg12
F3.0
sa(dp1612
g2
I597
sg3
I70085
sg4
I0
sg5
I2
sg6
I0
sg7
I7391991
sg8
I124
sg9
I1
sg10
I115
sg11
I2
sg12
F1.0
sa(dp1613
g2
I409
sg3
I153572
sg4
I0
sg5
I12
sg6
I0
sg7
I11250884
sg8
I130
sg9
I0
sg10
I68
sg11
I4
sg12
F3.0
sa(dp1614
g2
I68
sg3
I59845
sg4
I0
sg5
I4
sg6
I0
sg7
I2357251
sg8
I160
sg9
I1
sg10
I12
sg11
I1
sg12
F4.0
sa(dp1615
g2
I191
sg3
I53489
sg4
I0
sg5
I0
sg6
I0
sg7
I2831242
sg8
I111
sg9
I2
sg10
I32
sg11
I0
sg12
I0
sa(dp1616
g2
I141
sg3
I97442
sg4
I0
sg5
I3
sg6
I0
sg7
I2059025
sg8
I174
sg9
I2
sg10
I27
sg11
I2
sg12
F1.5
sa(dp1617
g2
I78
sg3
I42011
sg4
I0
sg5
I0
sg6
I0
sg7
I919067
sg8
I120
sg9
I1
sg10
I11
sg11
I0
sg12
I0
sa(dp1618
g2
I105
sg3
I191046
sg4
I0
sg5
I0
sg6
I0
sg7
I2918370
sg8
I98
sg9
I1
sg10
I22
sg11
I0
sg12
I0
sa(dp1619
g2
I134
sg3
I130767
sg4
I0
sg5
I23
sg6
I0
sg7
I64890
sg8
I86
sg9
I1
sg10
I25
sg11
I1
sg12
F23.0
sa(dp1620
g2
I144
sg3
I139629
sg4
I0
sg5
I3
sg6
I0
sg7
I10996196
sg8
I126
sg9
I1
sg10
I30
sg11
I1
sg12
F3.0
sa(dp1621
g2
I176
sg3
I10040
sg4
I0
sg5
I0
sg6
I1
sg7
I12549306
sg8
I159
sg9
I0
sg10
I39
sg11
I0
sg12
I0
sa(dp1622
g2
I213
sg3
I70640
sg4
I0
sg5
I7
sg6
I0
sg7
I6967491
sg8
I121
sg9
I1
sg10
I31
sg11
I3
sg12
F2.3333333333333335
sa(dp1623
g2
I387
sg3
I87152
sg4
I0
sg5
I35
sg6
I0
sg7
I40208762
sg8
I94
sg9
I1
sg10
I70
sg11
I2
sg12
F17.5
sa(dp1624
g2
I218
sg3
I20353
sg4
I0
sg5
I0
sg6
I2
sg7
I32558710
sg8
I122
sg9
I1
sg10
I43
sg11
I0
sg12
I0
sa(dp1625
g2
I1649
sg3
I24755
sg4
I1
sg5
I30
sg6
I1
sg7
I7614252
sg8
I40
sg9
I3
sg10
I261
sg11
I7
sg12
F4.285714285714286
sa(dp1626
g2
I788
sg3
I27573
sg4
I0
sg5
I5
sg6
I1
sg7
I8406391
sg8
I115
sg9
I1
sg10
I123
sg11
I2
sg12
F2.5
sa(dp1627
g2
I549
sg3
I74512
sg4
I0
sg5
I8
sg6
I0
sg7
I376508
sg8
I48
sg9
I2
sg10
I88
sg11
I1
sg12
F8.0
sa(dp1628
g2
I227
sg3
I47260
sg4
I0
sg5
I0
sg6
I1
sg7
I1109866
sg8
I38
sg9
I0
sg10
I38
sg11
I0
sg12
I0
sa(dp1629
g2
I289
sg3
I41232
sg4
I0
sg5
I0
sg6
I0
sg7
I3324124
sg8
I44
sg9
I2
sg10
I44
sg11
I0
sg12
I0
sa(dp1630
g2
I199
sg3
I45031
sg4
I0
sg5
I2
sg6
I0
sg7
I26672182
sg8
I76
sg9
I1
sg10
I30
sg11
I2
sg12
F1.0
sa(dp1631
g2
I640
sg3
I210524
sg4
I0
sg5
I0
sg6
I0
sg7
I17954487
sg8
I74
sg9
I3
sg10
I89
sg11
I0
sg12
I0
sa(dp1632
g2
I438
sg3
I144949
sg4
I0
sg5
I7
sg6
I0
sg7
I4527978
sg8
I78
sg9
I2
sg10
I81
sg11
I2
sg12
F3.5
sa(dp1633
g2
I335
sg3
I74671
sg4
I0
sg5
I8
sg6
I2
sg7
I28002687
sg8
I259
sg9
I0
sg10
I46
sg11
I3
sg12
F2.6666666666666665
sa(dp1634
g2
I171
sg3
I47944
sg4
I0
sg5
I6
sg6
I0
sg7
I6996358
sg8
I163
sg9
I1
sg10
I37
sg11
I2
sg12
F3.0
sa(dp1635
g2
I236
sg3
I95023
sg4
I0
sg5
I11
sg6
I0
sg7
I20868446
sg8
I163
sg9
I0
sg10
I40
sg11
I3
sg12
F3.6666666666666665
sa(dp1636
g2
I225
sg3
I81084
sg4
I0
sg5
I43
sg6
I0
sg7
I17315921
sg8
I138
sg9
I2
sg10
I37
sg11
I2
sg12
F21.5
sa(dp1637
g2
I729
sg3
I31052
sg4
I0
sg5
I11
sg6
I0
sg7
I1015405
sg8
I130
sg9
I2
sg10
I127
sg11
I1
sg12
F11.0
sa(dp1638
g2
I663
sg3
I47585
sg4
I0
sg5
I8
sg6
I0
sg7
I690625
sg8
I176
sg9
I2
sg10
I124
sg11
I1
sg12
F8.0
sa(dp1639
g2
I702
sg3
I72563
sg4
I0
sg5
I0
sg6
I0
sg7
I10628360
sg8
I86
sg9
I1
sg10
I134
sg11
I0
sg12
I0
sa(dp1640
g2
I1669
sg3
I117974
sg4
I0
sg5
I3
sg6
I0
sg7
I4632022
sg8
I114
sg9
I0
sg10
I298
sg11
I2
sg12
F1.5
sa(dp1641
g2
I246
sg3
I19228
sg4
I0
sg5
I4
sg6
I0
sg7
I6234491
sg8
I82
sg9
I1
sg10
I44
sg11
I1
sg12
F4.0
sa(dp1642
g2
I489
sg3
I77431
sg4
I0
sg5
I1
sg6
I0
sg7
I4396247
sg8
I66
sg9
I2
sg10
I102
sg11
I1
sg12
F1.0
sa(dp1643
g2
I207
sg3
I68745
sg4
I0
sg5
I0
sg6
I0
sg7
I1392549
sg8
I120
sg9
I1
sg10
I36
sg11
I0
sg12
I0
sa(dp1644
g2
I188
sg3
I56833
sg4
I0
sg5
I0
sg6
I0
sg7
I1418419
sg8
I81
sg9
I4
sg10
I33
sg11
I0
sg12
I0
sa(dp1645
g2
I220
sg3
I47277
sg4
I0
sg5
I0
sg6
I0
sg7
I13710667
sg8
I114
sg9
I1
sg10
I47
sg11
I0
sg12
I0
sa(dp1646
g2
I435
sg3
I58770
sg4
I0
sg5
I0
sg6
I1
sg7
I14853417
sg8
I133
sg9
I0
sg10
I82
sg11
I0
sg12
I0
sa(dp1647
g2
I551
sg3
I7363
sg4
I0
sg5
I11
sg6
I0
sg7
I4199355
sg8
I116
sg9
I1
sg10
I91
sg11
I1
sg12
F11.0
sa(dp1648
g2
I1236
sg3
I66379
sg4
I0
sg5
I0
sg6
I0
sg7
I8594831
sg8
I57
sg9
I2
sg10
I228
sg11
I0
sg12
I0
sa(dp1649
g2
I335
sg3
I41561
sg4
I0
sg5
I21
sg6
I0
sg7
I1408476
sg8
I97
sg9
I1
sg10
I60
sg11
I1
sg12
F21.0
sa(dp1650
g2
I280
sg3
I261860
sg4
I0
sg5
I1
sg6
I0
sg7
I4960216
sg8
I149
sg9
I1
sg10
I52
sg11
I1
sg12
F1.0
sa(dp1651
g2
I366
sg3
I32251
sg4
I0
sg5
I0
sg6
I0
sg7
I360634
sg8
I87
sg9
I4
sg10
I66
sg11
I0
sg12
I0
sa(dp1652
g2
I515
sg3
I77108
sg4
I0
sg5
I1
sg6
I0
sg7
I5861694
sg8
I62
sg9
I2
sg10
I89
sg11
I1
sg12
F1.0
sa(dp1653
g2
I657
sg3
I88235
sg4
I0
sg5
I9
sg6
I0
sg7
I16815056
sg8
I112
sg9
I1
sg10
I121
sg11
I2
sg12
F4.5
sa(dp1654
g2
I105
sg3
I18787
sg4
I0
sg5
I4
sg6
I0
sg7
I22864250
sg8
I121
sg9
I1
sg10
I19
sg11
I1
sg12
F4.0
sa(dp1655
g2
I292
sg3
I2222
sg4
I0
sg5
I5
sg6
I0
sg7
I10530415
sg8
I104
sg9
I2
sg10
I51
sg11
I1
sg12
F5.0
sa(dp1656
g2
I757
sg3
I35528
sg4
I0
sg5
I3
sg6
I0
sg7
I3611987
sg8
I54
sg9
I0
sg10
I127
sg11
I1
sg12
F3.0
sa(dp1657
g2
I191
sg3
I82992
sg4
I0
sg5
I5
sg6
I0
sg7
I10741692
sg8
I68
sg9
I1
sg10
I35
sg11
I1
sg12
F5.0
sa(dp1658
g2
I362
sg3
I13960
sg4
I0
sg5
I0
sg6
I0
sg7
I1099367
sg8
I167
sg9
I1
sg10
I61
sg11
I0
sg12
I0
sa(dp1659
g2
I60
sg3
I97982
sg4
I0
sg5
I0
sg6
I0
sg7
I1451407
sg8
I89
sg9
I1
sg10
I9
sg11
I0
sg12
I0
sa(dp1660
g2
I177
sg3
I42222
sg4
I0
sg5
I4
sg6
I0
sg7
I17388505
sg8
I216
sg9
I1
sg10
I27
sg11
I2
sg12
F2.0
sa(dp1661
g2
I598
sg3
I72277
sg4
I0
sg5
I2
sg6
I3
sg7
I3306887
sg8
I22
sg9
I2
sg10
I109
sg11
I2
sg12
F1.0
sa(dp1662
g2
I145
sg3
I81806
sg4
I0
sg5
I12
sg6
I0
sg7
I9706045
sg8
I101
sg9
I1
sg10
I21
sg11
I2
sg12
F6.0
sa(dp1663
g2
I1665
sg3
I32646
sg4
I0
sg5
I0
sg6
I0
sg7
I144864
sg8
I15
sg9
I0
sg10
I264
sg11
I0
sg12
I0
sa(dp1664
g2
I96
sg3
I74924
sg4
I0
sg5
I0
sg6
I0
sg7
I8600301
sg8
I109
sg9
I1
sg10
I18
sg11
I0
sg12
I0
sa(dp1665
g2
I51
sg3
I68300
sg4
I0
sg5
I0
sg6
I0
sg7
I1726431
sg8
I134
sg9
I1
sg10
I9
sg11
I0
sg12
I0
sa(dp1666
g2
I410
sg3
I61611
sg4
I0
sg5
I0
sg6
I0
sg7
I9202236
sg8
I138
sg9
I2
sg10
I80
sg11
I0
sg12
I0
sa(dp1667
g2
I251
sg3
I81548
sg4
I0
sg5
I0
sg6
I0
sg7
I3411435
sg8
I99
sg9
I1
sg10
I48
sg11
I0
sg12
I0
sa(dp1668
g2
I1076
sg3
I59070
sg4
I0
sg5
I0
sg6
I1
sg7
I6710264
sg8
I123
sg9
I2
sg10
I107
sg11
I0
sg12
I0
sa(dp1669
g2
I415
sg3
I119304
sg4
I0
sg5
I3
sg6
I0
sg7
I3476768
sg8
I132
sg9
I1
sg10
I76
sg11
I1
sg12
F3.0
sa(dp1670
g2
I37
sg3
I131488
sg4
I0
sg5
I5
sg6
I0
sg7
I2158454
sg8
I114
sg9
I1
sg10
I7
sg11
I2
sg12
F2.5
sa(dp1671
g2
I462
sg3
I93619
sg4
I0
sg5
I16
sg6
I0
sg7
I14257599
sg8
I149
sg9
I0
sg10
I86
sg11
I1
sg12
F16.0
sa(dp1672
g2
I240
sg3
I76807
sg4
I0
sg5
I3
sg6
I0
sg7
I20491748
sg8
I178
sg9
I1
sg10
I48
sg11
I2
sg12
F1.5
sa(dp1673
g2
I320
sg3
I22056
sg4
I0
sg5
I6
sg6
I0
sg7
I12818237
sg8
I152
sg9
I1
sg10
I51
sg11
I1
sg12
F6.0
sa(dp1674
g2
I232
sg3
I33734
sg4
I0
sg5
I7
sg6
I0
sg7
I1532035
sg8
I61
sg9
I1
sg10
I38
sg11
I1
sg12
F7.0
sa(dp1675
g2
I1637
sg3
I18088
sg4
I0
sg5
I13
sg6
I3
sg7
I4859181
sg8
I96
sg9
I2
sg10
I310
sg11
I1
sg12
F13.0
sa(dp1676
g2
I145
sg3
I54186
sg4
I0
sg5
I0
sg6
I0
sg7
I765990
sg8
I95
sg9
I0
sg10
I30
sg11
I0
sg12
I0
sa(dp1677
g2
I191
sg3
I31810
sg4
I0
sg5
I0
sg6
I1
sg7
I8463046
sg8
I151
sg9
I4
sg10
I35
sg11
I0
sg12
I0
sa(dp1678
g2
I350
sg3
I19095
sg4
I0
sg5
I0
sg6
I0
sg7
I14414325
sg8
I111
sg9
I1
sg10
I65
sg11
I0
sg12
I0
sa(dp1679
g2
I668
sg3
I25566
sg4
I0
sg5
I0
sg6
I4
sg7
I8532188
sg8
I83
sg9
I1
sg10
I112
sg11
I0
sg12
I0
sa(dp1680
g2
I404
sg3
I5839
sg4
I0
sg5
I2
sg6
I0
sg7
I38295695
sg8
I111
sg9
I2
sg10
I66
sg11
I2
sg12
F1.0
sa(dp1681
g2
I529
sg3
I58254
sg4
I0
sg5
I28
sg6
I0
sg7
I17015303
sg8
I79
sg9
I1
sg10
I93
sg11
I4
sg12
F7.0
sa(dp1682
g2
I257
sg3
I81279
sg4
I0
sg5
I15
sg6
I0
sg7
I9786225
sg8
I79
sg9
I2
sg10
I43
sg11
I1
sg12
F15.0
sa(dp1683
g2
I1090
sg3
I26446
sg4
I0
sg5
I0
sg6
I1
sg7
I15101229
sg8
I61
sg9
I4
sg10
I190
sg11
I0
sg12
I0
sa(dp1684
g2
I192
sg3
I64193
sg4
I0
sg5
I0
sg6
I0
sg7
I24147363
sg8
I89
sg9
I0
sg10
I35
sg11
I0
sg12
I0
sa(dp1685
g2
I285
sg3
I75507
sg4
I0
sg5
I12
sg6
I0
sg7
I1034633
sg8
I45
sg9
I1
sg10
I44
sg11
I2
sg12
F6.0
sa(dp1686
g2
I183
sg3
I81002
sg4
I0
sg5
I0
sg6
I0
sg7
I26428562
sg8
I195
sg9
I1
sg10
I33
sg11
I0
sg12
I0
sa(dp1687
g2
I1
sg3
I61347
sg4
I0
sg5
I2
sg6
I0
sg7
I3090342
sg8
I138
sg9
I0
sg10
I0
sg11
I1
sg12
F2.0
sa(dp1688
g2
I567
sg3
I66859
sg4
I0
sg5
I2
sg6
I2
sg7
I11855133
sg8
I159
sg9
I1
sg10
I101
sg11
I1
sg12
F2.0
sa(dp1689
g2
I347
sg3
I21711
sg4
I0
sg5
I2
sg6
I0
sg7
I4546129
sg8
I208
sg9
I1
sg10
I59
sg11
I1
sg12
F2.0
sa(dp1690
g2
I46
sg3
I64904
sg4
I0
sg5
I0
sg6
I0
sg7
I2759331
sg8
I129
sg9
I0
sg10
I8
sg11
I0
sg12
I0
sa(dp1691
g2
I284
sg3
I73207
sg4
I0
sg5
I0
sg6
I0
sg7
I309783
sg8
I102
sg9
I2
sg10
I51
sg11
I0
sg12
I0
sa(dp1692
g2
I236
sg3
I63935
sg4
I0
sg5
I13
sg6
I0
sg7
I21232849
sg8
I93
sg9
I3
sg10
I45
sg11
I1
sg12
F13.0
sa(dp1693
g2
I332
sg3
I74875
sg4
I0
sg5
I0
sg6
I1
sg7
I4558901
sg8
I66
sg9
I1
sg10
I59
sg11
I0
sg12
I0
sa(dp1694
g2
I556
sg3
I202254
sg4
I0
sg5
I0
sg6
I0
sg7
I16503807
sg8
I87
sg9
I0
sg10
I101
sg11
I1
sg12
F0.0
sa(dp1695
g2
I312
sg3
I31637
sg4
I0
sg5
I20
sg6
I0
sg7
I6822773
sg8
I72
sg9
I1
sg10
I50
sg11
I1
sg12
F20.0
sa(dp1696
g2
I613
sg3
I90271
sg4
I0
sg5
I3
sg6
I1
sg7
I3170331
sg8
I126
sg9
I3
sg10
I102
sg11
I3
sg12
F1.0
sa(dp1697
g2
I151
sg3
I34292
sg4
I0
sg5
I1
sg6
I0
sg7
I3790862
sg8
I160
sg9
I1
sg10
I26
sg11
I1
sg12
F1.0
sa(dp1698
g2
I292
sg3
I57558
sg4
I0
sg5
I0
sg6
I1
sg7
I7127162
sg8
I135
sg9
I2
sg10
I53
sg11
I0
sg12
I0
sa(dp1699
g2
I229
sg3
I43234
sg4
I0
sg5
I11
sg6
I0
sg7
I4741269
sg8
I126
sg9
I1
sg10
I38
sg11
I3
sg12
F3.6666666666666665
sa(dp1700
g2
I689
sg3
I5840
sg4
I0
sg5
I23
sg6
I1
sg7
I42108043
sg8
I94
sg9
I2
sg10
I107
sg11
I4
sg12
F5.75
sa(dp1701
g2
I300
sg3
I101586
sg4
I0
sg5
I3
sg6
I0
sg7
I7784214
sg8
I110
sg9
I2
sg10
I53
sg11
I1
sg12
F3.0
sa(dp1702
g2
I269
sg3
I34249
sg4
I0
sg5
I0
sg6
I0
sg7
I3095124
sg8
I72
sg9
I2
sg10
I47
sg11
I0
sg12
I0
sa(dp1703
g2
I411
sg3
I51049
sg4
I0
sg5
I0
sg6
I0
sg7
I1857436
sg8
I89
sg9
I2
sg10
I81
sg11
I0
sg12
I0
sa(dp1704
g2
I114
sg3
I21693
sg4
I0
sg5
I0
sg6
I0
sg7
I15879527
sg8
I59
sg9
I2
sg10
I21
sg11
I0
sg12
I0
sa(dp1705
g2
I1223
sg3
I57236
sg4
I2
sg5
I0
sg6
I4
sg7
I1720766
sg8
I10
sg9
I1
sg10
I198
sg11
I0
sg12
I0
sa(dp1706
g2
I125
sg3
I10478
sg4
I0
sg5
I0
sg6
I1
sg7
I3439921
sg8
I40
sg9
I1
sg10
I19
sg11
I0
sg12
I0
sa(dp1707
g2
I207
sg3
I38386
sg4
I0
sg5
I2
sg6
I0
sg7
I17938407
sg8
I65
sg9
I1
sg10
I34
sg11
I1
sg12
F2.0
sa(dp1708
g2
I94
sg3
I106200
sg4
I0
sg5
I0
sg6
I0
sg7
I802146
sg8
I54
sg9
I1
sg10
I16
sg11
I0
sg12
I0
sa(dp1709
g2
I340
sg3
I85951
sg4
I0
sg5
I0
sg6
I0
sg7
I10411424
sg8
I123
sg9
I1
sg10
I71
sg11
I0
sg12
I0
sa(dp1710
g2
I193
sg3
I33482
sg4
I0
sg5
I19
sg6
I1
sg7
I26664184
sg8
I130
sg9
I0
sg10
I31
sg11
I1
sg12
F19.0
sa(dp1711
g2
I333
sg3
I58076
sg4
I0
sg5
I7
sg6
I0
sg7
I1317837
sg8
I123
sg9
I2
sg10
I64
sg11
I2
sg12
F3.5
sa(dp1712
g2
I731
sg3
I30925
sg4
I0
sg5
I8
sg6
I0
sg7
I393059
sg8
I26
sg9
I0
sg10
I119
sg11
I1
sg12
F8.0
sa(dp1713
g2
I286
sg3
I74063
sg4
I0
sg5
I0
sg6
I0
sg7
I1403693
sg8
I154
sg9
I2
sg10
I58
sg11
I0
sg12
I0
sa(dp1714
g2
I163
sg3
I50598
sg4
I0
sg5
I4
sg6
I0
sg7
I990450
sg8
I95
sg9
I1
sg10
I30
sg11
I2
sg12
F2.0
sa(dp1715
g2
I65
sg3
I25782
sg4
I0
sg5
I3
sg6
I0
sg7
I2010732
sg8
I147
sg9
I2
sg10
I10
sg11
I1
sg12
F3.0
sa(dp1716
g2
I178
sg3
I19113
sg4
I0
sg5
I13
sg6
I0
sg7
I8250143
sg8
I50
sg9
I1
sg10
I28
sg11
I3
sg12
F4.333333333333333
sa(dp1717
g2
I204
sg3
I30225
sg4
I0
sg5
I0
sg6
I0
sg7
I18671336
sg8
I150
sg9
I0
sg10
I40
sg11
I0
sg12
I0
sa(dp1718
g2
I574
sg3
I67779
sg4
I0
sg5
I9
sg6
I1
sg7
I4418193
sg8
I54
sg9
I1
sg10
I100
sg11
I1
sg12
F9.0
sa(dp1719
g2
I70
sg3
I53566
sg4
I0
sg5
I3
sg6
I0
sg7
I6473724
sg8
I119
sg9
I0
sg10
I8
sg11
I3
sg12
F1.0
sa(dp1720
g2
I345
sg3
I90963
sg4
I0
sg5
I0
sg6
I0
sg7
I157975
sg8
I68
sg9
I1
sg10
I62
sg11
I0
sg12
I0
sa(dp1721
g2
I134
sg3
I8834
sg4
I0
sg5
I11
sg6
I0
sg7
I36603274
sg8
I113
sg9
I0
sg10
I21
sg11
I2
sg12
F5.5
sa(dp1722
g2
I185
sg3
I53875
sg4
I0
sg5
I0
sg6
I0
sg7
I642988
sg8
I146
sg9
I1
sg10
I32
sg11
I0
sg12
I0
sa(dp1723
g2
I286
sg3
I97966
sg4
I0
sg5
I5
sg6
I0
sg7
I317421
sg8
I111
sg9
I1
sg10
I53
sg11
I2
sg12
F2.5
sa(dp1724
g2
I447
sg3
I53340
sg4
I0
sg5
I12
sg6
I0
sg7
I15735146
sg8
I120
sg9
I1
sg10
I76
sg11
I2
sg12
F6.0
sa(dp1725
g2
I352
sg3
I62999
sg4
I0
sg5
I0
sg6
I0
sg7
I19962822
sg8
I175
sg9
I0
sg10
I55
sg11
I0
sg12
I0
sa(dp1726
g2
I395
sg3
I64468
sg4
I0
sg5
I15
sg6
I0
sg7
I2714590
sg8
I119
sg9
I0
sg10
I63
sg11
I2
sg12
F7.5
sa(dp1727
g2
I514
sg3
I88137
sg4
I0
sg5
I0
sg6
I0
sg7
I919928
sg8
I103
sg9
I1
sg10
I84
sg11
I0
sg12
I0
sa(dp1728
g2
I294
sg3
I36025
sg4
I0
sg5
I0
sg6
I0
sg7
I7288019
sg8
I106
sg9
I2
sg10
I57
sg11
I0
sg12
I0
sa(dp1729
g2
I242
sg3
I58371
sg4
I0
sg5
I0
sg6
I0
sg7
I14823968
sg8
I134
sg9
I2
sg10
I39
sg11
I0
sg12
I0
sa(dp1730
g2
I396
sg3
I85113
sg4
I0
sg5
I0
sg6
I0
sg7
I9744811
sg8
I149
sg9
I1
sg10
I67
sg11
I0
sg12
I0
sa(dp1731
g2
I326
sg3
I56037
sg4
I0
sg5
I4
sg6
I1
sg7
I2725195
sg8
I94
sg9
I1
sg10
I58
sg11
I2
sg12
F2.0
sa(dp1732
g2
I162
sg3
I47137
sg4
I0
sg5
I0
sg6
I0
sg7
I1605673
sg8
I99
sg9
I1
sg10
I33
sg11
I0
sg12
I0
sa(dp1733
g2
I418
sg3
I43726
sg4
I0
sg5
I0
sg6
I2
sg7
I2557196
sg8
I98
sg9
I1
sg10
I74
sg11
I0
sg12
I0
sa(dp1734
g2
I143
sg3
I13083
sg4
I0
sg5
I0
sg6
I0
sg7
I5296992
sg8
I95
sg9
I2
sg10
I26
sg11
I0
sg12
I0
sa(dp1735
g2
I1581
sg3
I20364
sg4
I0
sg5
I0
sg6
I0
sg7
I1935686
sg8
I19
sg9
I0
sg10
I265
sg11
I0
sg12
I0
sa(dp1736
g2
I236
sg3
I158196
sg4
I0
sg5
I3
sg6
I0
sg7
I5447509
sg8
I71
sg9
I3
sg10
I40
sg11
I1
sg12
F3.0
sa(dp1737
g2
I284
sg3
I95136
sg4
I0
sg5
I2
sg6
I0
sg7
I17987782
sg8
I129
sg9
I1
sg10
I49
sg11
I1
sg12
F2.0
sa(dp1738
g2
I190
sg3
I79789
sg4
I0
sg5
I0
sg6
I0
sg7
I3783546
sg8
I154
sg9
I1
sg10
I39
sg11
I0
sg12
I0
sa(dp1739
g2
I224
sg3
I61267
sg4
I0
sg5
I0
sg6
I0
sg7
I20240445
sg8
I212
sg9
I2
sg10
I38
sg11
I0
sg12
I0
sa(dp1740
g2
I797
sg3
I63796
sg4
I0
sg5
I6
sg6
I0
sg7
I35857
sg8
I53
sg9
I1
sg10
I129
sg11
I1
sg12
F6.0
sa(dp1741
g2
I452
sg3
I28886
sg4
I0
sg5
I14
sg6
I1
sg7
I6792076
sg8
I52
sg9
I1
sg10
I78
sg11
I2
sg12
F7.0
sa(dp1742
g2
I523
sg3
I178702
sg4
I0
sg5
I0
sg6
I0
sg7
I14426553
sg8
I149
sg9
I1
sg10
I82
sg11
I0
sg12
I0
sa(dp1743
g2
I186
sg3
I147618
sg4
I0
sg5
I3
sg6
I0
sg7
I5954747
sg8
I117
sg9
I0
sg10
I34
sg11
I1
sg12
F3.0
sa(dp1744
g2
I186
sg3
I15032
sg4
I0
sg5
I3
sg6
I0
sg7
I9108164
sg8
I93
sg9
I1
sg10
I30
sg11
I2
sg12
F1.5
sa(dp1745
g2
I415
sg3
I66859
sg4
I0
sg5
I1
sg6
I0
sg7
I1218951
sg8
I130
sg9
I0
sg10
I81
sg11
I1
sg12
F1.0
sa(dp1746
g2
I338
sg3
I61399
sg4
I0
sg5
I0
sg6
I2
sg7
I1316959
sg8
I79
sg9
I2
sg10
I55
sg11
I0
sg12
I0
sa(dp1747
g2
I269
sg3
I39376
sg4
I0
sg5
I17
sg6
I0
sg7
I3877312
sg8
I130
sg9
I1
sg10
I54
sg11
I1
sg12
F17.0
sa(dp1748
g2
I853
sg3
I118180
sg4
I0
sg5
I9
sg6
I0
sg7
I11709155
sg8
I98
sg9
I0
sg10
I158
sg11
I1
sg12
F9.0
sa(dp1749
g2
I232
sg3
I79659
sg4
I0
sg5
I0
sg6
I2
sg7
I868731
sg8
I132
sg9
I0
sg10
I38
sg11
I0
sg12
I0
sa(dp1750
g2
I720
sg3
I63691
sg4
I0
sg5
I3
sg6
I0
sg7
I17116976
sg8
I126
sg9
I1
sg10
I146
sg11
I1
sg12
F3.0
sa(dp1751
g2
I185
sg3
I27438
sg4
I0
sg5
I9
sg6
I0
sg7
I1277311
sg8
I112
sg9
I1
sg10
I34
sg11
I1
sg12
F9.0
sa(dp1752
g2
I170
sg3
I39061
sg4
I0
sg5
I0
sg6
I0
sg7
I6319267
sg8
I104
sg9
I1
sg10
I29
sg11
I0
sg12
I0
sa(dp1753
g2
I201
sg3
I121643
sg4
I0
sg5
I7
sg6
I0
sg7
I14037564
sg8
I138
sg9
I0
sg10
I39
sg11
I2
sg12
F3.5
sa(dp1754
g2
I634
sg3
I100042
sg4
I0
sg5
I0
sg6
I1
sg7
I3010038
sg8
I34
sg9
I1
sg10
I118
sg11
I0
sg12
I0
sa(dp1755
g2
I1130
sg3
I46649
sg4
I0
sg5
I0
sg6
I3
sg7
I574015
sg8
I41
sg9
I2
sg10
I185
sg11
I0
sg12
I0
sa(dp1756
g2
I193
sg3
I152363
sg4
I0
sg5
I0
sg6
I0
sg7
I19801806
sg8
I43
sg9
I1
sg10
I39
sg11
I0
sg12
I0
sa(dp1757
g2
I152
sg3
I146880
sg4
I0
sg5
I6
sg6
I0
sg7
I4676478
sg8
I139
sg9
I0
sg10
I26
sg11
I1
sg12
F6.0
sa(dp1758
g2
I249
sg3
I36602
sg4
I0
sg5
I0
sg6
I1
sg7
I2676904
sg8
I135
sg9
I1
sg10
I47
sg11
I0
sg12
I0
sa(dp1759
g2
I276
sg3
I34180
sg4
I0
sg5
I0
sg6
I1
sg7
I9872434
sg8
I122
sg9
I3
sg10
I43
sg11
I0
sg12
I0
sa(dp1760
g2
I578
sg3
I24846
sg4
I0
sg5
I0
sg6
I0
sg7
I1098160
sg8
I60
sg9
I4
sg10
I105
sg11
I0
sg12
I0
sa(dp1761
g2
I410
sg3
I99634
sg4
I0
sg5
I0
sg6
I2
sg7
I498130
sg8
I81
sg9
I0
sg10
I72
sg11
I0
sg12
I0
sa(dp1762
g2
I346
sg3
I61160
sg4
I0
sg5
I4
sg6
I0
sg7
I1630350
sg8
I74
sg9
I1
sg10
I66
sg11
I1
sg12
F4.0
sa(dp1763
g2
I542
sg3
I133570
sg4
I0
sg5
I12
sg6
I0
sg7
I14956465
sg8
I107
sg9
I1
sg10
I89
sg11
I2
sg12
F6.0
sa(dp1764
g2
I221
sg3
I55141
sg4
I0
sg5
I1
sg6
I0
sg7
I5292332
sg8
I99
sg9
I2
sg10
I36
sg11
I1
sg12
F1.0
sa(dp1765
g2
I149
sg3
I39990
sg4
I0
sg5
I0
sg6
I0
sg7
I3267069
sg8
I56
sg9
I1
sg10
I29
sg11
I0
sg12
I0
sa(dp1766
g2
I1168
sg3
I21576
sg4
I0
sg5
I4
sg6
I0
sg7
I2164224
sg8
I82
sg9
I1
sg10
I211
sg11
I2
sg12
F2.0
sa(dp1767
g2
I429
sg3
I99136
sg4
I0
sg5
I0
sg6
I0
sg7
I17535694
sg8
I89
sg9
I0
sg10
I73
sg11
I0
sg12
I0
sa(dp1768
g2
I275
sg3
I60585
sg4
I0
sg5
I3
sg6
I0
sg7
I18272249
sg8
I71
sg9
I2
sg10
I57
sg11
I1
sg12
F3.0
sa(dp1769
g2
I219
sg3
I89854
sg4
I0
sg5
I4
sg6
I0
sg7
I1520716
sg8
I60
sg9
I1
sg10
I39
sg11
I1
sg12
F4.0
sa(dp1770
g2
I103
sg3
I63290
sg4
I0
sg5
I1
sg6
I0
sg7
I879208
sg8
I74
sg9
I2
sg10
I20
sg11
I1
sg12
F1.0
sa(dp1771
g2
I592
sg3
I60209
sg4
I0
sg5
I1
sg6
I1
sg7
I10664192
sg8
I77
sg9
I3
sg10
I96
sg11
I1
sg12
F1.0
sa(dp1772
g2
I401
sg3
I112686
sg4
I0
sg5
I1
sg6
I0
sg7
I19385591
sg8
I103
sg9
I0
sg10
I83
sg11
I1
sg12
F1.0
sa(dp1773
g2
I161
sg3
I106619
sg4
I0
sg5
I4
sg6
I0
sg7
I10411108
sg8
I182
sg9
I1
sg10
I37
sg11
I2
sg12
F2.0
sa(dp1774
g2
I437
sg3
I196580
sg4
I0
sg5
I1
sg6
I0
sg7
I7771071
sg8
I178
sg9
I1
sg10
I87
sg11
I1
sg12
F1.0
sa(dp1775
g2
I442
sg3
I31104
sg4
I0
sg5
I10
sg6
I0
sg7
I10518040
sg8
I89
sg9
I0
sg10
I60
sg11
I1
sg12
F10.0
sa(dp1776
g2
I280
sg3
I3763
sg4
I0
sg5
I7
sg6
I1
sg7
I36085637
sg8
I123
sg9
I1
sg10
I47
sg11
I2
sg12
F3.5
sa(dp1777
g2
I311
sg3
I39076
sg4
I0
sg5
I4
sg6
I2
sg7
I6290946
sg8
I38
sg9
I0
sg10
I55
sg11
I4
sg12
F1.0
sa(dp1778
g2
I152
sg3
I83953
sg4
I0
sg5
I0
sg6
I0
sg7
I855455
sg8
I136
sg9
I2
sg10
I28
sg11
I0
sg12
I0
sa(dp1779
g2
I197
sg3
I102330
sg4
I0
sg5
I0
sg6
I0
sg7
I2632251
sg8
I105
sg9
I1
sg10
I38
sg11
I0
sg12
I0
sa(dp1780
g2
I490
sg3
I97287
sg4
I0
sg5
I2
sg6
I0
sg7
I384926
sg8
I104
sg9
I1
sg10
I90
sg11
I1
sg12
F2.0
sa(dp1781
g2
I188
sg3
I109609
sg4
I0
sg5
I6
sg6
I0
sg7
I23110401
sg8
I187
sg9
I0
sg10
I36
sg11
I1
sg12
F6.0
sa(dp1782
g2
I263
sg3
I57220
sg4
I0
sg5
I2
sg6
I0
sg7
I13418954
sg8
I167
sg9
I2
sg10
I47
sg11
I2
sg12
F1.0
sa(dp1783
g2
I125
sg3
I122663
sg4
I0
sg5
I0
sg6
I1
sg7
I43331
sg8
I32
sg9
I1
sg10
I24
sg11
I0
sg12
I0
sa(dp1784
g2
I371
sg3
I14602
sg4
I0
sg5
I5
sg6
I2
sg7
I17352583
sg8
I35
sg9
I0
sg10
I64
sg11
I1
sg12
F5.0
sa(dp1785
g2
I243
sg3
I27793
sg4
I0
sg5
I4
sg6
I0
sg7
I1271481
sg8
I57
sg9
I0
sg10
I38
sg11
I1
sg12
F4.0
sa(dp1786
g2
I357
sg3
I85742
sg4
I0
sg5
I2
sg6
I0
sg7
I6873956
sg8
I158
sg9
I0
sg10
I64
sg11
I1
sg12
F2.0
sa(dp1787
g2
I251
sg3
I36988
sg4
I0
sg5
I0
sg6
I0
sg7
I9031848
sg8
I167
sg9
I1
sg10
I42
sg11
I0
sg12
I0
sa(dp1788
g2
I197
sg3
I95037
sg4
I0
sg5
I13
sg6
I0
sg7
I18023468
sg8
I106
sg9
I2
sg10
I37
sg11
I2
sg12
F6.5
sa(dp1789
g2
I381
sg3
I186058
sg4
I0
sg5
I13
sg6
I0
sg7
I11555509
sg8
I135
sg9
I2
sg10
I58
sg11
I4
sg12
F3.25
sa(dp1790
g2
I255
sg3
I76429
sg4
I0
sg5
I12
sg6
I0
sg7
I3969772
sg8
I95
sg9
I1
sg10
I44
sg11
I1
sg12
F12.0
sa(dp1791
g2
I125
sg3
I41837
sg4
I0
sg5
I0
sg6
I0
sg7
I19126329
sg8
I113
sg9
I2
sg10
I21
sg11
I0
sg12
I0
sa(dp1792
g2
I356
sg3
I105911
sg4
I0
sg5
I11
sg6
I0
sg7
I620397
sg8
I20
sg9
I1
sg10
I66
sg11
I1
sg12
F11.0
sa(dp1793
g2
I154
sg3
I60891
sg4
I0
sg5
I8
sg6
I1
sg7
I6739807
sg8
I135
sg9
I0
sg10
I33
sg11
I2
sg12
F4.0
sa(dp1794
g2
I125
sg3
I68184
sg4
I0
sg5
I4
sg6
I0
sg7
I14050282
sg8
I103
sg9
I0
sg10
I20
sg11
I1
sg12
F4.0
sa(dp1795
g2
I401
sg3
I45580
sg4
I0
sg5
I19
sg6
I0
sg7
I11816038
sg8
I127
sg9
I2
sg10
I69
sg11
I2
sg12
F9.5
sa(dp1796
g2
I2114
sg3
I97660
sg4
I0
sg5
I7
sg6
I0
sg7
I8230373
sg8
I73
sg9
I3
sg10
I373
sg11
I1
sg12
F7.0
sa(dp1797
g2
I247
sg3
I5995
sg4
I0
sg5
I0
sg6
I0
sg7
I8020342
sg8
I84
sg9
I1
sg10
I44
sg11
I0
sg12
I0
sa(dp1798
g2
I1185
sg3
I26662
sg4
I0
sg5
I11
sg6
I3
sg7
I8549884
sg8
I117
sg9
I3
sg10
I185
sg11
I1
sg12
F11.0
sa(dp1799
g2
I655
sg3
I37605
sg4
I1
sg5
I13
sg6
I2
sg7
I34969389
sg8
I40
sg9
I4
sg10
I108
sg11
I3
sg12
F4.333333333333333
sa(dp1800
g2
I369
sg3
I3414
sg4
I0
sg5
I4
sg6
I0
sg7
I29563961
sg8
I111
sg9
I1
sg10
I63
sg11
I2
sg12
F2.0
sa(dp1801
g2
I521
sg3
I46865
sg4
I0
sg5
I4
sg6
I0
sg7
I10366417
sg8
I84
sg9
I1
sg10
I82
sg11
I2
sg12
F2.0
sa(dp1802
g2
I509
sg3
I52639
sg4
I0
sg5
I0
sg6
I1
sg7
I5430
sg8
I26
sg9
I2
sg10
I86
sg11
I0
sg12
I0
sa.