(lp0
(dp1
S'englishNumChars'
p2
I273
sS'linesInEachPreCodeSnippet'
p3
(lp4
I2
asS'numberImages'
p5
I0
sS'totalLinesOfCode'
p6
I2
sS'numberLinks'
p7
I1
sS'acceptedAnswerId'
p8
I43853581
sS'numQuestionMarks'
p9
I2
sS'englishNumWords'
p10
I51
sS'numberOfCodeSnippets'
p11
I1
sS'averageLengthOfCodeSnippet'
p12
F2.0
sa(dp13
g2
I391
sg3
(lp14
I16
aI9
aI5
aI12
aI15
asg5
I0
sg6
I57
sg7
I0
sg8
I43902649
sg9
I0
sg10
I66
sg11
I5
sg12
F11.4
sa(dp15
g2
I725
sg3
(lp16
sg5
I0
sg6
I0
sg7
I4
sg8
I43881370
sg9
I2
sg10
I128
sg11
I0
sg12
I0
sa(dp17
g2
I1093
sg3
(lp18
I2
aI1
aI2
aI1
aI4
aI1
asg5
I0
sg6
I11
sg7
I0
sg8
I43823830
sg9
I1
sg10
I178
sg11
I6
sg12
F1.8333333333333333
sa(dp19
g2
I708
sg3
(lp20
I11
aI11
asg5
I0
sg6
I22
sg7
I0
sg8
I43932573
sg9
I0
sg10
I134
sg11
I2
sg12
F11.0
sa(dp21
g2
I812
sg3
(lp22
I4
asg5
I0
sg6
I4
sg7
I0
sg8
I43827372
sg9
I0
sg10
I152
sg11
I1
sg12
F4.0
sa(dp23
g2
I220
sg3
(lp24
I18
asg5
I0
sg6
I18
sg7
I0
sg8
I43948381
sg9
I2
sg10
I43
sg11
I1
sg12
F18.0
sa(dp25
g2
I700
sg3
(lp26
I6
aI6
aI23
asg5
I1
sg6
I35
sg7
I6
sg8
I43793737
sg9
I2
sg10
I118
sg11
I3
sg12
F11.666666666666666
sa(dp27
g2
I200
sg3
(lp28
I7
aI12
aI9
asg5
I0
sg6
I28
sg7
I0
sg8
I43903580
sg9
I1
sg10
I35
sg11
I3
sg12
F9.333333333333334
sa(dp29
g2
I426
sg3
(lp30
I1
asg5
I0
sg6
I1
sg7
I0
sg8
I43959935
sg9
I0
sg10
I76
sg11
I1
sg12
F1.0
sa(dp31
g2
I536
sg3
(lp32
I114
aI3
asg5
I0
sg6
I117
sg7
I0
sg8
I43787277
sg9
I0
sg10
I92
sg11
I2
sg12
F58.5
sa(dp33
g2
I1664
sg3
(lp34
I24
aI3
aI6
aI3
aI12
aI3
asg5
I0
sg6
I51
sg7
I0
sg8
I43824239
sg9
I6
sg10
I291
sg11
I6
sg12
F8.5
sa(dp35
g2
I433
sg3
(lp36
I2
asg5
I0
sg6
I2
sg7
I0
sg8
I43726205
sg9
I1
sg10
I78
sg11
I1
sg12
F2.0
sa(dp37
g2
I231
sg3
(lp38
I1
aI3
asg5
I0
sg6
I4
sg7
I0
sg8
I44012152
sg9
I0
sg10
I41
sg11
I2
sg12
F2.0
sa(dp39
g2
I793
sg3
(lp40
I4
aI13
aI4
asg5
I0
sg6
I21
sg7
I5
sg8
I43855536
sg9
I1
sg10
I135
sg11
I3
sg12
F7.0
sa(dp41
g2
I1358
sg3
(lp42
I1
aI1
aI1
aI2
aI2
aI47
aI88
asg5
I0
sg6
I142
sg7
I0
sg8
I43837911
sg9
I0
sg10
I227
sg11
I7
sg12
F20.285714285714285
sa(dp43
g2
I1330
sg3
(lp44
I5
aI2
aI2
aI2
asg5
I0
sg6
I11
sg7
I0
sg8
I43745077
sg9
I1
sg10
I247
sg11
I4
sg12
F2.75
sa(dp45
g2
I375
sg3
(lp46
I20
aI4
asg5
I0
sg6
I24
sg7
I0
sg8
I44007670
sg9
I2
sg10
I60
sg11
I2
sg12
F12.0
sa(dp47
g2
I359
sg3
(lp48
I7
aI1
aI1
asg5
I0
sg6
I9
sg7
I0
sg8
I43800778
sg9
I1
sg10
I72
sg11
I3
sg12
F3.0
sa(dp49
g2
I626
sg3
(lp50
sg5
I0
sg6
I0
sg7
I0
sg8
I43988809
sg9
I3
sg10
I105
sg11
I0
sg12
I0
sa(dp51
g2
I468
sg3
(lp52
sg5
I0
sg6
I0
sg7
I0
sg8
I43841625
sg9
I2
sg10
I83
sg11
I0
sg12
I0
sa(dp53
g2
I248
sg3
(lp54
I1
asg5
I0
sg6
I1
sg7
I0
sg8
I43723651
sg9
I0
sg10
I54
sg11
I1
sg12
F1.0
sa.