(lp0
(dp1
S'englishNumChars'
p2
I273
sS'linesInEachPreCodeSnippet'
p3
(lp4
I2
asS'numberImages'
p5
I0
sS'totalLinesOfCode'
p6
I2
sS'numberLinks'
p7
I1
sS'acceptedAnswerId'
p8
I43853581
sS'link'
p9
Vhttp://stackoverflow.com/questions/43853407/re-assigning-a-name-to-itself
p10
sS'acceptedAnswerScore'
p11
I43
sS'numQuestionMarks'
p12
I2
sS'englishNumWords'
p13
I51
sS'numberOfCodeSnippets'
p14
I1
sS'averageLengthOfCodeSnippet'
p15
F2.0
sa(dp16
g2
I391
sg3
(lp17
I16
aI9
aI5
aI12
aI15
asg5
I0
sg6
I57
sg7
I0
sg8
I43902649
sg9
Vhttp://stackoverflow.com/questions/43854049/how-to-move-and-rename-documents-placed-in-several-nested-folders-into-a-new-sin
p18
sg11
I8
sg12
I0
sg13
I66
sg14
I5
sg15
F11.4
sa(dp19
g2
I725
sg3
(lp20
sg5
I0
sg6
I0
sg7
I4
sg8
I43881370
sg9
Vhttp://stackoverflow.com/questions/43758886/can-weakref-callbacks-replace-del
p21
sg11
I2
sg12
I2
sg13
I128
sg14
I0
sg15
I0
sa(dp22
g2
I1093
sg3
(lp23
I2
aI1
aI2
aI1
aI4
aI1
asg5
I0
sg6
I11
sg7
I0
sg8
I43823830
sg9
Vhttp://stackoverflow.com/questions/43823807/why-does-using-arguments-make-this-function-so-much-slower
p24
sg11
I23
sg12
I1
sg13
I178
sg14
I6
sg15
F1.8333333333333333
sa(dp25
g2
I708
sg3
(lp26
I11
aI11
asg5
I0
sg6
I22
sg7
I0
sg8
I43932573
sg9
Vhttp://stackoverflow.com/questions/43791970/pandas-assigning-columns-with-multiple-conditions-and-date-thresholds
p27
sg11
I4
sg12
I0
sg13
I134
sg14
I2
sg15
F11.0
sa(dp28
g2
I812
sg3
(lp29
I4
asg5
I0
sg6
I4
sg7
I0
sg8
I43827372
sg9
Vhttp://stackoverflow.com/questions/43827281/python-loop-optimization
p30
sg11
I23
sg12
I0
sg13
I152
sg14
I1
sg15
F4.0
sa(dp31
g2
I220
sg3
(lp32
I18
asg5
I0
sg6
I18
sg7
I0
sg8
I43948381
sg9
Vhttp://stackoverflow.com/questions/43948359/do-something-at-the-beginning-end-of-methods
p33
sg11
I10
sg12
I2
sg13
I43
sg14
I1
sg15
F18.0
sa(dp34
g2
I700
sg3
(lp35
I6
aI6
aI23
asg5
I1
sg6
I35
sg7
I6
sg8
I43793737
sg9
Vhttp://stackoverflow.com/questions/43744910/timeseries-plot-from-csv-data-timestamp-and-events-x-label-constant
p36
sg11
I7
sg12
I2
sg13
I118
sg14
I3
sg15
F11.666666666666666
sa(dp37
g2
I200
sg3
(lp38
I7
aI12
aI9
asg5
I0
sg6
I28
sg7
I0
sg8
I43903580
sg9
Vhttp://stackoverflow.com/questions/43903437/concatenate-while-yielding
p39
sg11
I11
sg12
I1
sg13
I35
sg14
I3
sg15
F9.333333333333334
sa(dp40
g2
I426
sg3
(lp41
I1
asg5
I0
sg6
I1
sg7
I0
sg8
I43959935
sg9
Vhttp://stackoverflow.com/questions/43959719/regex-string-and-substring
p42
sg11
I8
sg12
I0
sg13
I76
sg14
I1
sg15
F1.0
sa(dp43
g2
I536
sg3
(lp44
I114
aI3
asg5
I0
sg6
I117
sg7
I0
sg8
I43787277
sg9
Vhttp://stackoverflow.com/questions/43787107/use-a-metric-after-a-classifier-in-a-pipeline
p45
sg11
I5
sg12
I0
sg13
I92
sg14
I2
sg15
F58.5
sa(dp46
g2
I1664
sg3
(lp47
I24
aI3
aI6
aI3
aI12
aI3
asg5
I0
sg6
I51
sg7
I0
sg8
I43824239
sg9
Vhttp://stackoverflow.com/questions/43823473/performance-in-different-vectorization-method-in-numpy
p48
sg11
I8
sg12
I6
sg13
I291
sg14
I6
sg15
F8.5
sa(dp49
g2
I433
sg3
(lp50
I2
asg5
I0
sg6
I2
sg7
I0
sg8
I43726205
sg9
Vhttp://stackoverflow.com/questions/43725990/python-list-comprehension-with-dummy-names-identical-to-iterator-name-ill-advis
p51
sg11
I8
sg12
I1
sg13
I78
sg14
I1
sg15
F2.0
sa(dp52
g2
I231
sg3
(lp53
I1
aI3
asg5
I0
sg6
I4
sg7
I0
sg8
I44012152
sg9
Vhttp://stackoverflow.com/questions/44012099/creating-a-dataframe-from-a-dict-where-keys-are-tuples
p54
sg11
I9
sg12
I0
sg13
I41
sg14
I2
sg15
F2.0
sa(dp55
g2
I793
sg3
(lp56
I4
aI13
aI4
asg5
I0
sg6
I21
sg7
I5
sg8
I43855536
sg9
Vhttp://stackoverflow.com/questions/43855102/using-prepare-for-an-enum-whats-the-catch
p57
sg11
I7
sg12
I1
sg13
I135
sg14
I3
sg15
F7.0
sa(dp58
g2
I1358
sg3
(lp59
I1
aI1
aI1
aI2
aI2
aI47
aI88
asg5
I0
sg6
I142
sg7
I0
sg8
I43837911
sg9
Vhttp://stackoverflow.com/questions/43837842/efficient-algorithm-to-compose-valid-expressions-with-specific-target
p60
sg11
I5
sg12
I0
sg13
I227
sg14
I7
sg15
F20.285714285714285
sa(dp61
g2
I1330
sg3
(lp62
I5
aI2
aI2
aI2
asg5
I0
sg6
I11
sg7
I0
sg8
I43745077
sg9
Vhttp://stackoverflow.com/questions/43739608/how-different-is-type-setattr-from-object-setattr
p63
sg11
I5
sg12
I1
sg13
I247
sg14
I4
sg15
F2.75
sa(dp64
g2
I375
sg3
(lp65
I20
aI4
asg5
I0
sg6
I24
sg7
I0
sg8
I44007670
sg9
Vhttp://stackoverflow.com/questions/44005817/yielding-from-within-with-statement-and-exit-method-of-context-manager
p66
sg11
I3
sg12
I2
sg13
I60
sg14
I2
sg15
F12.0
sa(dp67
g2
I359
sg3
(lp68
I7
aI1
aI1
asg5
I0
sg6
I9
sg7
I0
sg8
I43800778
sg9
Vhttp://stackoverflow.com/questions/43800643/pandas-filter-group-by-multiple-conditions
p69
sg11
I6
sg12
I1
sg13
I72
sg14
I3
sg15
F3.0
sa(dp70
g2
I626
sg3
(lp71
sg5
I0
sg6
I0
sg7
I0
sg8
I43988809
sg9
Vhttp://stackoverflow.com/questions/43988667/is-it-ok-to-create-very-large-tuples-in-python
p72
sg11
I9
sg12
I3
sg13
I105
sg14
I0
sg15
I0
sa(dp73
g2
I468
sg3
(lp74
sg5
I0
sg6
I0
sg7
I0
sg8
I43841625
sg9
Vhttp://stackoverflow.com/questions/43841023/python-strings-are-immutable-so-why-does-s-split-return-a-list-of-new-strings
p75
sg11
I3
sg12
I2
sg13
I83
sg14
I0
sg15
I0
sa(dp76
g2
I248
sg3
(lp77
I1
asg5
I0
sg6
I1
sg7
I0
sg8
I43723651
sg9
Vhttp://stackoverflow.com/questions/43723550/dropping-columns-in-a-dataframe
p78
sg11
I8
sg12
I0
sg13
I54
sg14
I1
sg15
F1.0
sa.