(dp0
Vhas_more
p1
I01
sVitems
p2
(lp3
(dp4
Vbody
p5
V<p>I'm trying to kill a process (specifically iChat). On the command line, I use these commands:</p>\u000a\u000a<pre><code>ps -A | grep iChat \u000a</code></pre>\u000a\u000a<p>Then:</p>\u000a\u000a<pre><code>kill -9 PID\u000a</code></pre>\u000a\u000a<p>However, I'm not exactly sure how to translate these commands over to Python.</p>\u000a
p6
sVis_answered
p7
I01
sVview_count
p8
I110986
sVtags
p9
(lp10
Vpython
p11
aVprocess
p12
aVkill
p13
asVlast_activity_date
p14
I1493374388
sVanswer_count
p15
I13
sVcreation_date
p16
I1275266251
sVscore
p17
I54
sVlink
p18
Vhttp://stackoverflow.com/questions/2940858/kill-process-by-name
p19
sVaccepted_answer_id
p20
I2940878
sVowner
p21
(dp22
Vuser_id
p23
I353064
sVprofile_image
p24
Vhttps://www.gravatar.com/avatar/d61689506a1e3b7d66f92861adeb1aa2?s=128&d=identicon&r=PG
p25
sVuser_type
p26
Vregistered
p27
sVreputation
p28
I707
sVlink
p29
Vhttp://stackoverflow.com/users/353064/aaron
p30
sVaccept_rate
p31
I42
sVdisplay_name
p32
VAaron
p33
ssVtitle
p34
VKill process by name?
p35
sVlast_edit_date
p36
I1466392878
sVquestion_id
p37
I2940858
sa(dp38
Vbody
p39
V<p>How do I print bold text in Python?</p>\u000a\u000a<p>For example:</p>\u000a\u000a<pre><code>print "hello"\u000a</code></pre>\u000a\u000a<p>What should I do so that the text \u201chello\u201d is displayed in bold?</p>\u000a
p40
sVis_answered
p41
I01
sVview_count
p42
I95065
sVtags
p43
(lp44
Vpython
p45
asVlast_activity_date
p46
I1466576542
sVanswer_count
p47
I9
sVcreation_date
p48
I1326967561
sVscore
p49
I54
sVlink
p50
Vhttp://stackoverflow.com/questions/8924173/how-do-i-print-bold-text-in-python
p51
sVowner
p52
(dp53
Vuser_id
p54
I1140210
sVprofile_image
p55
Vhttps://www.gravatar.com/avatar/5665ba6398bd59dd3132b55f4c3101dd?s=128&d=identicon&r=PG
p56
sVuser_type
p57
Vregistered
p58
sVreputation
p59
I413
sVlink
p60
Vhttp://stackoverflow.com/users/1140210/jia-luo
p61
sVaccept_rate
p62
I47
sVdisplay_name
p63
VJia-Luo
p64
ssVtitle
p65
VHow do I print bold text in Python?
p66
sVlast_edit_date
p67
I1418200439
sVquestion_id
p68
I8924173
sa(dp69
Vbody
p70
V<p>I'd like to have loglevel TRACE (5) for my application, as I don't think that <code>debug()</code> is sufficient. Additionally <code>log(5, msg)</code> isn't what I want. How can I add a custom loglevel to a Python logger?</p>\u000a\u000a<p>I've a <code>mylogger.py</code> with the following content:</p>\u000a\u000a<pre><code>import logging\u000a\u000a@property\u000adef log(obj):\u000a    myLogger = logging.getLogger(obj.__class__.__name__)\u000a    return myLogger\u000a</code></pre>\u000a\u000a<p>In my code I use it in the following way:</p>\u000a\u000a<pre><code>class ExampleClass(object):\u000a    from mylogger import log\u000a\u000a    def __init__(self):\u000a        '''The constructor with the logger'''\u000a        self.log.debug("Init runs")\u000a</code></pre>\u000a\u000a<p>Now I'd like to call <code>self.log.trace("foo bar")</code></p>\u000a\u000a<p>Thanks in advance for your help.</p>\u000a\u000a<p><strong>Edit</strong> (Dec 8th 2016): I changed the accepted answer to <a href="http://stackoverflow.com/a/13638084/600110">pfa's</a> which is, IMHO, an excellent solution based on the very good proposal from Eric S.</p>\u000a
p71
sVis_answered
p72
I01
sVview_count
p73
I17759
sVtags
p74
(lp75
Vpython
p76
aVlogging
p77
asVlast_activity_date
p78
I1491669292
sVanswer_count
p79
I13
sVcreation_date
p80
I1265105763
sVscore
p81
I54
sVlink
p82
Vhttp://stackoverflow.com/questions/2183233/how-to-add-a-custom-loglevel-to-pythons-logging-facility
p83
sVaccepted_answer_id
p84
I13638084
sVowner
p85
(dp86
Vuser_id
p87
I98525
sVprofile_image
p88
Vhttps://www.gravatar.com/avatar/70a0ca4ce1e3e6b11074cce89449c624?s=128&d=identicon&r=PG
p89
sVuser_type
p90
Vregistered
p91
sVreputation
p92
I4928
sVlink
p93
Vhttp://stackoverflow.com/users/98525/tuergeist
p94
sVaccept_rate
p95
I100
sVdisplay_name
p96
Vtuergeist
p97
ssVtitle
p98
VHow to add a custom loglevel to Python&#39;s logging facility
p99
sVlast_edit_date
p100
I1481171276
sVquestion_id
p101
I2183233
sa(dp102
Vbody
p103
V<p>Sorry if this question is a bit general but its been bugging me because I don't fully understand it.  I'm a python newbie and all my programming so far has been functions and I'm starting to look at using classes(since I'm incorporating some other people's code into my programs).  </p>\u000a\u000a<p>I understand the idea behind classes(creates basically a function that you can modify for different environments..like a car class that you can change the color depending on your needs).  I'm having trouble understanding the Initialization of the classes.  What's the point of them and how do we know what to include in them? Does writing in classes require a different type of thinking versus creating functions(I figured I could just create functions and then just wrap them in a class so I can re-use them..will that work)?</p>\u000a\u000a<p>Here's an example:</p>\u000a\u000a<pre><code>class crawler:\u000a  # Initialize the crawler with the name of database\u000a  def __init__(self,dbname):\u000a    self.con=sqlite.connect(dbname)\u000a\u000a  def __del__(self):\u000a    self.con.close()\u000a\u000a  def dbcommit(self):\u000a    self.con.commit()\u000a</code></pre>\u000a\u000a<p>#then the code that I understand starts....</p>\u000a\u000a<p>Or another code sample:</p>\u000a\u000a<pre><code>class bicluster:\u000a  def __init__(self,vec,left=None,right=None,distance=0.0,id=None):\u000a    self.left=left\u000a    self.right=right\u000a    self.vec=vec\u000a    self.id=id\u000a    self.distance=distance\u000a</code></pre>\u000a\u000a<p>There is so many of these I come across(when trying to read other people's code) but I'm somewhat at a loss to understand the logic in creating them. I'm sorry if this question is super basic, I searched around because I feel I should know this but I'm pretty confused.  Any clarification on how this works would be great.</p>\u000a
p104
sVis_answered
p105
I01
sVview_count
p106
I73624
sVtags
p107
(lp108
Vpython
p109
aVclass
p110
asVlast_activity_date
p111
I1493378388
sVanswer_count
p112
I7
sVcreation_date
p113
I1324584399
sVscore
p114
I54
sVlink
p115
Vhttp://stackoverflow.com/questions/8609153/why-do-we-use-init-in-python-classes
p116
sVaccepted_answer_id
p117
I8609238
sVowner
p118
(dp119
Vuser_id
p120
I640558
sVprofile_image
p121
Vhttps://www.gravatar.com/avatar/a3406798d70c05a95bb2a803780f7cfb?s=128&d=identicon&r=PG
p122
sVuser_type
p123
Vregistered
p124
sVreputation
p125
I7750
sVlink
p126
Vhttp://stackoverflow.com/users/640558/lostsoul
p127
sVaccept_rate
p128
I97
sVdisplay_name
p129
VLostsoul
p130
ssVtitle
p131
VWhy do we use __init__ in python classes?
p132
sVlast_edit_date
p133
I1324585315
sVquestion_id
p134
I8609153
sa(dp135
Vbody
p136
V<p>How do I run conda on a linux machine?</p>\u000a\u000a<p>I installed Anaconda, and can run Python, so I assume that I installed it correctly.</p>\u000a\u000a<p>Following this guide:  <a href="http://docs.continuum.io/conda/intro.html" rel="noreferrer">http://docs.continuum.io/conda/intro.html</a>, I am trying to installed Python33, so I am copying and pasting the following line into my console:</p>\u000a\u000a<pre><code>conda create -n py33 python=3.3 anaconda\u000a</code></pre>\u000a\u000a<p>However, that gives me an error:</p>\u000a\u000a<pre><code>-bash: conda: command not found\u000a</code></pre>\u000a\u000a<p>What do I need to do to run Conda?</p>\u000a
p137
sVis_answered
p138
I01
sVview_count
p139
I92765
sVtags
p140
(lp141
Vpython
p142
aVanaconda
p143
aVconda
p144
asVlast_activity_date
p145
I1488984061
sVanswer_count
p146
I9
sVcreation_date
p147
I1378574417
sVscore
p148
I54
sVlink
p149
Vhttp://stackoverflow.com/questions/18675907/how-to-run-conda
p150
sVowner
p151
(dp152
Vuser_id
p153
I847663
sVprofile_image
p154
Vhttps://i.stack.imgur.com/h4tXb.png?s=128&g=1
p155
sVuser_type
p156
Vregistered
p157
sVreputation
p158
I1759
sVlink
p159
Vhttp://stackoverflow.com/users/847663/ginger
p160
sVaccept_rate
p161
I15
sVdisplay_name
p162
VGinger
p163
ssVtitle
p164
VHow to run Conda?
p165
sVlast_edit_date
p166
I1380740020
sVquestion_id
p167
I18675907
sa(dp168
Vbody
p169
V<p>I'm creating an web api and need a good way to very quickly generate some well formatted xml. I cannot find any good way of doing this in python.</p>\u000a\u000a<p>Note: Some libraries look promising but either lack documentation or only output to files. </p>\u000a
p170
sVis_answered
p171
I01
sVview_count
p172
I61913
sVtags
p173
(lp174
Vpython
p175
aVxml
p176
aVapi
p177
asVlast_activity_date
p178
I1485879887
sVanswer_count
p179
I6
sVcreation_date
p180
I1285992850
sVscore
p181
I54
sVlink
p182
Vhttp://stackoverflow.com/questions/3844360/best-way-to-generate-xml
p183
sVaccepted_answer_id
p184
I3844432
sVowner
p185
(dp186
Vuser_id
p187
I188792
sVprofile_image
p188
Vhttps://www.gravatar.com/avatar/74d19b99feb191ee35a6221f06ca610c?s=128&d=identicon&r=PG
p189
sVuser_type
p190
Vregistered
p191
sVreputation
p192
I1451
sVlink
p193
Vhttp://stackoverflow.com/users/188792/joshkunz
p194
sVaccept_rate
p195
I79
sVdisplay_name
p196
VJoshkunz
p197
ssVtitle
p198
VBest way to generate xml?
p199
sVlast_edit_date
p200
I1470241650
sVquestion_id
p201
I3844360
sa(dp202
Vbody
p203
V<p>I am using BeautifulSoup to scrape a url and I had the following code </p>\u000a\u000a<pre><code>import urllib\u000aimport urllib2\u000afrom BeautifulSoup import BeautifulSoup\u000a\u000aurl =  "http://www.example.com/servlet/av/ResultTemplate=AVResult.html"\u000areq = urllib2.Request(url)\u000aresponse = urllib2.urlopen(req)\u000athe_page = response.read()\u000asoup = BeautifulSoup(the_page)\u000asoup.findAll('td',attrs={'class':'empformbody'})\u000a</code></pre>\u000a\u000a<p>Now in the above code we can use <code>findAll</code> to get tags and information related to them, but i want to use xpath is it possible to use xpath with BeautifulSoup, if possible can anyone please provide me an example code so that it will be more helpful.</p>\u000a
p204
sVis_answered
p205
I01
sVview_count
p206
I38698
sVtags
p207
(lp208
Vpython
p209
aVxpath
p210
aVbeautifulsoup
p211
aVurllib
p212
asVlast_activity_date
p213
I1486149691
sVanswer_count
p214
I5
sVcreation_date
p215
I1342162519
sVscore
p216
I54
sVlink
p217
Vhttp://stackoverflow.com/questions/11465555/can-we-use-xpath-with-beautifulsoup
p218
sVaccepted_answer_id
p219
I11466033
sVowner
p220
(dp221
Vuser_id
p222
I1342109
sVprofile_image
p223
Vhttps://www.gravatar.com/avatar/9c47b3a7fb3f67fb8efe8b7e8636dd59?s=128&d=identicon&r=PG&f=1
p224
sVuser_type
p225
Vregistered
p226
sVreputation
p227
I5618
sVlink
p228
Vhttp://stackoverflow.com/users/1342109/shiva-krishna
p229
sVaccept_rate
p230
I57
sVdisplay_name
p231
Vshiva krishna
p232
ssVtitle
p233
Vcan we use xpath with BeautifulSoup?
p234
sVlast_edit_date
p235
I1416610020
sVquestion_id
p236
I11465555
sa(dp237
Vbody
p238
V<p>I got the below failure while trying to get MySQL-python installed on my Ubuntu/Linux Box.From the below it seem like the issue is <code>sh: mysql_config: not found</code>\u000aCould someone advice me on what to do?</p>\u000a\u000a<pre><code>rmicro@ubuntu:~$ pip install MySQL-python\u000aDownloading/unpacking MySQL-python\u000a  Downloading MySQL-python-1.2.3.tar.gz (70Kb): 70Kb downloaded\u000a  Running setup.py egg_info for package MySQL-python\u000a    sh: mysql_config: not found\u000a    Traceback (most recent call last):\u000a      File "&lt;string&gt;", line 14, in &lt;module&gt;\u000a      File "/home/rmicro/build/MySQL-python/setup.py", line 15, in &lt;module&gt;\u000a        metadata, options = get_config()\u000a      File "setup_posix.py", line 43, in get_config\u000a        libs = mysql_config("libs_r")\u000a      File "setup_posix.py", line 24, in mysql_config\u000a        raise EnvironmentError("%s not found" % (mysql_config.path,))\u000a    EnvironmentError: mysql_config not found\u000a    Complete output from command python setup.py egg_info:\u000a    sh: mysql_config: not found\u000a\u000aTraceback (most recent call last):\u000a  File "&lt;string&gt;", line 14, in &lt;module&gt;\u000a  File "/home/rmicro/build/MySQL-python/setup.py", line 15, in &lt;module&gt;\u000a    metadata, options = get_config()\u000a  File "setup_posix.py", line 43, in get_config\u000a    libs = mysql_config("libs_r")\u000a  File "setup_posix.py", line 24, in mysql_config\u000a    raise EnvironmentError("%s not found" % (mysql_config.path,))\u000aEnvironmentError: mysql_config not found\u000a\u000a----------------------------------------\u000aCommand python setup.py egg_info failed with error code 1\u000a</code></pre>\u000a
p239
sVis_answered
p240
I01
sVview_count
p241
I170171
sVtags
p242
(lp243
Vpython
p244
aVmysql
p245
asVlast_activity_date
p246
I1458692916
sVanswer_count
p247
I6
sVcreation_date
p248
I1316325429
sVscore
p249
I54
sVlink
p250
Vhttp://stackoverflow.com/questions/7459766/installing-mysql-python
p251
sVaccepted_answer_id
p252
I7461662
sVowner
p253
(dp254
Vuser_id
p255
I618677
sVprofile_image
p256
Vhttps://www.gravatar.com/avatar/0474a21ea751fc27f84147ca7feae93b?s=128&d=identicon&r=PG
p257
sVuser_type
p258
Vregistered
p259
sVreputation
p260
I1348
sVlink
p261
Vhttp://stackoverflow.com/users/618677/user618677
p262
sVaccept_rate
p263
I79
sVdisplay_name
p264
Vuser618677
p265
ssVtitle
p266
VInstalling MySQL-python
p267
sVlast_edit_date
p268
I1316325980
sVquestion_id
p269
I7459766
sa(dp270
Vclosed_date
p271
I1433457203
sVis_answered
p272
I01
sVclosed_reason
p273
Vduplicate
p274
sVview_count
p275
I66153
sVtags
p276
(lp277
Vpython
p278
asVbody
p279
V<p>I need  to sort a list and then return a list with the index of the sorted items in the list. For example, if the list I want to sort is <code>[2,3,1,4,5]</code>, I need <code>[2,0,1,3,4]</code> to be returned. </p>\u000a\u000a<p>This question was posted on bytes, but I thought I would repost it here.\u000a<a href="http://bytes.com/topic/python/answers/44513-sorting-list-then-return-index-sorted-item">http://bytes.com/topic/python/answers/44513-sorting-list-then-return-index-sorted-item</a></p>\u000a\u000a<p>My specific need to sort a list of objects based on a property of the objects. I then need to re-order a corresponding list to match the order of the newly sorted list. </p>\u000a\u000a<p>Is there a good way to do this?</p>\u000a
p280
sVlast_activity_date
p281
I1451419851
sVaccepted_answer_id
p282
I7851166
sVcreation_date
p283
I1319208202
sVscore
p284
I54
sVlink
p285
Vhttp://stackoverflow.com/questions/7851077/how-to-return-index-of-a-sorted-list
p286
sVanswer_count
p287
I7
sVowner
p288
(dp289
Vuser_id
p290
I366660
sVprofile_image
p291
Vhttps://www.gravatar.com/avatar/014c40cfce503310fb19651aad107d43?s=128&d=identicon&r=PG
p292
sVuser_type
p293
Vregistered
p294
sVreputation
p295
I681
sVlink
p296
Vhttp://stackoverflow.com/users/366660/alex
p297
sVaccept_rate
p298
I65
sVdisplay_name
p299
Valex
p300
ssVtitle
p301
Vhow to return index of a sorted list?
p302
sVlast_edit_date
p303
I1451419851
sVquestion_id
p304
I7851077
sa(dp305
Vbody
p306
V<p>I can't seem to Google it, but I want a function that does this:</p>\u000a\u000a<p>Accept 3 arguments (or more, whatever):</p>\u000a\u000a<ul>\u000a<li>URL </li>\u000a<li>a dictionary of params</li>\u000a<li>POST or GET</li>\u000a</ul>\u000a\u000a<p>Return me the results, and the response code.</p>\u000a\u000a<p>Is there a snippet that does this?</p>\u000a
p307
sVis_answered
p308
I01
sVview_count
p309
I116164
sVtags
p310
(lp311
Vpython
p312
aVhttp
p313
asVlast_activity_date
p314
I1486350988
sVanswer_count
p315
I4
sVcreation_date
p316
I1292641367
sVscore
p317
I54
sVlink
p318
Vhttp://stackoverflow.com/questions/4476373/simple-url-get-post-function-in-python
p319
sVaccepted_answer_id
p320
I4476389
sVowner
p321
(dp322
Vuser_id
p323
I179736
sVprofile_image
p324
Vhttps://www.gravatar.com/avatar/e77327f7ef0c6213525de4dcea19b200?s=128&d=identicon&r=PG
p325
sVuser_type
p326
Vregistered
p327
sVreputation
p328
I49962
sVlink
p329
Vhttp://stackoverflow.com/users/179736/timex
p330
sVaccept_rate
p331
I82
sVdisplay_name
p332
VTIMEX
p333
ssVtitle
p334
VSimple URL GET/POST function in Python
p335
sVlast_edit_date
p336
I1334002901
sVquestion_id
p337
I4476373
sa(dp338
Vbody
p339
V<pre><code>if len(sys.argv) &lt; 2:\u000a    sys.stderr.write('Usage: sys.argv[0] ')\u000a    sys.exit(1)\u000a\u000a\u000aif not os.path.exists(sys.argv[1]):\u000a    sys.stderr.write('ERROR: Database sys.argv[1] was not found!')\u000a    sys.exit(1)\u000a</code></pre>\u000a\u000a<p>This is a portion of code I'm working on. The first part I'm trying to say if the user doesn't type <code>python programname something</code> then it will exit.</p>\u000a\u000a<p>The second part I'm trying to see if the database exists. On both places I'm unsure if I have the correct way to write out the sys.argv's by stderr or not.</p>\u000a
p340
sVis_answered
p341
I01
sVview_count
p342
I205381
sVtags
p343
(lp344
Vpython
p345
asVlast_activity_date
p346
I1469960705
sVanswer_count
p347
I3
sVcreation_date
p348
I1244749350
sVscore
p349
I54
sVlink
p350
Vhttp://stackoverflow.com/questions/983201/python-and-sys-argv
p351
sVaccepted_answer_id
p352
I984145
sVowner
p353
(dp354
Vuser_id
p355
I113976
sVprofile_image
p356
Vhttps://www.gravatar.com/avatar/a358fde9ee309ea754817766507d22dd?s=128&d=identicon&r=PG
p357
sVuser_type
p358
Vregistered
p359
sVreputation
p360
I1023
sVlink
p361
Vhttp://stackoverflow.com/users/113976/tyler
p362
sVaccept_rate
p363
I100
sVdisplay_name
p364
VTyler
p365
ssVtitle
p366
Vpython and sys.argv
p367
sVlast_edit_date
p368
I1469960705
sVquestion_id
p369
I983201
sa(dp370
Vbody
p371
V<p>I've successfully converted something of <code>26 Sep 2012</code> format to <code>26-09-2012</code> using:</p>\u000a\u000a<p><code>datetime.strptime(request.POST['sample_date'],'%d %b %Y')</code></p>\u000a\u000a<p><strong>However, I don't know how to set the hour and minute of something like the above to 11:59. Does anyone know how to do this?</strong></p>\u000a\u000a<p>Note, this can be a future date or any random one, not just the current date.</p>\u000a
p372
sVis_answered
p373
I01
sVview_count
p374
I49288
sVtags
p375
(lp376
Vpython
p377
aVdate
p378
aVdatetime
p379
aVtime
p380
aVdate-manipulation
p381
asVlast_activity_date
p382
I1494580170
sVanswer_count
p383
I2
sVcreation_date
p384
I1347927761
sVscore
p385
I54
sVlink
p386
Vhttp://stackoverflow.com/questions/12468823/python-datetime-setting-fixed-hour-and-minute-after-using-strptime-to-get-day
p387
sVowner
p388
(dp389
Vuser_id
p390
I1678031
sVprofile_image
p391
Vhttps://www.gravatar.com/avatar/13005b027ade30f3e46685781fd75dc4?s=128&d=identicon&r=PG
p392
sVuser_type
p393
Vregistered
p394
sVreputation
p395
I300
sVlink
p396
Vhttp://stackoverflow.com/users/1678031/user1678031
p397
sVaccept_rate
p398
I27
sVdisplay_name
p399
Vuser1678031
p400
ssVtitle
p401
VPython datetime - setting fixed hour and minute after using strptime to get day,month,year
p402
sVlast_edit_date
p403
I1435594251
sVquestion_id
p404
I12468823
sa(dp405
Vbody
p406
V<p>What is the cleanest and most Pythonic way to get tomorrow's date? There must be a better way than to add one to the day, handle days at the end of the month, etc.</p>\u000a
p407
sVis_answered
p408
I01
sVview_count
p409
I25812
sVtags
p410
(lp411
Vpython
p412
aVdatetime
p413
aVdate
p414
aVtime
p415
asVlast_activity_date
p416
I1254456064
sVanswer_count
p417
I4
sVcreation_date
p418
I1254437111
sVscore
p419
I54
sVlink
p420
Vhttp://stackoverflow.com/questions/1506901/cleanest-and-most-pythonic-way-to-get-tomorrows-date
p421
sVaccepted_answer_id
p422
I1506916
sVowner
p423
(dp424
Vuser_id
p425
I180768
sVprofile_image
p426
Vhttps://www.gravatar.com/avatar/d8ac01e9c8982587c33a68b2407cbfbd?s=128&d=identicon&r=PG
p427
sVuser_type
p428
Vregistered
p429
sVreputation
p430
I848
sVlink
p431
Vhttp://stackoverflow.com/users/180768/linkmaster03
p432
sVaccept_rate
p433
I92
sVdisplay_name
p434
Vlinkmaster03
p435
ssVtitle
p436
VCleanest and most Pythonic way to get tomorrow&#39;s date?
p437
sVquestion_id
p438
I1506901
sa(dp439
Vbody
p440
V<p>i have a python module with a function:</p>\u000a\u000a<pre><code>def do_stuff(param1 = 'a'):\u000a    if type(param1) == int:\u000a        # enter python interpreter here\u000a        do_something()\u000a    else:\u000a        do_something_else()\u000a</code></pre>\u000a\u000a<p>is there a way to drop into the command line interpreter where i have the comment?  so that if i run the following in python:</p>\u000a\u000a<pre><code>&gt;&gt;&gt; import my_module\u000a&gt;&gt;&gt; do_stuff(1)\u000a</code></pre>\u000a\u000a<p>i get my next prompt in the scope and context of where i have the comment in <code>do_stuff()</code>?</p>\u000a
p441
sVis_answered
p442
I01
sVview_count
p443
I14175
sVtags
p444
(lp445
Vpython
p446
asVlast_activity_date
p447
I1468001936
sVanswer_count
p448
I3
sVcreation_date
p449
I1264714064
sVscore
p450
I54
sVlink
p451
Vhttp://stackoverflow.com/questions/2158097/drop-into-python-interpreter-while-executing-function
p452
sVaccepted_answer_id
p453
I2158119
sVowner
p454
(dp455
Vuser_id
p456
I5377
sVprofile_image
p457
Vhttps://www.gravatar.com/avatar/d7cd2f1a2616bb166c30f43866415cdd?s=128&d=identicon&r=PG
p458
sVuser_type
p459
Vregistered
p460
sVreputation
p461
I2446
sVlink
p462
Vhttp://stackoverflow.com/users/5377/aaronstacy
p463
sVaccept_rate
p464
I84
sVdisplay_name
p465
Vaaronstacy
p466
ssVtitle
p467
Vdrop into python interpreter while executing function
p468
sVquestion_id
p469
I2158097
sa(dp470
Vbody
p471
V<p>I have a CSV file and I want to bulk-import this file into my sqlite3 database using Python. the command is ".import .....". but it seems that it cannot work like this. Can anyone give me an example of how to do it in sqlite3? I am using windows just in case.\u000aThanks</p>\u000a
p472
sVis_answered
p473
I01
sVview_count
p474
I66736
sVtags
p475
(lp476
Vpython
p477
aVdatabase
p478
aVsqlite
p479
aVcsv
p480
aVsqlite3
p481
asVlast_activity_date
p482
I1484118980
sVanswer_count
p483
I7
sVcreation_date
p484
I1274527558
sVscore
p485
I54
sVlink
p486
Vhttp://stackoverflow.com/questions/2887878/importing-a-csv-file-into-a-sqlite3-database-table-using-python
p487
sVaccepted_answer_id
p488
I2888042
sVowner
p489
(dp490
Vuser_id
p491
I313245
sVprofile_image
p492
Vhttps://www.gravatar.com/avatar/0f991af3360e1c039243ce45fab996bf?s=128&d=identicon&r=PG
p493
sVuser_type
p494
Vregistered
p495
sVreputation
p496
I8437
sVlink
p497
Vhttp://stackoverflow.com/users/313245/hossein
p498
sVaccept_rate
p499
I81
sVdisplay_name
p500
VHossein
p501
ssVtitle
p502
VImporting a CSV file into a sqlite3 database table using Python
p503
sVlast_edit_date
p504
I1413703138
sVquestion_id
p505
I2887878
sa(dp506
Vbody
p507
V<p>What benefit or implications could we get with Python code like this:</p>\u000a\u000a<pre><code>class some_class(parent_class):\u000a    def doOp(self, x, y):\u000a        def add(x, y):\u000a            return x + y\u000a        return add(x, y)\u000a</code></pre>\u000a\u000a<p>I found this in an open-source project, doing something useful inside the nested function, but doing absolutely nothing outside it except calling it. (The actual code can be found <a href="http://bazaar.launchpad.net/~openerp/openobject-server/trunk/annotate/1861/bin/report/render/rml2pdf/trml2pdf.py#L685" rel="noreferrer">here</a>.) Why might someone code it like this? Is there some benefit or side effect for writing the code inside the nested function rather than in the outer, normal function?</p>\u000a
p508
sVis_answered
p509
I01
sVview_count
p510
I53650
sVtags
p511
(lp512
Vpython
p513
aVnested-function
p514
asVlast_activity_date
p515
I1399919788
sVanswer_count
p516
I6
sVcreation_date
p517
I1255963251
sVscore
p518
I54
sVlink
p519
Vhttp://stackoverflow.com/questions/1589058/nested-function-in-python
p520
sVaccepted_answer_id
p521
I1589606
sVowner
p522
(dp523
Vuser_id
p524
I41283
sVprofile_image
p525
Vhttps://www.gravatar.com/avatar/62af4c828e18a91dc60832fb1465f0cf?s=128&d=identicon&r=PG
p526
sVuser_type
p527
Vregistered
p528
sVreputation
p529
I21899
sVlink
p530
Vhttp://stackoverflow.com/users/41283/hosam-aly
p531
sVaccept_rate
p532
I87
sVdisplay_name
p533
VHosam Aly
p534
ssVtitle
p535
VNested Function in Python
p536
sVlast_edit_date
p537
I1295257297
sVquestion_id
p538
I1589058
sa(dp539
Vbody
p540
V<p>I want to redirect the print to a .txt file using python. I have a 'for' loop, which will 'print' the output for each of my .bam file; while I want to redirect ALL these output to one file. So I tried to put</p>\u000a\u000a<pre><code> f = open('output.txt','w'); sys.stdout = f\u000a</code></pre>\u000a\u000a<p>at the beginning of my script. However I get nothing in the .txt file.\u000aMy script is like below:</p>\u000a\u000a<pre><code>#!/usr/bin/python\u000a\u000aimport os,sys\u000aimport subprocess\u000aimport glob\u000afrom os import path\u000a\u000af = open('output.txt','w')\u000asys.stdout = f\u000a\u000apath= '/home/xug/nearline/bamfiles'\u000abamfiles = glob.glob(path + '/*.bam')\u000a\u000afor bamfile in bamfiles:\u000a    filename = bamfile.split('/')[-1]\u000a    print 'Filename:', filename\u000a    samtoolsin = subprocess.Popen(["/share/bin/samtools/samtools","view",bamfile],\u000a                                  stdout=subprocess.PIPE,bufsize=1)\u000a    linelist= samtoolsin.stdout.readlines()\u000a    print 'Readlines finished!'\u000a    ........print....\u000a    ........print....\u000a</code></pre>\u000a\u000a<p>So what's the problem? Any other way besides this sys.stdout?\u000athx</p>\u000a\u000a<p>edit:\u000aand i need my result look like:</p>\u000a\u000a<pre><code>Filename: ERR001268.bam\u000aReadlines finished!\u000aMean: 233\u000aSD: 10\u000aInterval is: (213, 252)\u000a</code></pre>\u000a
p541
sVis_answered
p542
I01
sVview_count
p543
I191659
sVtags
p544
(lp545
Vpython
p546
asVlast_activity_date
p547
I1489343016
sVanswer_count
p548
I7
sVcreation_date
p549
I1314042446
sVscore
p550
I54
sVlink
p551
Vhttp://stackoverflow.com/questions/7152762/how-to-redirect-print-output-to-a-file-using-python
p552
sVaccepted_answer_id
p553
I7152903
sVowner
p554
(dp555
Vuser_id
p556
I815408
sVprofile_image
p557
Vhttps://www.gravatar.com/avatar/0057daa45489573fe0d7831fe65455e8?s=128&d=identicon&r=PG
p558
sVuser_type
p559
Vregistered
p560
sVreputation
p561
I1317
sVlink
p562
Vhttp://stackoverflow.com/users/815408/wang
p563
sVaccept_rate
p564
I77
sVdisplay_name
p565
Vwang
p566
ssVtitle
p567
VHow to redirect &#39;print&#39; output to a file using python?
p568
sVlast_edit_date
p569
I1314045184
sVquestion_id
p570
I7152762
sa(dp571
Vbody
p572
V<p>I am trying to round integers in python. I looked at the built-in round() function but it seems that that rounds floats. </p>\u000a\u000a<p>My goal is to round integers to the closest multiple of 10. i.e.: 5-> 10, 4-> 0, 95->100, etc.</p>\u000a\u000a<p>5 and higher should round up, 4 and lower should round down. </p>\u000a\u000a<p>This is the code I have that does this: </p>\u000a\u000a<pre><code>def round_int(x):\u000a    last_dig = int(str(x)[-1])\u000a    if last_dig &gt;= 5:\u000a        x += 10\u000a    return (x/10) * 10\u000a</code></pre>\u000a\u000a<p>Is this the best way to achieve what I want to achieve? Is there a built-in function that does this? Additionally, if this is the best way, is there anything wrong with the code that I missed in testing?</p>\u000a
p573
sVis_answered
p574
I01
sVview_count
p575
I94161
sVtags
p576
(lp577
Vpython
p578
asVlast_activity_date
p579
I1483322197
sVanswer_count
p580
I7
sVcreation_date
p581
I1280273989
sVscore
p582
I54
sVlink
p583
Vhttp://stackoverflow.com/questions/3348825/how-to-round-integers-in-python
p584
sVaccepted_answer_id
p585
I3348866
sVowner
p586
(dp587
Vuser_id
p588
I403981
sVprofile_image
p589
Vhttps://www.gravatar.com/avatar/0ea032f0661d091ab4d53e7d214f4d68?s=128&d=identicon&r=PG
p590
sVuser_type
p591
Vunregistered
p592
sVreputation
p593
I273
sVlink
p594
Vhttp://stackoverflow.com/users/403981/tablo-an
p595
sVdisplay_name
p596
Vtablo_an
p597
ssVtitle
p598
VHow to round integers in python
p599
sVlast_edit_date
p600
I1402342103
sVquestion_id
p601
I3348825
sa(dp602
Vbody
p603
V<p>I need to perform a filtered query from within a django template, to get a set of objects equivalent to python code within a view:</p>\u000a\u000a<pre><code>queryset = Modelclass.objects.filter(somekey=foo)\u000a</code></pre>\u000a\u000a<p>In my template I would like to do</p>\u000a\u000a<pre><code>{% for object in data.somekey_set.FILTER %}\u000a</code></pre>\u000a\u000a<p>but I just can't seem to find out how to write FILTER.</p>\u000a
p604
sVis_answered
p605
I01
sVview_count
p606
I53964
sVtags
p607
(lp608
Vpython
p609
aVdjango
p610
aVdjango-templates
p611
asVlast_activity_date
p612
I1378598483
sVanswer_count
p613
I5
sVcreation_date
p614
I1224633357
sVscore
p615
I54
sVlink
p616
Vhttp://stackoverflow.com/questions/223990/how-do-i-perform-query-filtering-in-django-templates
p617
sVaccepted_answer_id
p618
I224003
sVowner
p619
(dp620
Vuser_id
p621
I11527
sVprofile_image
p622
Vhttps://i.stack.imgur.com/2YJM0.jpg?s=128&g=1
p623
sVuser_type
p624
Vregistered
p625
sVreputation
p626
I19089
sVlink
p627
Vhttp://stackoverflow.com/users/11527/ber
p628
sVaccept_rate
p629
I40
sVdisplay_name
p630
VBer
p631
ssVtitle
p632
VHow do I perform query filtering in django templates
p633
sVlast_edit_date
p634
I1378598483
sVquestion_id
p635
I223990
sa(dp636
Vbody
p637
V<p>Following this Django by Example tutotrial here: <a href="http://lightbird.net/dbe/todo_list.html">http://lightbird.net/dbe/todo_list.html</a></p>\u000a\u000a<p>The tutorial says:</p>\u000a\u000a<blockquote>\u000a  <p>"This changes our table layout and we\u2019ll have to ask Django to reset\u000a  and recreate tables:</p>\u000a  \u000a  <p><code>manage.py reset todo; manage.py syncdb</code>"</p>\u000a</blockquote>\u000a\u000a<p>though, when I run <code>manage.py reset todo</code>, I get the error:</p>\u000a\u000a<pre><code>$ python manage.py reset todo                                       \u000a- Unknown command: 'reset'\u000a</code></pre>\u000a\u000a<p>Is this because I am using sqlite3 and not postgresql?</p>\u000a\u000a<p><strong>Can somebody tell me what the command is to reset the database?</strong></p>\u000a\u000a<p>The command: <code>python manage.py sqlclear todo</code> returns the error:</p>\u000a\u000a<pre><code>$ python manage.py sqlclear todo    \u000aCommandError: App with label todo could not be found.    \u000aAre you sure your INSTALLED_APPS setting is correct?\u000a</code></pre>\u000a\u000a<p>So I added 'todo' to my INSTALLED_APPS in settings.py, and ran <code>python manage.py sqlclear todo</code> again, resulting in this error:</p>\u000a\u000a<pre><code>$ python manage.py sqlclear todo                                      \u000a- NameError: name 'admin' is not defined\u000a</code></pre>\u000a
p638
sVis_answered
p639
I01
sVview_count
p640
I81836
sVtags
p641
(lp642
Vpython
p643
aVdatabase
p644
aVdjango
p645
aVreset
p646
asVlast_activity_date
p647
I1464819664
sVanswer_count
p648
I6
sVcreation_date
p649
I1363463770
sVscore
p650
I54
sVlink
p651
Vhttp://stackoverflow.com/questions/15454008/how-to-reset-db-in-django-i-get-a-command-reset-not-found-error
p652
sVaccepted_answer_id
p653
I15454063
sVowner
p654
(dp655
Vuser_id
p656
I2100697
sVprofile_image
p657
Vhttps://www.gravatar.com/avatar/c535ff4452ebee8b38eeb24a6024ff66?s=128&d=identicon&r=PG
p658
sVuser_type
p659
Vregistered
p660
sVreputation
p661
I888
sVlink
p662
Vhttp://stackoverflow.com/users/2100697/prem
p663
sVaccept_rate
p664
I70
sVdisplay_name
p665
VPrem
p666
ssVtitle
p667
VHow to reset db in Django? I get a command &#39;reset&#39; not found error
p668
sVlast_edit_date
p669
I1381242019
sVquestion_id
p670
I15454008
sa(dp671
Vbody
p672
V<p>I have a list of dictionaries that looks something like this:</p>\u000a\u000a<pre><code>toCSV = [{'name':'bob','age':25,'weight':200},{'name':'jim','age':31,'weight':180}]\u000a</code></pre>\u000a\u000a<p>What should I do to convert this to a csv file that looks something like this:</p>\u000a\u000a<pre><code>name,age,weight\u000abob,25,200\u000ajim,31,180\u000a</code></pre>\u000a
p673
sVis_answered
p674
I01
sVview_count
p675
I29898
sVtags
p676
(lp677
Vpython
p678
aVcsv
p679
aVdictionary
p680
asVlast_activity_date
p681
I1488127534
sVanswer_count
p682
I4
sVcreation_date
p683
I1277141773
sVscore
p684
I54
sVlink
p685
Vhttp://stackoverflow.com/questions/3086973/how-do-i-convert-this-list-of-dictionaries-to-a-csv-file-python
p686
sVaccepted_answer_id
p687
I3087011
sVowner
p688
(dp689
Vuser_id
p690
I146044
sVprofile_image
p691
Vhttps://www.gravatar.com/avatar/c6a8135d5838b7ded23c66de67afc79f?s=128&d=identicon&r=PG
p692
sVuser_type
p693
Vregistered
p694
sVreputation
p695
I831
sVlink
p696
Vhttp://stackoverflow.com/users/146044/backus
p697
sVaccept_rate
p698
I65
sVdisplay_name
p699
VBackus
p700
ssVtitle
p701
VHow do I convert this list of dictionaries to a csv file? [Python]
p702
sVlast_edit_date
p703
I1277580724
sVquestion_id
p704
I3086973
sa(dp705
Vbody
p706
V<p>I am working on Scrapy 0.20 with Python 2.7. I found PyCharm has a good Python debugger. I want to test my Scrapy spiders using it. Anyone knows how to do that please?</p>\u000a\u000a<h3> What I have tried</h3>\u000a\u000a<p>Actually I tried to run the spider as a scrip. As a result, I built that scrip. Then, I tried to add my Scrapy project to PyCharm as a model like this:</p>\u000a\u000a<pre><code>File-&gt;Setting-&gt;Project structure-&gt;Add content root.\u000a</code></pre>\u000a\u000a<p>But I don't know what else I have to do</p>\u000a
p707
sVis_answered
p708
I01
sVview_count
p709
I15768
sVtags
p710
(lp711
Vpython
p712
aVdebugging
p713
aVpython-2.7
p714
aVscrapy
p715
aVpycharm
p716
asVlast_activity_date
p717
I1461705346
sVanswer_count
p718
I5
sVcreation_date
p719
I1392409634
sVscore
p720
I54
sVlink
p721
Vhttp://stackoverflow.com/questions/21788939/how-to-use-pycharm-to-debug-scrapy-projects
p722
sVaccepted_answer_id
p723
I22254926
sVowner
p724
(dp725
Vuser_id
p726
I1378388
sVprofile_image
p727
Vhttps://i.stack.imgur.com/Rstdz.jpg?s=128&g=1
p728
sVuser_type
p729
Vregistered
p730
sVreputation
p731
I10753
sVlink
p732
Vhttp://stackoverflow.com/users/1378388/william-kinaan
p733
sVaccept_rate
p734
I91
sVdisplay_name
p735
VWilliam Kinaan
p736
ssVtitle
p737
VHow to use PyCharm to debug Scrapy projects
p738
sVlast_edit_date
p739
I1459837929
sVquestion_id
p740
I21788939
sa(dp741
Vbody
p742
V<p>How does one check whether a task is running in celery (specifically, I'm using celery-django)?</p>\u000a\u000a<p>I've read the documentation, and I've googled, but I can't see a call like:</p>\u000a\u000a<pre><code>my_example_task.state() == RUNNING\u000a</code></pre>\u000a\u000a<p>My use-case is that I have an external (java) service for transcoding. When I send a document to be transcoded, I want to check if the task that runs that service is running, and if not, to (re)start it.</p>\u000a\u000a<p>I'm using the current stable versions - 2.4, I believe.</p>\u000a
p743
sVis_answered
p744
I01
sVview_count
p745
I40949
sVtags
p746
(lp747
Vpython
p748
aVweb-services
p749
aVcelery
p750
aVdjango-celery
p751
asVlast_activity_date
p752
I1490941109
sVanswer_count
p753
I7
sVcreation_date
p754
I1327671739
sVscore
p755
I54
sVlink
p756
Vhttp://stackoverflow.com/questions/9034091/how-to-check-task-status-in-celery
p757
sVaccepted_answer_id
p758
I9046208
sVowner
p759
(dp760
Vuser_id
p761
I21640
sVprofile_image
p762
Vhttps://www.gravatar.com/avatar/492a3c5c13fb44d27229364e0993fa11?s=128&d=identicon&r=PG
p763
sVuser_type
p764
Vregistered
p765
sVreputation
p766
I31683
sVlink
p767
Vhttp://stackoverflow.com/users/21640/marcin
p768
sVaccept_rate
p769
I73
sVdisplay_name
p770
VMarcin
p771
ssVtitle
p772
VHow to check task status in Celery?
p773
sVlast_edit_date
p774
I1327672190
sVquestion_id
p775
I9034091
sa(dp776
Vbody
p777
V<p>I can give it floating point numbers, such as</p>\u000a\u000a<pre><code>time.sleep(0.5)\u000a</code></pre>\u000a\u000a<p>but how accurate is it? If i give it</p>\u000a\u000a<pre><code>time.sleep(0.05)\u000a</code></pre>\u000a\u000a<p>will it really sleep about 50 ms?</p>\u000a
p778
sVis_answered
p779
I01
sVview_count
p780
I61529
sVtags
p781
(lp782
Vpython
p783
aVdatetime
p784
aVtime
p785
aVsleep
p786
asVlast_activity_date
p787
I1433529346
sVanswer_count
p788
I6
sVcreation_date
p789
I1247690022
sVscore
p790
I54
sVlink
p791
Vhttp://stackoverflow.com/questions/1133857/how-accurate-is-pythons-time-sleep
p792
sVaccepted_answer_id
p793
I1133888
sVowner
p794
(dp795
Vuser_id
p796
I15055
sVprofile_image
p797
Vhttps://www.gravatar.com/avatar/7f71287b47b7189d11fe6d3fbc7ed2fe?s=128&d=identicon&r=PG
p798
sVuser_type
p799
Vregistered
p800
sVreputation
p801
I103525
sVlink
p802
Vhttp://stackoverflow.com/users/15055/claudiu
p803
sVaccept_rate
p804
I80
sVdisplay_name
p805
VClaudiu
p806
ssVtitle
p807
VHow accurate is python&#39;s time.sleep()?
p808
sVquestion_id
p809
I1133857
sa(dp810
Vbody
p811
V<p>I am reading contents of a spreadsheet into pandas.   DataNitro has a method that returns a rectangular selection of cells as a list of lists.   So</p>\u000a\u000a<pre><code>table = Cell("A1").table\u000a</code></pre>\u000a\u000a<p>gives</p>\u000a\u000a<pre><code>table = [['Heading1', 'Heading2'], [1 , 2], [3, 4]]\u000a\u000aheaders = table.pop(0) # gives the headers as list and leaves data\u000a</code></pre>\u000a\u000a<p>I am busy writing code to translate this, but my guess is that it is such a simple use that there must be method to do this.    Cant seem to find it in documentation.   Any pointers to the method that would simplify this?</p>\u000a
p812
sVis_answered
p813
I01
sVview_count
p814
I61962
sVtags
p815
(lp816
Vpython
p817
aVpandas
p818
aVdatanitro
p819
asVlast_activity_date
p820
I1494512489
sVanswer_count
p821
I2
sVcreation_date
p822
I1380619180
sVscore
p823
I54
sVlink
p824
Vhttp://stackoverflow.com/questions/19112398/getting-list-of-lists-into-pandas-dataframe
p825
sVaccepted_answer_id
p826
I19112890
sVowner
p827
(dp828
Vuser_id
p829
I2107677
sVprofile_image
p830
Vhttps://www.gravatar.com/avatar/d9895ef31b55b5105a4cba794050483a?s=128&d=identicon&r=PG
p831
sVuser_type
p832
Vregistered
p833
sVreputation
p834
I2639
sVlink
p835
Vhttp://stackoverflow.com/users/2107677/joop
p836
sVaccept_rate
p837
I91
sVdisplay_name
p838
VJoop
p839
ssVtitle
p840
VGetting list of lists into pandas DataFrame
p841
sVquestion_id
p842
I19112398
sa(dp843
Vbody
p844
V<p>I have a date string of the form '2009/05/13 19:19:30 -0400'. It seems that previous versions of python may have supported a %z format tag in strptime for the trailing timezone specification, but 2.6.x seems to have removed that.</p>\u000a\u000a<p>What's the right way to parse this string into a datetime object?</p>\u000a
p845
sVis_answered
p846
I01
sVview_count
p847
I35164
sVtags
p848
(lp849
Vpython
p850
aVdatetime
p851
aVtimezone
p852
asVlast_activity_date
p853
I1480338669
sVanswer_count
p854
I5
sVcreation_date
p855
I1247105943
sVscore
p856
I54
sVlink
p857
Vhttp://stackoverflow.com/questions/1101508/how-to-parse-dates-with-0400-timezone-string-in-python
p858
sVaccepted_answer_id
p859
I1101597
sVowner
p860
(dp861
Vuser_id
p862
I135336
sVprofile_image
p863
Vhttps://www.gravatar.com/avatar/4a3220bfca6030ea49bcac7572248686?s=128&d=identicon&r=PG
p864
sVuser_type
p865
Vregistered
p866
sVreputation
p867
I1152
sVlink
p868
Vhttp://stackoverflow.com/users/135336/fields
p869
sVaccept_rate
p870
I62
sVdisplay_name
p871
Vfields
p872
ssVtitle
p873
VHow to parse dates with -0400 timezone string in python?
p874
sVquestion_id
p875
I1101508
sa(dp876
Vbody
p877
V<p>I have been coding a lot in Python of late. And I have been working with data that I haven't worked with before, using formulae never seen before and dealing with huge files.  All this made me write a lot of print statements to verify if it's all going right and identify the points of failure. But, generally, outputting so much information is not a good practice. How do I use the print statements only when I want to debug and let them be skipped when I don't want them to be printed? </p>\u000a
p878
sVis_answered
p879
I01
sVview_count
p880
I38204
sVtags
p881
(lp882
Vpython
p883
asVlast_activity_date
p884
I1459468234
sVanswer_count
p885
I5
sVcreation_date
p886
I1309852545
sVscore
p887
I54
sVlink
p888
Vhttp://stackoverflow.com/questions/6579496/using-print-statements-only-to-debug
p889
sVaccepted_answer_id
p890
I6579522
sVowner
p891
(dp892
Vuser_id
p893
I443380
sVprofile_image
p894
Vhttps://www.gravatar.com/avatar/f3c486966e332e9b4dad1fc3a315cc57?s=128&d=identicon&r=PG
p895
sVuser_type
p896
Vregistered
p897
sVreputation
p898
I953
sVlink
p899
Vhttp://stackoverflow.com/users/443380/crazyaboutliv
p900
sVaccept_rate
p901
I62
sVdisplay_name
p902
Vcrazyaboutliv
p903
ssVtitle
p904
VUsing print statements only to debug
p905
sVlast_edit_date
p906
I1385296982
sVquestion_id
p907
I6579496
sa(dp908
Vbody
p909
V<p>I'm new to Python... and coming from a mostly Java background, if that accounts for anything.</p>\u000a\u000a<p>I'm trying to understand polymorphism in Python. Maybe the problem is that I'm expecting the concepts I already know to project into Python. But I put together the following test code:</p>\u000a\u000a<pre><code>class animal(object):\u000a    "empty animal class"\u000a\u000aclass dog(animal):\u000a    "empty dog class"\u000a\u000amyDog = dog()\u000aprint myDog.__class__ is animal\u000aprint myDog.__class__ is dog\u000a</code></pre>\u000a\u000a<p>From the polymorphism I'm used to (e.g. java's <code>instanceof</code>), I would expect both of these statements to print true, as an instance of dog <em>is an</em> animal and also <em>is a</em> dog. But my output is:</p>\u000a\u000a<pre><code>False\u000aTrue\u000a</code></pre>\u000a\u000a<p>What am I missing?</p>\u000a
p910
sVis_answered
p911
I01
sVview_count
p912
I42172
sVtags
p913
(lp914
Vpython
p915
aVpolymorphism
p916
asVlast_activity_date
p917
I1273854861
sVanswer_count
p918
I3
sVcreation_date
p919
I1273854222
sVscore
p920
I54
sVlink
p921
Vhttp://stackoverflow.com/questions/2835793/how-does-polymorphism-work-in-python
p922
sVaccepted_answer_id
p923
I2835815
sVowner
p924
(dp925
Vuser_id
p926
I259541
sVprofile_image
p927
Vhttps://www.gravatar.com/avatar/64701d4f30cab9a1567cb7179219a5d5?s=128&d=identicon&r=PG
p928
sVuser_type
p929
Vregistered
p930
sVreputation
p931
I26937
sVlink
p932
Vhttp://stackoverflow.com/users/259541/froadie
p933
sVaccept_rate
p934
I82
sVdisplay_name
p935
Vfroadie
p936
ssVtitle
p937
VHow does polymorphism work in Python?
p938
sVquestion_id
p939
I2835793
sa(dp940
Vbody
p941
V<p>I need to iterate through the subdirectories of a given directory and search for files. If I get a file I have to open it and change the content and replace it with my own lines.</p>\u000a\u000a<p>I tried this:</p>\u000a\u000a<pre><code>import os\u000a\u000arootdir ='C:/Users/sid/Desktop/test'\u000a\u000afor subdir, dirs, files in os.walk(rootdir):\u000a    for file in files:\u000a        f=open(file,'r')\u000a        lines=f.readlines()\u000a        f.close()\u000a        f=open(file,'w')\u000a        for line in lines:\u000a            newline = "No you are not"\u000a            f.write(newline)\u000a        f.close()\u000a</code></pre>\u000a\u000a<p>but I am getting an error. What am I doing wrong? </p>\u000a
p942
sVis_answered
p943
I01
sVview_count
p944
I94178
sVtags
p945
(lp946
Vpython
p947
aVdirectory
p948
asVlast_activity_date
p949
I1487585368
sVanswer_count
p950
I2
sVcreation_date
p951
I1382696259
sVscore
p952
I54
sVlink
p953
Vhttp://stackoverflow.com/questions/19587118/iterating-through-directories-with-python
p954
sVaccepted_answer_id
p955
I19587581
sVowner
p956
(dp957
Vuser_id
p958
I2677453
sVprofile_image
p959
Vhttps://i.stack.imgur.com/GzlSb.jpg?s=128&g=1
p960
sVuser_type
p961
Vregistered
p962
sVreputation
p963
I558
sVlink
p964
Vhttp://stackoverflow.com/users/2677453/wolf
p965
sVaccept_rate
p966
I50
sVdisplay_name
p967
VWolf
p968
ssVtitle
p969
VIterating through directories with Python
p970
sVlast_edit_date
p971
I1487585368
sVquestion_id
p972
I19587118
sa(dp973
Vbody
p974
V<p>I'm trying to generate a linear regression on a scatter plot I have generated, however my data is in list format, and all of the examples I can find of using <code>polyfit</code> require using <code>arange</code>. <code>arange</code> doesn't accept lists though. I have searched high and low about how to convert a list to an array and nothing seems clear. Am I missing something?</p>\u000a\u000a<p>Following on, how best can I use my list of integers as inputs to the <code>polyfit</code>?</p>\u000a\u000a<p>here is the polyfit example I am following:</p>\u000a\u000a<pre><code>from pylab import * \u000a\u000ax = arange(data) \u000ay = arange(data) \u000a\u000am,b = polyfit(x, y, 1) \u000a\u000aplot(x, y, 'yo', x, m*x+b, '--k') \u000ashow() \u000a</code></pre>\u000a
p975
sVis_answered
p976
I01
sVview_count
p977
I91454
sVtags
p978
(lp979
Vpython
p980
aVnumpy
p981
aVmatplotlib
p982
aVlinear-regression
p983
aVcurve-fitting
p984
asVlast_activity_date
p985
I1488980727
sVanswer_count
p986
I3
sVcreation_date
p987
I1306474342
sVscore
p988
I54
sVlink
p989
Vhttp://stackoverflow.com/questions/6148207/linear-regression-with-matplotlib-numpy
p990
sVaccepted_answer_id
p991
I6148315
sVowner
p992
(dp993
Vuser_id
p994
I771224
sVprofile_image
p995
Vhttps://www.gravatar.com/avatar/05e7e27abf7cb5210890e97ef73dc6a6?s=128&d=identicon&r=PG
p996
sVuser_type
p997
Vregistered
p998
sVreputation
p999
I285
sVlink
p1000
Vhttp://stackoverflow.com/users/771224/dingo
p1001
sVdisplay_name
p1002
VDingo
p1003
ssVtitle
p1004
VLinear regression with matplotlib / numpy
p1005
sVlast_edit_date
p1006
I1488980727
sVquestion_id
p1007
I6148207
sa(dp1008
Vclosed_date
p1009
I1477796853
sVis_answered
p1010
I01
sVclosed_reason
p1011
Vduplicate
p1012
sVview_count
p1013
I93807
sVtags
p1014
(lp1015
Vpython
p1016
aVcsv
p1017
asVbody
p1018
V<p>I am asking Python to print the minimum number from a column of CSV data, but the top row is the column number, and I don't want Python to take the top row into account. How can I make sure Python ignores the first line?</p>\u000a\u000a<p>This is the code so far:</p>\u000a\u000a<pre><code>import csv\u000a\u000awith open('all16.csv', 'rb') as inf:\u000a    incsv = csv.reader(inf)\u000a    column = 1                \u000a    datatype = float          \u000a    data = (datatype(column) for row in incsv)   \u000a    least_value = min(data)\u000a\u000aprint least_value\u000a</code></pre>\u000a\u000a<p>Could you also explain what you are doing, not just give the code? I am very very new to Python and would like to make sure I understand everything.</p>\u000a
p1019
sVlast_activity_date
p1020
I1482246539
sVaccepted_answer_id
p1021
I11350095
sVcreation_date
p1022
I1341508817
sVscore
p1023
I54
sVlink
p1024
Vhttp://stackoverflow.com/questions/11349333/when-processing-csv-data-how-do-i-ignore-the-first-line-of-data
p1025
sVanswer_count
p1026
I10
sVowner
p1027
(dp1028
Vdisplay_name
p1029
Vuser1496646
p1030
sVuser_type
p1031
Vdoes_not_exist
p1032
ssVtitle
p1033
VWhen processing CSV data, how do I ignore the first line of data?
p1034
sVlast_edit_date
p1035
I1409239312
sVquestion_id
p1036
I11349333
sa(dp1037
Vbody
p1038
V<p>Facing an HTTPSHandler error while installing python packages using pip, following is the stack trace,</p>\u000a\u000a<pre><code>--------desktop:~$ pip install Django==1.3\u000aTraceback (most recent call last):\u000a  File "/home/env/.genv/bin/pip", line 9, in &lt;module&gt;\u000a    load_entry_point('pip==1.4.1', 'console_scripts', 'pip')()\u000a  File "/home/env/.genv/lib/python2.7/site-packages/pkg_resources.py", line 378, in load_entry_point\u000a    return get_distribution(dist).load_entry_point(group, name)\u000a  File "/home/env/.genv/lib/python2.7/site-packages/pkg_resources.py", line 2566, in load_entry_point\u000a    return ep.load()\u000a  File "/home/env/.genv/lib/python2.7/site-packages/pkg_resources.py", line 2260, in load\u000a    entry = __import__(self.module_name, globals(),globals(), ['__name__'])\u000a  File "/home/env/.genv/lib/python2.7/site-packages/pip/__init__.py", line 10, in &lt;module&gt;\u000a    from pip.util import get_installed_distributions, get_prog\u000a  File "/home/env/.genv/lib/python2.7/site-packages/pip/util.py", line 17, in &lt;module&gt;\u000a    from pip.vendor.distlib import version\u000a  File "/home/env/.genv/lib/python2.7/site-packages/pip/vendor/distlib/version.py", line 13, in &lt;module&gt;\u000a    from .compat import string_types\u000a  File "/home/env/.genv/lib/python2.7/site-packages/pip/vendor/distlib/compat.py", line 31, in &lt;module&gt;\u000a    from urllib2 import (Request, urlopen, URLError, HTTPError,\u000aImportError: cannot import name HTTPSHandler\u000a</code></pre>\u000a\u000a<p>I used to edit Modules/setup.dist file and uncomment SSL code lines and rebuilt it, with reference to following thread : <a href="http://forums.opensuse.org/english/get-technical-help-here/applications/488962-opensuse-python-openssl-2.html" rel="noreferrer">http://forums.opensuse.org/english/get-technical-help-here/applications/488962-opensuse-python-openssl-2.html</a></p>\u000a
p1039
sVis_answered
p1040
I01
sVview_count
p1041
I53408
sVtags
p1042
(lp1043
Vpython
p1044
aVssl
p1045
aVopenssl
p1046
aVpip
p1047
asVlast_activity_date
p1048
I1479457802
sVanswer_count
p1049
I11
sVcreation_date
p1050
I1387474166
sVscore
p1051
I54
sVlink
p1052
Vhttp://stackoverflow.com/questions/20688034/importerror-cannot-import-name-httpshandler-using-pip
p1053
sVowner
p1054
(dp1055
Vuser_id
p1056
I3016020
sVprofile_image
p1057
Vhttps://i.stack.imgur.com/lkp6G.jpg?s=128&g=1
p1058
sVuser_type
p1059
Vregistered
p1060
sVreputation
p1061
I394
sVlink
p1062
Vhttp://stackoverflow.com/users/3016020/user3016020
p1063
sVdisplay_name
p1064
Vuser3016020
p1065
ssVtitle
p1066
VImportError: cannot import name HTTPSHandler using PIP
p1067
sVlast_edit_date
p1068
I1438630104
sVquestion_id
p1069
I20688034
sa(dp1070
Vbody
p1071
V<p>So, I was playing around with Python while answering <a href="http://stackoverflow.com/questions/1528932/how-to-create-inline-objects-with-properties-in-python/">this question</a>, and I discovered that this is not valid:</p>\u000a\u000a<pre><code>o = object()\u000ao.attr = 'hello'\u000a</code></pre>\u000a\u000a<p>due to an <code>AttributeError: 'object' object has no attribute 'attr'</code>. However, with any class inherited from object, it is valid:</p>\u000a\u000a<pre><code>class Sub(object):\u000a    pass\u000a\u000as = Sub()\u000as.attr = 'hello'\u000a</code></pre>\u000a\u000a<p>Printing <code>s.attr</code> displays 'hello' as expected. Why is this the case? What in the Python language specification specifies that you can't assign attributes to vanilla objects?</p>\u000a
p1072
sVis_answered
p1073
I01
sVview_count
p1074
I8538
sVtags
p1075
(lp1076
Vpython
p1077
aVattributes
p1078
aVlanguage-design
p1079
asVlast_activity_date
p1080
I1490901532
sVanswer_count
p1081
I6
sVcreation_date
p1082
I1254877675
sVscore
p1083
I54
sVlink
p1084
Vhttp://stackoverflow.com/questions/1529002/cant-set-attributes-of-object-class
p1085
sVaccepted_answer_id
p1086
I1529099
sVowner
p1087
(dp1088
Vuser_id
p1089
I14902
sVprofile_image
p1090
Vhttps://www.gravatar.com/avatar/04c4396f3d538f5aad32adb496467de3?s=128&d=identicon&r=PG
p1091
sVuser_type
p1092
Vregistered
p1093
sVreputation
p1094
I27210
sVlink
p1095
Vhttp://stackoverflow.com/users/14902/smashery
p1096
sVaccept_rate
p1097
I79
sVdisplay_name
p1098
VSmashery
p1099
ssVtitle
p1100
VCan&#39;t set attributes of object class
p1101
sVquestion_id
p1102
I1529002
sa(dp1103
Vbody
p1104
V<p>I know the <code>--verbose</code> or <code>-v</code> from several tools and I'd like to implement this into some of my own scripts and tools.</p>\u000a\u000a<p>I thought of placeing</p>\u000a\u000a<pre><code>if verbose:\u000a    print ...\u000a</code></pre>\u000a\u000a<p>through my source code, so that if a user passes the <code>-v</code> option, the variable <code>verbose</code> will be set to <code>True</code> and the text will be printed.</p>\u000a\u000a<p>Is this the right approach or is there a more common way?</p>\u000a\u000a<p>Addition: I am not asking for a way to implement the parsing of arguments. That I know how it is done. I am only interested specially in the verbose option. Thanks!</p>\u000a
p1105
sVis_answered
p1106
I01
sVview_count
p1107
I44443
sVtags
p1108
(lp1109
Vpython
p1110
aVoption
p1111
asVlast_activity_date
p1112
I1473515267
sVanswer_count
p1113
I8
sVcreation_date
p1114
I1305212499
sVscore
p1115
I54
sVlink
p1116
Vhttp://stackoverflow.com/questions/5980042/how-to-implement-the-verbose-or-v-option-into-a-script
p1117
sVaccepted_answer_id
p1118
I5980173
sVowner
p1119
(dp1120
Vuser_id
p1121
I641514
sVprofile_image
p1122
Vhttps://www.gravatar.com/avatar/490b96dbb518c9b3291ede01707dcb75?s=128&d=identicon&r=PG
p1123
sVuser_type
p1124
Vregistered
p1125
sVreputation
p1126
I6764
sVlink
p1127
Vhttp://stackoverflow.com/users/641514/aufwind
p1128
sVaccept_rate
p1129
I87
sVdisplay_name
p1130
VAufwind
p1131
ssVtitle
p1132
VHow to implement the --verbose or -v option into a script?
p1133
sVlast_edit_date
p1134
I1424398716
sVquestion_id
p1135
I5980042
sa(dp1136
Vbody
p1137
V<p>I am trying to learn python and am making a program that will output a script.  I want to use os.path.join, but am pretty confused.  According to the <a href="http://docs.python.org/library/os.path.html" rel="noreferrer">docs</a> if I say:</p>\u000a\u000a<pre><code>os.path.join('c:', 'sourcedir')\u000a</code></pre>\u000a\u000a<p>I get <code>"C:sourcedir"</code>.  According to the docs, this is normal, right?</p>\u000a\u000a<p>But when I use the copytree command, Python will output it the desired way, for example:</p>\u000a\u000a<pre><code>import shutil\u000asrc = os.path.join('c:', 'src')\u000adst = os.path.join('c:', 'dst')\u000ashutil.copytree(src, dst)\u000a</code></pre>\u000a\u000a<p>Here is the error code I get:</p>\u000a\u000a<pre>\u000aWindowsError: [Error 3] The system cannot find the path specified: 'C:src/*.*'\u000a</pre>\u000a\u000a<p>If I wrap the <code>os.path.join</code> with <code>os.path.normpath</code> I get the same error.</p>\u000a\u000a<p>If this <code>os.path.join</code> can't be used this way, then I am confused as to its purpose.</p>\u000a\u000a<p>According to the pages suggested by Stack Overflow, slashes should not be used in join&mdash;that is correct, I assume?</p>\u000a
p1138
sVis_answered
p1139
I01
sVview_count
p1140
I40978
sVtags
p1141
(lp1142
Vpython
p1143
aVwindows
p1144
aVpath-manipulation
p1145
asVlast_activity_date
p1146
I1458380983
sVanswer_count
p1147
I7
sVcreation_date
p1148
I1268285899
sVscore
p1149
I54
sVlink
p1150
Vhttp://stackoverflow.com/questions/2422798/python-os-path-join-on-windows
p1151
sVaccepted_answer_id
p1152
I2422864
sVowner
p1153
(dp1154
Vuser_id
p1155
I291206
sVprofile_image
p1156
Vhttps://www.gravatar.com/avatar/19079260f85e1e04eddc347a4261c199?s=128&d=identicon&r=PG
p1157
sVuser_type
p1158
Vunregistered
p1159
sVreputation
p1160
I285
sVlink
p1161
Vhttp://stackoverflow.com/users/291206/frank-e
p1162
sVdisplay_name
p1163
VFrank E.
p1164
ssVtitle
p1165
VPython os.path.join on Windows
p1166
sVlast_edit_date
p1167
I1268286704
sVquestion_id
p1168
I2422798
sa(dp1169
Vbody
p1170
V<p>I'm looking to do this:</p>\u000a\u000a<pre><code>class Place(models.Model):\u000a name = models.CharField(max_length=20)\u000a rating = models.DecimalField()\u000a\u000aclass LongNamedRestaurant(Place):  # Subclassing `Place`.\u000a name = models.CharField(max_length=255)  # Notice, I'm overriding `Place.name` to give it a longer length.\u000a food_type = models.CharField(max_length=25)\u000a</code></pre>\u000a\u000a<p>This is the version I would like to use (although I'm open to any suggestion):\u000a<a href="http://docs.djangoproject.com/en/dev/topics/db/models/#id7" rel="noreferrer">http://docs.djangoproject.com/en/dev/topics/db/models/#id7</a></p>\u000a\u000a<p>Is this supported in Django? If not, is there a way to achieve similar results?</p>\u000a
p1171
sVis_answered
p1172
I01
sVview_count
p1173
I29575
sVtags
p1174
(lp1175
Vpython
p1176
aVdjango
p1177
aVdjango-inheritance
p1178
asVlast_activity_date
p1179
I1482313073
sVanswer_count
p1180
I9
sVcreation_date
p1181
I1267217454
sVscore
p1182
I54
sVlink
p1183
Vhttp://stackoverflow.com/questions/2344751/in-django-model-inheritance-does-it-allow-you-to-override-a-parent-models-a
p1184
sVaccepted_answer_id
p1185
I2357942
sVowner
p1186
(dp1187
Vuser_id
p1188
I241809
sVprofile_image
p1189
Vhttps://www.gravatar.com/avatar/ac94360913886c8e4ae43aecc653009d?s=128&d=identicon&r=PG&f=1
p1190
sVuser_type
p1191
Vregistered
p1192
sVreputation
p1193
I419
sVlink
p1194
Vhttp://stackoverflow.com/users/241809/johnny-5
p1195
sVaccept_rate
p1196
I86
sVdisplay_name
p1197
VJohnny 5
p1198
ssVtitle
p1199
VIn Django - Model Inheritance - Does it allow you to override a parent model&#39;s attribute?
p1200
sVlast_edit_date
p1201
I1450511354
sVquestion_id
p1202
I2344751
sa(dp1203
Vbody
p1204
V<p>Can I extract the underlying decision-rules (or 'decision paths') from a trained tree in a decision tree - as a textual list ? <br/>\u000asomething like: <code>"if A&gt;0.4 then if B&lt;0.2 then if C&gt;0.8 then class='X'</code> etc... <br/>\u000aIf anyone knows of a simple way to do so, it will be very helpful. </p>\u000a
p1205
sVis_answered
p1206
I01
sVview_count
p1207
I28071
sVtags
p1208
(lp1209
Vpython
p1210
aVmachine-learning
p1211
aVscikit-learn
p1212
aVdecision-tree
p1213
aVrandom-forest
p1214
asVlast_activity_date
p1215
I1492716318
sVanswer_count
p1216
I9
sVcreation_date
p1217
I1385488680
sVscore
p1218
I54
sVlink
p1219
Vhttp://stackoverflow.com/questions/20224526/how-to-extract-the-decision-rules-from-scikit-learn-decision-tree
p1220
sVaccepted_answer_id
p1221
I39772170
sVowner
p1222
(dp1223
Vuser_id
p1224
I314548
sVprofile_image
p1225
Vhttps://www.gravatar.com/avatar/8b117c4156a8258f75491201e6f7ab01?s=128&d=identicon&r=PG
p1226
sVuser_type
p1227
Vregistered
p1228
sVreputation
p1229
I850
sVlink
p1230
Vhttp://stackoverflow.com/users/314548/dror-hilman
p1231
sVaccept_rate
p1232
I47
sVdisplay_name
p1233
VDror Hilman
p1234
ssVtitle
p1235
Vhow to extract the decision rules from scikit-learn decision-tree?
p1236
sVlast_edit_date
p1237
I1385489014
sVquestion_id
p1238
I20224526
sa(dp1239
Vbody
p1240
V<p>I have some data that is base64 encoded that I want to convert back to binary even if there is a padding error in it. If I use </p>\u000a\u000a<pre><code>base64.decodestring(b64_string)\u000a</code></pre>\u000a\u000a<p>it raises an 'Incorrect padding' error. Is there another way?</p>\u000a\u000a<p>UPDATE: Thanks for all the feedback. To be honest, all the methods mentioned sounded a bit hit\u000aand miss so I decided to try openssl. The following command worked a treat:</p>\u000a\u000a<pre><code>openssl enc -d -base64 -in b64string -out binary_data\u000a</code></pre>\u000a
p1241
sVis_answered
p1242
I01
sVview_count
p1243
I72350
sVtags
p1244
(lp1245
Vpython
p1246
aVbase64
p1247
asVlast_activity_date
p1248
I1469441757
sVanswer_count
p1249
I9
sVcreation_date
p1250
I1275290835
sVscore
p1251
I54
sVlink
p1252
Vhttp://stackoverflow.com/questions/2941995/python-ignore-incorrect-padding-error-when-base64-decoding
p1253
sVowner
p1254
(dp1255
Vuser_id
p1256
I332460
sVprofile_image
p1257
Vhttps://www.gravatar.com/avatar/b11e1a142a673e201f5f79c6b34b3755?s=128&d=identicon&r=PG
p1258
sVuser_type
p1259
Vregistered
p1260
sVreputation
p1261
I2372
sVlink
p1262
Vhttp://stackoverflow.com/users/332460/funlovincoder
p1263
sVaccept_rate
p1264
I70
sVdisplay_name
p1265
VFunLovinCoder
p1266
ssVtitle
p1267
VPython: Ignore &#39;Incorrect padding&#39; error when base64 decoding
p1268
sVlast_edit_date
p1269
I1275314009
sVquestion_id
p1270
I2941995
sa(dp1271
Vclosed_date
p1272
I1364741154
sVis_answered
p1273
I01
sVclosed_reason
p1274
Vexact duplicate
p1275
sVview_count
p1276
I15880
sVtags
p1277
(lp1278
Vpython
p1279
aVdjango
p1280
aVcoding-style
p1281
aVpep8
p1282
asVbody
p1283
V<p>From reading PEP-8, I get it that you should put the closing parenthesis on the same line as the last argument in function calls:</p>\u000a\u000a<pre><code>ShortName.objects.distinct().filter(\u000a    product__photo__stockitem__isnull=False)\u000a</code></pre>\u000a\u000a<p>Probably, long expressions are best to avoid at all. But if it's undesirable, <strong>how would you go about multiple chained method calls? Should the closing paren be on a new line?</strong></p>\u000a\u000a<pre><code>ShortName.objects.distinct().filter(\u000a    product__photo__stockitem__isnull=False\u000a).values_list('value', flat=True)\u000a</code></pre>\u000a\u000a<p>What about no-arguments methods? <strong>How to write them on multiple lines without referencing the intermediate return values?</strong></p>\u000a\u000a<pre><code>ShortName.objects.distinct(\u000a    ).filter().values() # looks ugly\u000a</code></pre>\u000a\u000a<hr>\u000a\u000a<p><em>Update</em>: There's a duplicate question of <a href="http://stackoverflow.com/questions/4768941/how-to-break-a-line-of-chained-methods-in-python">How to break a line of chained methods in Python?</a>. The <a href="http://stackoverflow.com/a/4768979/352796">accepted answer</a> suggests a familiar from jQuery style of starting each new line with a dot. The author doesn't provide any reasons or authoritative references, so I'd like to get a confirmation on such style or an alternative.</p>\u000a
p1284
sVlast_activity_date
p1285
I1484826349
sVaccepted_answer_id
p1286
I8683240
sVcreation_date
p1287
I1325273026
sVscore
p1288
I54
sVlink
p1289
Vhttp://stackoverflow.com/questions/8683178/chained-method-calls-indentation-style-in-python
p1290
sVanswer_count
p1291
I2
sVowner
p1292
(dp1293
Vuser_id
p1294
I352796
sVprofile_image
p1295
Vhttps://www.gravatar.com/avatar/bfbc13dc3b3ba5dbaf5c21d8549d83f4?s=128&d=identicon&r=PG
p1296
sVuser_type
p1297
Vregistered
p1298
sVreputation
p1299
I10103
sVlink
p1300
Vhttp://stackoverflow.com/users/352796/katspaugh
p1301
sVaccept_rate
p1302
I94
sVdisplay_name
p1303
Vkatspaugh
p1304
ssVtitle
p1305
VChained method calls indentation style in Python
p1306
sVlast_edit_date
p1307
I1325273385
sVquestion_id
p1308
I8683178
sa(dp1309
Vbody
p1310
V<pre><code>tf.nn.embedding_lookup(params, ids, partition_strategy='mod', name=None)\u000a</code></pre>\u000a\u000a<p>I cannot understand the duty of this function. Is it like a lookup table? which means return the param corresponding for each id (in ids)?</p>\u000a\u000a<p>For instance, in the <code>skip-gram</code> model if we use <code>tf.nn.embedding_lookup(embeddings, train_inputs)</code>, then for each <code>train_input</code> it finds the correspond embedding?</p>\u000a
p1311
sVis_answered
p1312
I01
sVview_count
p1313
I15333
sVtags
p1314
(lp1315
Vpython
p1316
aVtensorflow
p1317
asVlast_activity_date
p1318
I1491747841
sVanswer_count
p1319
I2
sVcreation_date
p1320
I1453187680
sVscore
p1321
I54
sVlink
p1322
Vhttp://stackoverflow.com/questions/34870614/what-does-tf-nn-embedding-lookup-function-do
p1323
sVaccepted_answer_id
p1324
I34877590
sVowner
p1325
(dp1326
Vuser_id
p1327
I5808490
sVprofile_image
p1328
Vhttps://www.gravatar.com/avatar/cac5d9d42b4ab6ec1703d25e3dd5e293?s=128&d=identicon&r=PG&f=1
p1329
sVuser_type
p1330
Vregistered
p1331
sVreputation
p1332
I318
sVlink
p1333
Vhttp://stackoverflow.com/users/5808490/poorya-pzm
p1334
sVaccept_rate
p1335
I25
sVdisplay_name
p1336
VPoorya Pzm
p1337
ssVtitle
p1338
VWhat does tf.nn.embedding_lookup function do?
p1339
sVlast_edit_date
p1340
I1478967714
sVquestion_id
p1341
I34870614
sa(dp1342
Vbody
p1343
V<p>I am using ConfigParser to read the runtime configuration of a script.</p>\u000a\u000a<p>I would like to have the flexibility of not providing a section name (there are scripts which are simple enough; they don't need a 'section'). ConfigParser will throw the <code>NoSectionError</code> exception, and will not accept the file.</p>\u000a\u000a<p>How can I make ConfigParser simply retrieve the <code>(key, value)</code> tuples of a config file without section names? For instance:</p>\u000a\u000a<pre><code>key1=val1\u000akey2:val2\u000a</code></pre>\u000a\u000a<p>I would rather not write to the config file.</p>\u000a
p1344
sVis_answered
p1345
I01
sVview_count
p1346
I45884
sVtags
p1347
(lp1348
Vpython
p1349
aVparsing
p1350
aVconfiguration-files
p1351
asVlast_activity_date
p1352
I1476986499
sVanswer_count
p1353
I8
sVcreation_date
p1354
I1274472094
sVscore
p1355
I54
sVlink
p1356
Vhttp://stackoverflow.com/questions/2885190/using-pythons-configparser-to-read-a-file-without-section-name
p1357
sVaccepted_answer_id
p1358
I2885753
sVowner
p1359
(dp1360
Vuser_id
p1361
I104427
sVprofile_image
p1362
Vhttps://www.gravatar.com/avatar/2e852d4a44a1d795a9f207bcd30920bc?s=128&d=identicon&r=PG&f=1
p1363
sVuser_type
p1364
Vregistered
p1365
sVreputation
p1366
I20867
sVlink
p1367
Vhttp://stackoverflow.com/users/104427/escualo
p1368
sVaccept_rate
p1369
I71
sVdisplay_name
p1370
VEscualo
p1371
ssVtitle
p1372
VUsing Python&#39;s ConfigParser to read a file without section name
p1373
sVquestion_id
p1374
I2885190
sa(dp1375
Vbody
p1376
V<p>My simple Django app worked fine in debug mode (<code>manage.py runserver</code>), and works under WSGI+Apache on my dev box, but when I pushed to EC2 I began receiving intermittent (10-80% of the time) errors of <code>Bad Request (400)</code> for any URLs I try to view (whether in my app or in the Django admin.</p>\u000a\u000a<p>Where can I find debug information about this? Nothing appears in <code>/var/log/apache2/error.log</code>, even with <code>LogLevel=info</code>. I have checked versions, logged the Request environment (cf. <a href="https://code.google.com/p/modwsgi/wiki/DebuggingTechniques#Displaying_Request_Environment">ModWSGI Debugging Tips</a>) and see no major differences.</p>\u000a\u000a<p>The one remaining thought I had is, I'm using the mod_wsgi from Ubuntu 12.04 (libapache2-mod-wsgi 3.3-4build1) which was built against Python 2.7.1; I have Python 2.7.3. And Django is 1.6, which is newer than the Ubuntu Precise version. I hesitate to start building packages from source since it's so hard to clean up and these seem like minor version changes...</p>\u000a\u000a<p><strong>Thank you for your help.</strong></p>\u000a\u000a<p><em>(For reference, here are the Apache config and WSGI apps)</em></p>\u000a\u000a<h3>Apache config (000-default)</h3>\u000a\u000a<pre><code>&lt;VirtualHost *:80&gt;\u000a    ServerAdmin webmaster@localhost\u000a    DocumentRoot /var/www\u000a    WSGIScriptAlias /rz /usr/local/share/rz/rz.wsgi\u000a    ...\u000a</code></pre>\u000a\u000a<h3>rz.WSGI app</h3>\u000a\u000a<pre><code>import os\u000aimport sys\u000aimport django.core.handlers.wsgi\u000aimport pprint\u000a\u000apath = '/usr/local/share/rz'\u000aif path not in sys.path:\u000a    sys.path.insert(0, path)\u000a\u000aos.environ['DJANGO_SETTINGS_MODULE'] = 'rz.settings'\u000a\u000aclass LoggingMiddleware:\u000a    def __init__(self, application):\u000a        self.__application = application\u000a\u000a    def __call__(self, environ, start_response):\u000a        errors = environ['wsgi.errors']\u000a        pprint.pprint(('REQUEST', environ), stream=errors)\u000a\u000a        def _start_response(status, headers, *args):\u000a            pprint.pprint(('RESPONSE', status, headers), stream=errors)\u000a            return start_response(status, headers, *args)\u000a\u000a        return self.__application(environ, _start_response)\u000a\u000aapplication = LoggingMiddleware(django.core.handlers.wsgi.WSGIHandler())\u000a</code></pre>\u000a
p1377
sVis_answered
p1378
I01
sVview_count
p1379
I28822
sVtags
p1380
(lp1381
Vpython
p1382
aVdjango
p1383
aVapache
p1384
aVmod-wsgi
p1385
aVdjango-wsgi
p1386
asVlast_activity_date
p1387
I1479981171
sVanswer_count
p1388
I3
sVcreation_date
p1389
I1385963370
sVscore
p1390
I54
sVlink
p1391
Vhttp://stackoverflow.com/questions/20321673/debugging-apache-django-wsgi-bad-request-400-error
p1392
sVaccepted_answer_id
p1393
I20618753
sVowner
p1394
(dp1395
Vuser_id
p1396
I262568
sVprofile_image
p1397
Vhttps://www.gravatar.com/avatar/b696050490af8c792ef1c13dc4b76a68?s=128&d=identicon&r=PG
p1398
sVuser_type
p1399
Vregistered
p1400
sVreputation
p1401
I552
sVlink
p1402
Vhttp://stackoverflow.com/users/262568/mrisher
p1403
sVaccept_rate
p1404
I83
sVdisplay_name
p1405
Vmrisher
p1406
ssVtitle
p1407
VDebugging Apache/Django/WSGI Bad Request (400) Error
p1408
sVlast_edit_date
p1409
I1386022945
sVquestion_id
p1410
I20321673
sa(dp1411
Vbody
p1412
V<p>I'm changing some classes of mine from an extensive use of getters and setters to a more pythonic use of properties.</p>\u000a\u000a<p>But now I'm stuck because some of my previous getters or setters would call the corresponding method of the base class, and then perform something else. But how can this be accomplished with properties? How to call the property getter or setter in the parent class?</p>\u000a\u000a<p>Of course just calling the attribute itself gives infinite recursion.</p>\u000a\u000a<pre><code>class Foo(object):\u000a\u000a    @property\u000a    def bar(self):\u000a        return 5\u000a\u000a    @bar.setter\u000a    def bar(self, a):\u000a        print a\u000a\u000aclass FooBar(Foo):\u000a\u000a    @property\u000a    def bar(self):\u000a        # return the same value\u000a        # as in the base class\u000a        return self.bar # --&gt; recursion!\u000a\u000a    @bar.setter\u000a    def bar(self, c):\u000a        # perform the same action\u000a        # as in the base class\u000a        self.bar = c    # --&gt; recursion!\u000a        # then do something else\u000a        print 'something else'\u000a\u000afb = FooBar()\u000afb.bar = 7\u000a</code></pre>\u000a
p1413
sVis_answered
p1414
I01
sVview_count
p1415
I22545
sVtags
p1416
(lp1417
Vpython
p1418
aVinheritance
p1419
aVproperties
p1420
aVoverloading
p1421
aVdescriptor
p1422
asVlast_activity_date
p1423
I1495115216
sVanswer_count
p1424
I5
sVcreation_date
p1425
I1245497834
sVscore
p1426
I54
sVlink
p1427
Vhttp://stackoverflow.com/questions/1021464/how-to-call-a-property-of-the-base-class-if-this-property-is-being-overwritten-i
p1428
sVaccepted_answer_id
p1429
I1021484
sVowner
p1430
(dp1431
Vuser_id
p1432
I60531
sVprofile_image
p1433
Vhttps://www.gravatar.com/avatar/bd24dab59beada36b501670cd01b8e2c?s=128&d=identicon&r=PG
p1434
sVuser_type
p1435
Vregistered
p1436
sVreputation
p1437
I12517
sVlink
p1438
Vhttp://stackoverflow.com/users/60531/unclezeiv
p1439
sVaccept_rate
p1440
I53
sVdisplay_name
p1441
VUncleZeiv
p1442
ssVtitle
p1443
VHow to call a property of the base class if this property is being overwritten in the derived class?
p1444
sVlast_edit_date
p1445
I1495115216
sVquestion_id
p1446
I1021464
sa(dp1447
Vbody
p1448
V<p>I think I have some misconception about class and instance variables. Here is an example code:</p>\u000a\u000a<pre><code>class Animal(object):\u000a    energy = 10\u000a    skills = []\u000a\u000a    def work(self):\u000a        print 'I do something'\u000a        self.energy -= 1\u000a\u000a    def new_skill(self, skill):\u000a        self.skills.append(skill)\u000a\u000a\u000aif __name__ == '__main__':\u000a\u000a    a1 = Animal()\u000a    a2 = Animal()\u000a\u000a    a1.work()\u000a    print a1.energy  # result:9\u000a    print a2.energy  # result:10\u000a\u000a\u000a    a1.new_skill('bark')\u000a    a2.new_skill('sleep')\u000a    print a1.skills  # result:['bark', 'sleep']\u000a    print a2.skills  # result:['bark', 'sleep']\u000a</code></pre>\u000a\u000a<p>I thought that <code>energy</code> and <code>skill</code> were class variables, because I declared them out of any method. I modify its values inside the methods in the same way (with <code>self</code> in his declaration, maybe incorrect?). But the results show me that <code>energy</code> takes different values for each object (like a instance variable), while <code>skills</code> seems to be shared (like a class variable). I think I've missed something important...</p>\u000a
p1449
sVis_answered
p1450
I01
sVview_count
p1451
I2195
sVtags
p1452
(lp1453
Vpython
p1454
asVlast_activity_date
p1455
I1458239555
sVanswer_count
p1456
I5
sVcreation_date
p1457
I1456993615
sVscore
p1458
I54
sVlink
p1459
Vhttp://stackoverflow.com/questions/35766834/python-understanding-class-and-instance-variables
p1460
sVaccepted_answer_id
p1461
I35777981
sVowner
p1462
(dp1463
Vuser_id
p1464
I907466
sVprofile_image
p1465
Vhttps://i.stack.imgur.com/D3QQ3.jpg?s=128&g=1
p1466
sVuser_type
p1467
Vregistered
p1468
sVreputation
p1469
I396
sVlink
p1470
Vhttp://stackoverflow.com/users/907466/neogurb
p1471
sVaccept_rate
p1472
I100
sVdisplay_name
p1473
Vneogurb
p1474
ssVtitle
p1475
VPython: understanding class and instance variables
p1476
sVquestion_id
p1477
I35766834
sa(dp1478
Vbody
p1479
V<p>I'm new to Python and reading someone else's code:</p>\u000a\u000a<p>should <code>urllib.urlopen()</code> be followed by <code>urllib.close()</code>? Otherwise, one would leak connections, correct?</p>\u000a
p1480
sVis_answered
p1481
I01
sVview_count
p1482
I30109
sVtags
p1483
(lp1484
Vpython
p1485
aVurllib
p1486
asVlast_activity_date
p1487
I1455607842
sVanswer_count
p1488
I4
sVcreation_date
p1489
I1254779944
sVscore
p1490
I54
sVlink
p1491
Vhttp://stackoverflow.com/questions/1522636/should-i-call-close-after-urllib-urlopen
p1492
sVaccepted_answer_id
p1493
I1522709
sVowner
p1494
(dp1495
Vuser_id
p1496
I182808
sVprofile_image
p1497
Vhttps://www.gravatar.com/avatar/d7e2ac1ac9e96e7c7655b06473a1a54e?s=128&d=identicon&r=PG
p1498
sVuser_type
p1499
Vregistered
p1500
sVreputation
p1501
I2534
sVlink
p1502
Vhttp://stackoverflow.com/users/182808/nikita
p1503
sVaccept_rate
p1504
I51
sVdisplay_name
p1505
VNikita
p1506
ssVtitle
p1507
Vshould I call close() after urllib.urlopen()?
p1508
sVlast_edit_date
p1509
I1335328378
sVquestion_id
p1510
I1522636
sa(dp1511
Vbody
p1512
V<p>I've encounter a following <a href="http://stallman.org/stallman-computing.html" rel="noreferrer">statement by Richard Stallman</a>:</p>\u000a\u000a<blockquote>\u000a  <p>'When you start a Lisp system, it enters a read-eval-print loop. Most other languages have nothing comparable to read, nothing comparable to eval, and nothing comparable to print. What gaping deficiencies! '</p>\u000a</blockquote>\u000a\u000a<p>Now, I did very little programming in Lisp, but I've wrote considerable amount of code in Python and recently a little in Erlang. My impression was that these languages also offer read-eval-print loop, but Stallman disagrees (at least about Python):</p>\u000a\u000a<blockquote>\u000a  <p>'I skimmed documentation of Python after people told me it was fundamentally similar to Lisp. My conclusion is that that is not so. When you start Lisp, it does 'read', 'eval', and 'print', all of which are missing in Python.'</p>\u000a</blockquote>\u000a\u000a<p>Is there really a fundamental technical difference between Lisp's and Python's read-eval-print loops? Can you give examples of things that Lisp REPL makes easy and that are difficult to do in Python?</p>\u000a
p1513
sVis_answered
p1514
I01
sVview_count
p1515
I5668
sVtags
p1516
(lp1517
Vpython
p1518
aVfunctional-programming
p1519
aVlisp
p1520
aVread-eval-print-loop
p1521
asVlast_activity_date
p1522
I1380047773
sVanswer_count
p1523
I4
sVcreation_date
p1524
I1346701125
sVscore
p1525
I54
sVlink
p1526
Vhttp://stackoverflow.com/questions/12253200/how-is-lisps-read-eval-print-loop-different-than-pythons
p1527
sVaccepted_answer_id
p1528
I12253272
sVowner
p1529
(dp1530
Vuser_id
p1531
I1031601
sVprofile_image
p1532
Vhttps://www.gravatar.com/avatar/b0da8cc80151b3b3cff2335357597108?s=128&d=identicon&r=PG
p1533
sVuser_type
p1534
Vregistered
p1535
sVreputation
p1536
I3767
sVlink
p1537
Vhttp://stackoverflow.com/users/1031601/jan-wrobel
p1538
sVaccept_rate
p1539
I83
sVdisplay_name
p1540
VJan Wrobel
p1541
ssVtitle
p1542
VHow is Lisp&#39;s read-eval-print loop different than Python&#39;s?
p1543
sVlast_edit_date
p1544
I1374889828
sVquestion_id
p1545
I12253200
sa(dp1546
Vbody
p1547
V<p>How do I select a(or some) random row(s) from a table using SQLAlchemy? </p>\u000a
p1548
sVis_answered
p1549
I01
sVview_count
p1550
I14498
sVtags
p1551
(lp1552
Vpython
p1553
aVsql
p1554
aVdatabase
p1555
aVsqlalchemy
p1556
asVlast_activity_date
p1557
I1489477561
sVanswer_count
p1558
I8
sVcreation_date
p1559
I1221335882
sVscore
p1560
I54
sVlink
p1561
Vhttp://stackoverflow.com/questions/60805/getting-random-row-through-sqlalchemy
p1562
sVaccepted_answer_id
p1563
I60815
sVowner
p1564
(dp1565
Vuser_id
p1566
I1448
sVprofile_image
p1567
Vhttps://www.gravatar.com/avatar/be291a56bc3a4ba6b3b0091c0021957b?s=128&d=identicon&r=PG
p1568
sVuser_type
p1569
Vregistered
p1570
sVreputation
p1571
I12363
sVlink
p1572
Vhttp://stackoverflow.com/users/1448/cnu
p1573
sVaccept_rate
p1574
I53
sVdisplay_name
p1575
Vcnu
p1576
ssVtitle
p1577
VGetting random row through SQLAlchemy
p1578
sVquestion_id
p1579
I60805
sa(dp1580
Vbody
p1581
V<p>I've been very confused about how python axes are defined, and whether they refer to a DataFrame's rows or columns. Consider the code below:</p>\u000a\u000a<pre><code>&gt;&gt;&gt; df = pd.DataFrame([[1, 1, 1, 1], [2, 2, 2, 2], [3, 3, 3, 3]], columns=["col1", "col2", "col3", "col4"])\u000a&gt;&gt;&gt; df\u000a   col1  col2  col3  col4\u000a0     1     1     1     1\u000a1     2     2     2     2\u000a2     3     3     3     3\u000a</code></pre>\u000a\u000a<p>So if we call <code>df.mean(axis=1)</code>, we'll get a mean across the rows:</p>\u000a\u000a<pre><code>&gt;&gt;&gt; df.mean(axis=1)\u000a0    1\u000a1    2\u000a2    3\u000a</code></pre>\u000a\u000a<p>However, if we call <code>df.drop(name, axis=1)</code>, we actually <strong>drop a column</strong>, not a row:</p>\u000a\u000a<pre><code>&gt;&gt;&gt; df.drop("col4", axis=1)\u000a   col1  col2  col3\u000a0     1     1     1\u000a1     2     2     2\u000a2     3     3     3\u000a</code></pre>\u000a\u000a<p>Can someone help me understand what is meant by an "axis" in pandas/numpy/scipy?</p>\u000a\u000a<p>A side note, <code>DataFrame.mean</code> just might be defined wrong. It says in the documentation for <a href="http://pandas.pydata.org/pandas-docs/stable/generated/pandas.DataFrame.mean.html"><code>DataFrame.mean</code></a> that <code>axis=1</code> is supposed to mean a mean over the columns, not the rows...</p>\u000a
p1582
sVis_answered
p1583
I01
sVview_count
p1584
I9536
sVtags
p1585
(lp1586
Vpython
p1587
aVarrays
p1588
aVpandas
p1589
aVnumpy
p1590
aVdataframe
p1591
asVlast_activity_date
p1592
I1492178206
sVanswer_count
p1593
I2
sVcreation_date
p1594
I1410376274
sVscore
p1595
I54
sVlink
p1596
Vhttp://stackoverflow.com/questions/25773245/ambiguity-in-pandas-dataframe-numpy-array-axis-definition
p1597
sVaccepted_answer_id
p1598
I25774395
sVowner
p1599
(dp1600
Vuser_id
p1601
I2014591
sVprofile_image
p1602
Vhttps://www.gravatar.com/avatar/7d6cff955bb3f1865a419650bfe1372c?s=128&d=identicon&r=PG
p1603
sVuser_type
p1604
Vregistered
p1605
sVreputation
p1606
I2189
sVlink
p1607
Vhttp://stackoverflow.com/users/2014591/hlin117
p1608
sVaccept_rate
p1609
I74
sVdisplay_name
p1610
Vhlin117
p1611
ssVtitle
p1612
VAmbiguity in Pandas Dataframe / Numpy Array &quot;axis&quot; definition
p1613
sVlast_edit_date
p1614
I1483373186
sVquestion_id
p1615
I25773245
sa(dp1616
Vbody
p1617
V<p>I have a file called test_web.py containing a class TestWeb and many methods named like  test_something().</p>\u000a\u000a<p>I can run every test in the class like so:</p>\u000a\u000a<pre><code>$ nosetests test_web.py \u000a...\u000a======================================================================\u000aFAIL: checkout test\u000a----------------------------------------------------------------------\u000aTraceback (most recent call last):\u000a  File "/Users/me/path/here/test_web.py", line 187, in test_checkout\u000a...\u000a</code></pre>\u000a\u000a<p>But I can\u2019t seem to run individual tests. These give me \u201cNo such test\u201d errors when run in the same PWD:</p>\u000a\u000a<pre><code>$ nosetests test_web.py:test_checkout\u000a$ nosetests TestWeb:test_checkout\u000a</code></pre>\u000a\u000a<p>What could be wrong here?</p>\u000a
p1618
sVis_answered
p1619
I01
sVview_count
p1620
I14284
sVtags
p1621
(lp1622
Vpython
p1623
aVtestcase
p1624
aVnosetests
p1625
asVlast_activity_date
p1626
I1467990549
sVanswer_count
p1627
I3
sVcreation_date
p1628
I1341188789
sVscore
p1629
I54
sVlink
p1630
Vhttp://stackoverflow.com/questions/11286688/how-do-i-specify-a-single-test-in-a-file-with-nosetests
p1631
sVowner
p1632
(dp1633
Vuser_id
p1634
I1464695
sVprofile_image
p1635
Vhttps://www.gravatar.com/avatar/2c52611f6933d9825acf5b05e63334fd?s=128&d=identicon&r=PG
p1636
sVuser_type
p1637
Vregistered
p1638
sVreputation
p1639
I371
sVlink
p1640
Vhttp://stackoverflow.com/users/1464695/opstastic
p1641
sVdisplay_name
p1642
Vopstastic
p1643
ssVtitle
p1644
VHow do I specify a single test in a file with nosetests?
p1645
sVlast_edit_date
p1646
I1375500793
sVquestion_id
p1647
I11286688
sa(dp1648
Vbody
p1649
V<p>I want to start writing unit tests for my Python code, and the <a href="http://pytest.org/" rel="noreferrer">py.test</a> framework sounds like a better bet than Python's bundled <a href="http://docs.python.org/library/unittest.html" rel="noreferrer">unittest</a>. So I added a "tests" directory to my project, and added <a href="http://doc.pytest.org/en/latest/getting-started.html#our-first-test-run" rel="noreferrer">test_sample.py</a> to it. Now I want to configure PyCharm to run all the tests in my "tests" directory.</p>\u000a\u000a<p>PyCharm allegedly <a href="http://www.jetbrains.com/pycharm/webhelp/testing-support.html" rel="noreferrer">supports py.test</a> in its test runner. You're supposed to be able to <a href="http://www.jetbrains.com/pycharm/webhelp/creating-run-debug-configuration-for-tests.html" rel="noreferrer">create a run/debug configuration</a> to run your tests, and PyCharm allegedly has a <a href="http://www.jetbrains.com/pycharm/webhelp/run-debug-configuration-py-test.html" rel="noreferrer">"create configuration" dialog box specifically for py.test</a>. But that's the complete extent of their documentation on the subject, and I can't find this alleged dialog box anywhere.</p>\u000a\u000a<p>If I right-click the directory in the Project tool window, I'm <a href="http://www.jetbrains.com/pycharm/webhelp/creating-run-debug-configuration-for-tests.html" rel="noreferrer">supposed</a> to see a "Create &lt;name&gt;" menu item, but the only menu item starting with "Create" is "Create Run Configuration". Okay, maybe the documentation is just wrong, and "Create Run Configuration" does sound promising. Unfortunately, the only two items in its submenu are "Unittests in C:\u005cmypath..." and "Doctests in C:\u005cmypath...", neither of which applies -- I'm using neither unittest nor doctest. There is no menu item for py.test.</p>\u000a\u000a<p>If I open my test_sample.py and right-click in the editor window, I do get the promised "Create &lt;name&gt;" menu items: there's "Create 'Unittests in test_sa...'...", followed by "Run 'Unittests in test_sa...'" and "Debug 'Unittests in test_sa...'". So again, it's all specific to the unittest framework; nothing for py.test.</p>\u000a\u000a<p>If I do try the menu items that say "unittest", I get a dialog box with options for "Name", "Type", a "Tests" group box with "Folder" and "Pattern" and "Script" and "Class" and "Function", etc. This sounds exactly like what's documented as the dialog to add a <a href="http://www.jetbrains.com/pycharm/webhelp/run-debug-configuration-python-unit-test.html" rel="noreferrer">configuration for Python Unit Test</a>, and not like the "Name" and "Test to run" and "Keywords" options that are supposed to show up in the <a href="http://www.jetbrains.com/pycharm/webhelp/run-debug-configuration-py-test.html" rel="noreferrer">configuration for py.test</a> dialog. There's nothing inside the dialog to switch which test framework I'm adding.</p>\u000a\u000a<p>I'm using PyCharm 1.5.2 on Windows with Python 3.1.3 and pytest 2.0.3. I can successfully run <code>py.test</code> on my tests from the command line, so it's not something simple like pytest not being installed properly.</p>\u000a\u000a<p>How do I configure PyCharm to run my py.test tests?</p>\u000a
p1650
sVis_answered
p1651
I01
sVview_count
p1652
I28942
sVtags
p1653
(lp1654
Vpython
p1655
aVpycharm
p1656
aVpy.test
p1657
asVlast_activity_date
p1658
I1480420246
sVanswer_count
p1659
I4
sVcreation_date
p1660
I1308411432
sVscore
p1661
I54
sVlink
p1662
Vhttp://stackoverflow.com/questions/6397063/how-do-i-configure-pycharm-to-run-py-test-tests
p1663
sVaccepted_answer_id
p1664
I6397315
sVowner
p1665
(dp1666
Vuser_id
p1667
I87399
sVprofile_image
p1668
Vhttps://i.stack.imgur.com/6rBH5.png?s=128&g=1
p1669
sVuser_type
p1670
Vregistered
p1671
sVreputation
p1672
I49188
sVlink
p1673
Vhttp://stackoverflow.com/users/87399/joe-white
p1674
sVaccept_rate
p1675
I75
sVdisplay_name
p1676
VJoe White
p1677
ssVtitle
p1678
VHow do I configure PyCharm to run py.test tests?
p1679
sVlast_edit_date
p1680
I1364950417
sVquestion_id
p1681
I6397063
sa(dp1682
Vbody
p1683
V<p>I'm wondering how to setup a more specific logging system. All my tasks use</p>\u000a\u000a<pre><code>logger = logging.getLogger(__name__)\u000a</code></pre>\u000a\u000a<p>as a module-wide logger.</p>\u000a\u000a<p>I want celery to log to "celeryd.log" and my tasks to "tasks.log" but I got no idea how to get this working. Using <code>CELERYD_LOG_FILE</code> from django-celery I can route all celeryd related log messages to celeryd.log but there is no trace of the log messages created in my tasks.</p>\u000a
p1684
sVis_answered
p1685
I01
sVview_count
p1686
I39158
sVtags
p1687
(lp1688
Vpython
p1689
aVlogging
p1690
aVcelery
p1691
asVlast_activity_date
p1692
I1485952296
sVanswer_count
p1693
I2
sVcreation_date
p1694
I1306868700
sVscore
p1695
I54
sVlink
p1696
Vhttp://stackoverflow.com/questions/6192265/send-log-messages-from-all-celery-tasks-to-a-single-file
p1697
sVaccepted_answer_id
p1698
I6193082
sVowner
p1699
(dp1700
Vdisplay_name
p1701
Vuser816328
p1702
sVuser_type
p1703
Vdoes_not_exist
p1704
ssVtitle
p1705
VSend log messages from all celery tasks to a single file
p1706
sVlast_edit_date
p1707
I1412876237
sVquestion_id
p1708
I6192265
sa(dp1709
Vbody
p1710
V<p>I'm wondering if Python has anything like the C# anonymous classes feature. To clarify, here's a sample C# snippet:</p>\u000a\u000a<pre><code>var foo = new { x = 1, y = 2 };\u000avar bar = new { y = 2, x = 1 };\u000afoo.Equals(bar); // "true"\u000a</code></pre>\u000a\u000a<p>In Python, I would imagine something like this:</p>\u000a\u000a<pre><code>foo = record(x = 1, y = 2)\u000abar = record(y = 2, x = 1)\u000afoo == bar  # true\u000a</code></pre>\u000a\u000a<p>The specific requirement is being able to create an object with specified fields in expression context (e.g. usable in lambdas and other places where statements aren't allowed), with no additional external declarations, and ability to access individual components by name via the normal member access syntax <code>foo.bar</code>. The created object should also implement structural comparison <em>by component names</em>  (not by position, as tuples do).</p>\u000a\u000a<p>In particular: tuples isn't it because their components are not named; classes isn't it because they require a declaration; dicts isn't it because they have undesired <code>foo["bar"]</code> syntax to access components.</p>\u000a\u000a<p><a href="http://docs.python.org/library/collections.html?highlight=namedtuples#namedtuple-factory-function-for-tuples-with-named-fields" rel="noreferrer">namedtuple</a> isn't it, because it still requires a name even if you define the type inline, and the comparison is position-based, not name-based. In particular:</p>\u000a\u000a<pre><code> def foo(): return namedtuple("Foo", "x y")(x = 1, y = 2)\u000a def bar(): return namedtuple("Foo", "y x")(x = 1, y = 2)\u000a foo() == bar()   # False because fields are compared in order, and not by name\u000a                  # True would be desired instead\u000a</code></pre>\u000a\u000a<p>I know how to write such a thing in Python if needed. But I would like to know if there's anything like that in the Python standard library, or any popular third-party libraries.</p>\u000a\u000a<h2>[EDIT]</h2>\u000a\u000a<p>Just for the sake of it, here's a single-expression solution that combines two very informative answers by Ken and alanlcode, yielding structural equality without any extra outside declarations:</p>\u000a\u000a<pre><code>type("", (), { \u005c\u000a    "__init__": (lambda self, **kwargs: self.__dict__.update(kwargs)), \u005c\u000a    "__eq__": (lambda self, other: self.__dict__ == other.__dict__) } \u005c\u000a)(x = 1, y = 2)\u000a</code></pre>\u000a\u000a<p>Technically, it satisfies all the requirements of the question, but I sincerely hope that no-one ever uses it (I definitely won't).</p>\u000a
p1711
sVis_answered
p1712
I01
sVview_count
p1713
I23771
sVtags
p1714
(lp1715
Vpython
p1716
asVlast_activity_date
p1717
I1432967297
sVanswer_count
p1718
I7
sVcreation_date
p1719
I1247534575
sVscore
p1720
I54
sVlink
p1721
Vhttp://stackoverflow.com/questions/1123000/does-python-have-anonymous-classes
p1722
sVaccepted_answer_id
p1723
I1123026
sVowner
p1724
(dp1725
Vuser_id
p1726
I111335
sVprofile_image
p1727
Vhttps://i.stack.imgur.com/G8jTJ.jpg?s=128&g=1
p1728
sVuser_type
p1729
Vregistered
p1730
sVreputation
p1731
I77250
sVlink
p1732
Vhttp://stackoverflow.com/users/111335/pavel-minaev
p1733
sVaccept_rate
p1734
I71
sVdisplay_name
p1735
VPavel Minaev
p1736
ssVtitle
p1737
VDoes Python have anonymous classes?
p1738
sVlast_edit_date
p1739
I1247536712
sVquestion_id
p1740
I1123000
sa(dp1741
Vbody
p1742
V<p>I want to make a dictionary where English words point to Russian and French translations. </p>\u000a\u000a<p>How do I print out unicode characters in Python?  Also, how do you store unicode chars in a variable?</p>\u000a
p1743
sVis_answered
p1744
I01
sVview_count
p1745
I108370
sVtags
p1746
(lp1747
Vpython
p1748
aVpython-unicode
p1749
asVlast_activity_date
p1750
I1494884180
sVanswer_count
p1751
I5
sVcreation_date
p1752
I1336885257
sVscore
p1753
I54
sVlink
p1754
Vhttp://stackoverflow.com/questions/10569438/how-to-print-unicode-character-in-python
p1755
sVowner
p1756
(dp1757
Vuser_id
p1758
I547646
sVprofile_image
p1759
Vhttps://www.gravatar.com/avatar/c914361d6566b86a6ce7194b7e3c824f?s=128&d=identicon&r=PG
p1760
sVuser_type
p1761
Vregistered
p1762
sVreputation
p1763
I1458
sVlink
p1764
Vhttp://stackoverflow.com/users/547646/noobdev4iphone
p1765
sVaccept_rate
p1766
I42
sVdisplay_name
p1767
VNoobDev4iPhone
p1768
ssVtitle
p1769
VHow to print Unicode character in Python?
p1770
sVlast_edit_date
p1771
I1386458518
sVquestion_id
p1772
I10569438
sa(dp1773
Vbody
p1774
V<p>I'm attempting to sort a list of strings in a locale-aware manner.  I've used the Babel library for other i18n-related tasks, but it doesn't support sorting.  Python's <code>locale</code> module provides a <code>strcoll</code> function, but requires the locale of the process to be set to the one I want to work with.  Kind of a pain, but I can live with it.</p>\u000a\u000a<p>The problem is that I can't seem to actually set the locale.  The <a href="http://docs.python.org/library/locale.html" rel="noreferrer">documentation</a> for the <code>locale</code> module gives this example:</p>\u000a\u000a<pre><code>import locale\u000alocale.setlocale(locale.LC_ALL, 'de_DE')\u000a</code></pre>\u000a\u000a<p>When I run that, I get this:</p>\u000a\u000a<pre><code>Traceback (most recent call last):\u000a  File "&lt;stdin&gt;", line 1, in &lt;module&gt;\u000a  File "C:\u005cPython26\u005cLib\u005clocale.py", line 494, in setlocale\u000alocale.Error: unsupported locale setting\u000a</code></pre>\u000a\u000a<p>What am I doing wrong?</p>\u000a
p1775
sVis_answered
p1776
I01
sVview_count
p1777
I51476
sVtags
p1778
(lp1779
Vpython
p1780
aVlocalization
p1781
aVinternationalization
p1782
asVlast_activity_date
p1783
I1490650166
sVanswer_count
p1784
I5
sVcreation_date
p1785
I1244210202
sVscore
p1786
I54
sVlink
p1787
Vhttp://stackoverflow.com/questions/955986/what-is-the-correct-way-to-set-pythons-locale-on-windows
p1788
sVaccepted_answer_id
p1789
I956084
sVowner
p1790
(dp1791
Vuser_id
p1792
I51025
sVprofile_image
p1793
Vhttps://www.gravatar.com/avatar/263fec125853f697e0ea89787a4731a6?s=128&d=identicon&r=PG
p1794
sVuser_type
p1795
Vregistered
p1796
sVreputation
p1797
I23952
sVlink
p1798
Vhttp://stackoverflow.com/users/51025/dns
p1799
sVaccept_rate
p1800
I94
sVdisplay_name
p1801
VDNS
p1802
ssVtitle
p1803
VWhat is the correct way to set Python&#39;s locale on Windows?
p1804
sVlast_edit_date
p1805
I1468700229
sVquestion_id
p1806
I955986
sa(dp1807
Vbody
p1808
V<p>Given a DataFrame with a column "BoolCol", we want to find the indexes of the DataFrame in which the values for "BoolCol" == True</p>\u000a\u000a<p>I currently have the iterating way to do it, which works perfectly:</p>\u000a\u000a<pre><code>for i in range(100,3000):\u000a    if df.iloc[i]['BoolCol']== True:\u000a         print i,df.iloc[i]['BoolCol']\u000a</code></pre>\u000a\u000a<p>But this is not the correct panda's way to do it.\u000aAfter some research, I am currently using this code:</p>\u000a\u000a<pre><code>df[df['BoolCol'] == True].index.tolist()\u000a</code></pre>\u000a\u000a<p>This one gives me a list of indexes, but they dont match, when I check them by doing:</p>\u000a\u000a<pre><code>df.iloc[i]['BoolCol']\u000a</code></pre>\u000a\u000a<p>The result is actually False!!</p>\u000a\u000a<p>Which would be the correct Pandas way to do this?</p>\u000a
p1809
sVis_answered
p1810
I01
sVview_count
p1811
I120861
sVtags
p1812
(lp1813
Vpython
p1814
aVindexing
p1815
aVpandas
p1816
asVlast_activity_date
p1817
I1492196713
sVanswer_count
p1818
I2
sVcreation_date
p1819
I1392481091
sVscore
p1820
I54
sVlink
p1821
Vhttp://stackoverflow.com/questions/21800169/python-pandas-get-index-of-rows-which-column-matches-certain-value
p1822
sVaccepted_answer_id
p1823
I21800319
sVowner
p1824
(dp1825
Vuser_id
p1826
I2138906
sVprofile_image
p1827
Vhttps://www.gravatar.com/avatar/d1682b9ad1deb8f06ba6ca5856f181e1?s=128&d=identicon&r=PG
p1828
sVuser_type
p1829
Vregistered
p1830
sVreputation
p1831
I544
sVlink
p1832
Vhttp://stackoverflow.com/users/2138906/i-want-badges
p1833
sVaccept_rate
p1834
I90
sVdisplay_name
p1835
VI want badges
p1836
ssVtitle
p1837
VPython Pandas: Get index of rows which column matches certain value
p1838
sVquestion_id
p1839
I21800169
sa(dp1840
Vbody
p1841
V<p>What is the difference between subprocess.Popen() and os.system() ?</p>\u000a
p1842
sVis_answered
p1843
I01
sVview_count
p1844
I41339
sVtags
p1845
(lp1846
Vpython
p1847
aVsubprocess
p1848
asVlast_activity_date
p1849
I1341427208
sVanswer_count
p1850
I4
sVcreation_date
p1851
I1296108249
sVscore
p1852
I54
sVlink
p1853
Vhttp://stackoverflow.com/questions/4813238/difference-between-subprocess-popen-and-os-system
p1854
sVaccepted_answer_id
p1855
I4813571
sVowner
p1856
(dp1857
Vuser_id
p1858
I587088
sVprofile_image
p1859
Vhttps://i.stack.imgur.com/q5Rfv.jpg?s=128&g=1
p1860
sVuser_type
p1861
Vregistered
p1862
sVreputation
p1863
I1280
sVlink
p1864
Vhttp://stackoverflow.com/users/587088/arovit
p1865
sVaccept_rate
p1866
I78
sVdisplay_name
p1867
VArovit
p1868
ssVtitle
p1869
VDifference between subprocess.Popen and os.system
p1870
sVlast_edit_date
p1871
I1296114180
sVquestion_id
p1872
I4813238
sa(dp1873
Vbody
p1874
V<p>Upgraded Ubuntu to Precise Pangolin (12.04), and Python's Random is now broken... I suspect other things might be broken too. How do I fix Python?</p>\u000a\u000a<pre><code>    File "/usr/lib/python2.7/random.py", line 47, in &lt;module&gt;\u000a    from os import urandom as _urandom\u000aImportError: cannot import name urandom\u000a</code></pre>\u000a\u000a<p><em>Alas, poor Python! I knew him, Random, a module of infinite\u000ajest, of most probable chaos. He hath bore me on his randint() a\u000athousand times, and now how abhorr'd in my workspace it is!\u000aMy Exception Handler rises at it.</em></p>\u000a\u000a<p><em>edit</em> Running in virtualenv</p>\u000a
p1875
sVis_answered
p1876
I01
sVview_count
p1877
I19572
sVtags
p1878
(lp1879
Vpython
p1880
aVubuntu
p1881
aVrandom
p1882
asVlast_activity_date
p1883
I1477042990
sVanswer_count
p1884
I5
sVcreation_date
p1885
I1335641305
sVscore
p1886
I54
sVlink
p1887
Vhttp://stackoverflow.com/questions/10366821/python-importerror-cannot-import-urandom-since-ubuntu-12-04-upgrade
p1888
sVaccepted_answer_id
p1889
I10366919
sVowner
p1890
(dp1891
Vuser_id
p1892
I849697
sVprofile_image
p1893
Vhttps://www.gravatar.com/avatar/0c91f58ffa7bbf4151cae13b5c8b9ccd?s=128&d=identicon&r=PG
p1894
sVuser_type
p1895
Vregistered
p1896
sVreputation
p1897
I5314
sVlink
p1898
Vhttp://stackoverflow.com/users/849697/xxjjnn
p1899
sVaccept_rate
p1900
I71
sVdisplay_name
p1901
Vxxjjnn
p1902
ssVtitle
p1903
VPython ImportError cannot import urandom Since Ubuntu 12.04 upgrade
p1904
sVlast_edit_date
p1905
I1335644548
sVquestion_id
p1906
I10366821
sa(dp1907
Vbody
p1908
V<p>I need to extract the name of the parent directory of a certain path. This is what it looks like: <code>c:\u005c stuff \u005c directory_i_need \u005c subdir \u005c file</code>. I am modifying the content of the "file" with something that uses the <code>directory_i_need</code> name in it (not the path). I have created a function that will give me a list of all the files, and then...</p>\u000a\u000a<pre><code>for path in file_list:\u000a   #directory_name = os.path.dirname(path)   # this is not what I need, that's why it is commented\u000a   directories, files = path.split('\u005c\u005c')\u000a\u000a   line_replace_add_directory = line_replace + directories  \u000a   # this is what I want to add in the text, with the directory name at the end \u000a   # of the line.\u000a</code></pre>\u000a\u000a<p>How can I do that?</p>\u000a
p1909
sVis_answered
p1910
I01
sVview_count
p1911
I69024
sVtags
p1912
(lp1913
Vpython
p1914
aVdirectory
p1915
aVfilepath
p1916
asVlast_activity_date
p1917
I1453199856
sVanswer_count
p1918
I5
sVcreation_date
p1919
I1334357280
sVscore
p1920
I54
sVlink
p1921
Vhttp://stackoverflow.com/questions/10149263/extract-a-part-of-the-filepath-a-directory-in-python
p1922
sVaccepted_answer_id
p1923
I10149358
sVowner
p1924
(dp1925
Vuser_id
p1926
I1217150
sVprofile_image
p1927
Vhttps://i.stack.imgur.com/6ryIf.png?s=128&g=1
p1928
sVuser_type
p1929
Vregistered
p1930
sVreputation
p1931
I3191
sVlink
p1932
Vhttp://stackoverflow.com/users/1217150/thalia
p1933
sVaccept_rate
p1934
I91
sVdisplay_name
p1935
VThalia
p1936
ssVtitle
p1937
VExtract a part of the filepath (a directory) in Python
p1938
sVlast_edit_date
p1939
I1448176454
sVquestion_id
p1940
I10149263
sa(dp1941
Vbody
p1942
V<p>I have the following code, which just print the key/value pairs in a dict (the pairs are sorted by keys):</p>\u000a\u000a<pre><code>for word, count in sorted(count_words(filename).items()):\u000a    print word, count\u000a</code></pre>\u000a\u000a<p>However, calling <code>iteritems()</code> instead of <code>items()</code> produces the same output</p>\u000a\u000a<pre><code>for word, count in sorted(count_words(filename).iteritems()):\u000a    print word, count\u000a</code></pre>\u000a\u000a<p>Now, which one should I choose in this situation? I consulted the <a href="http://docs.python.org/library/stdtypes.html#dict.items">Python tutorial</a> but it doesn't really answer my question.</p>\u000a
p1943
sVis_answered
p1944
I01
sVview_count
p1945
I58568
sVtags
p1946
(lp1947
Vpython
p1948
asVlast_activity_date
p1949
I1410384672
sVanswer_count
p1950
I2
sVcreation_date
p1951
I1293582741
sVscore
p1952
I54
sVlink
p1953
Vhttp://stackoverflow.com/questions/4550645/iterating-over-key-value-pairs-in-a-dict-sorted-by-keys
p1954
sVaccepted_answer_id
p1955
I4550652
sVowner
p1956
(dp1957
Vuser_id
p1958
I1178669
sVprofile_image
p1959
Vhttps://www.gravatar.com/avatar/ef6112195affeb9801ef720a29b035e5?s=128&d=identicon&r=PG
p1960
sVuser_type
p1961
Vregistered
p1962
sVreputation
p1963
I18005
sVlink
p1964
Vhttp://stackoverflow.com/users/1178669/helpermethod
p1965
sVaccept_rate
p1966
I93
sVdisplay_name
p1967
Vhelpermethod
p1968
ssVtitle
p1969
VIterating over key/value pairs in a dict sorted by keys
p1970
sVquestion_id
p1971
I4550645
sa(dp1972
Vclosed_date
p1973
I1359437531
sVis_answered
p1974
I01
sVclosed_reason
p1975
Vexact duplicate
p1976
sVview_count
p1977
I88617
sVtags
p1978
(lp1979
Vpython
p1980
aVmysql
p1981
asVbody
p1982
V<blockquote>\u000a  <p><strong>Possible Duplicate:</strong><br>\u000a  <a href="http://stackoverflow.com/questions/2817869/error-unable-to-find-vcvarsall-bat">error: Unable to find vcvarsall.bat</a>  </p>\u000a</blockquote>\u000a\u000a\u000a\u000a<p>I'm trying to install MySql interface for python, but I got an error (mentioned below). And I know the solution: install Microsoft Visual C++. Is there any alternative solution apart from installing Microsoft Visual C++? I mean this has really hurt me; why should I install Microsoft Visual C++ just because to build this single package it's a useless and time-wasting approach from the developer's perspective. Is there any alternative solution for this issue?</p>\u000a\u000a<pre><code>MySQL-python-1.2.3c1&gt;setup.py install\u000arunning install\u000arunning bdist_egg\u000arunning egg_info\u000awriting MySQL_python.egg-info\u005cPKG-INFO\u000awriting top-level names to MySQL_python.egg-info\u005ctop_level.txt\u000awriting dependency_links to MySQL_python.egg-info\u005cdependency_links.txt\u000areading manifest file 'MySQL_python.egg-info\u005cSOURCES.txt'\u000areading manifest template 'MANIFEST.in'\u000awriting manifest file 'MySQL_python.egg-info\u005cSOURCES.txt'\u000ainstalling library code to build\u005cbdist.win32\u005cegg\u000arunning install_lib\u000arunning build_py\u000acopying MySQLdb\u005crelease.py -&gt; build\u005clib.win32-2.6\u005cMySQLdb\u000arunning build_ext\u000abuilding '_mysql' extension\u000aerror: Unable to find vcvarsall.bat\u000a</code></pre>\u000a\u000a<p>I'm using Python 2.6 on Windows XP.</p>\u000a
p1983
sVlast_activity_date
p1984
I1356640816
sVaccepted_answer_id
p1985
I2272853
sVcreation_date
p1986
I1266323030
sVscore
p1987
I54
sVlink
p1988
Vhttp://stackoverflow.com/questions/2272786/python-issueunable-to-find-vcvarsall-bat
p1989
sVanswer_count
p1990
I6
sVowner
p1991
(dp1992
Vuser_id
p1993
I87072
sVprofile_image
p1994
Vhttps://www.gravatar.com/avatar/112661c62f9c7ff1f9f729c61e3e2ec4?s=128&d=identicon&r=PG
p1995
sVuser_type
p1996
Vregistered
p1997
sVreputation
p1998
I4242
sVlink
p1999
Vhttp://stackoverflow.com/users/87072/switch
p2000
sVaccept_rate
p2001
I83
sVdisplay_name
p2002
VSwitch
p2003
ssVtitle
p2004
VPython issue:Unable to find vcvarsall.bat
p2005
sVlast_edit_date
p2006
I1344752328
sVquestion_id
p2007
I2272786
sa(dp2008
Vbody
p2009
V<p>How to get from</p>\u000a\u000a<pre><code>["1.1", "2.2", "3.2"]\u000a</code></pre>\u000a\u000a<p>to</p>\u000a\u000a<pre><code>[1.1, 2.2, 3.2]\u000a</code></pre>\u000a\u000a<p>in NumPy?</p>\u000a
p2010
sVis_answered
p2011
I01
sVview_count
p2012
I99278
sVtags
p2013
(lp2014
Vpython
p2015
aVnumpy
p2016
asVlast_activity_date
p2017
I1437310396
sVanswer_count
p2018
I1
sVcreation_date
p2019
I1286402253
sVscore
p2020
I54
sVlink
p2021
Vhttp://stackoverflow.com/questions/3877209/how-to-convert-an-array-of-strings-to-an-array-of-floats-in-numpy
p2022
sVaccepted_answer_id
p2023
I3877247
sVowner
p2024
(dp2025
Vuser_id
p2026
I212865
sVprofile_image
p2027
Vhttps://www.gravatar.com/avatar/186cf05f35915374dd64c29cd64cde97?s=128&d=identicon&r=PG
p2028
sVuser_type
p2029
Vregistered
p2030
sVreputation
p2031
I3043
sVlink
p2032
Vhttp://stackoverflow.com/users/212865/meh
p2033
sVaccept_rate
p2034
I88
sVdisplay_name
p2035
VMeh
p2036
ssVtitle
p2037
VHow to convert an array of strings to an array of floats in numpy?
p2038
sVlast_edit_date
p2039
I1437310396
sVquestion_id
p2040
I3877209
sa(dp2041
Vbody
p2042
V<p>I have some code like this one:</p>\u000a\u000a<pre><code>&gt;&gt;&gt; import re\u000a&gt;&gt;&gt; p = re.compile('my pattern')\u000a&gt;&gt;&gt; print p\u000a_sre.SRE_Pattern object at 0x02274380\u000a</code></pre>\u000a\u000a<p>Is it possible to get string <code>"my pattern"</code> from <code>p</code> variable?</p>\u000a
p2043
sVis_answered
p2044
I01
sVview_count
p2045
I19153
sVtags
p2046
(lp2047
Vpython
p2048
aVregex
p2049
asVlast_activity_date
p2050
I1469328525
sVanswer_count
p2051
I3
sVcreation_date
p2052
I1252784081
sVscore
p2053
I54
sVlink
p2054
Vhttp://stackoverflow.com/questions/1415924/how-can-i-obtain-pattern-string-from-compiled-regexp-pattern-in-python
p2055
sVaccepted_answer_id
p2056
I1415932
sVowner
p2057
(dp2058
Vuser_id
p2059
I69885
sVprofile_image
p2060
Vhttps://www.gravatar.com/avatar/6d0e82fc0d0ec961a1537bbd75bcf65c?s=128&d=identicon&r=PG
p2061
sVuser_type
p2062
Vregistered
p2063
sVreputation
p2064
I1327
sVlink
p2065
Vhttp://stackoverflow.com/users/69885/mykola-kharechko
p2066
sVaccept_rate
p2067
I72
sVdisplay_name
p2068
VMykola Kharechko
p2069
ssVtitle
p2070
Vhow can i obtain pattern string from compiled regexp pattern in python
p2071
sVlast_edit_date
p2072
I1252784461
sVquestion_id
p2073
I1415924
sa(dp2074
Vbody
p2075
V<p>What is the cleanest way to make Javascript do something <em>like</em> Python's list comprehension?</p>\u000a\u000a<p>In Python if I have a list of objects whose name's I want to 'pull out' I would do this...</p>\u000a\u000a<pre><code>list_of_names = [x.name for x in list_of_objects]\u000a</code></pre>\u000a\u000a<p>In javascript I don't really see a more 'beautiful' way of doing that other than just using a for loop construct.</p>\u000a\u000a<p>FYI: I'm using jQuery; maybe it has some nifty feature that makes this possible? </p>\u000a\u000a<p>More specifically, say I use a jQuery selector like <code>$('input')</code> to get all <code>input</code> elements, how would I <em>most cleanly</em> create an array of all the <code>name</code> attributes for each of these <code>input</code> elements--i.e., all of the <code>$('input').attr('name')</code> strings in an array?</p>\u000a
p2076
sVis_answered
p2077
I01
sVview_count
p2078
I21528
sVtags
p2079
(lp2080
Vjavascript
p2081
aVjquery
p2082
aVpython
p2083
aVlist-comprehension
p2084
asVlast_activity_date
p2085
I1411615414
sVanswer_count
p2086
I10
sVcreation_date
p2087
I1297385077
sVscore
p2088
I54
sVlink
p2089
Vhttp://stackoverflow.com/questions/4964456/make-javascript-do-list-comprehension
p2090
sVaccepted_answer_id
p2091
I4964550
sVowner
p2092
(dp2093
Vuser_id
p2094
I273637
sVprofile_image
p2095
Vhttps://www.gravatar.com/avatar/89b9c456e8b6945d1e5fd87addf4f739?s=128&d=identicon&r=PG
p2096
sVuser_type
p2097
Vregistered
p2098
sVreputation
p2099
I13723
sVlink
p2100
Vhttp://stackoverflow.com/users/273637/chris-w
p2101
sVaccept_rate
p2102
I89
sVdisplay_name
p2103
VChris W.
p2104
ssVtitle
p2105
VMake Javascript do List Comprehension
p2106
sVquestion_id
p2107
I4964456
sa(dp2108
Vbody
p2109
V<p>I reckoned that often the answer to my title is to go and read the documentations, but I ran through the <a href="http://www.nltk.org/book" rel="noreferrer">NLTK book</a> but it doesn't give the answer. I'm kind of new to python.</p>\u000a\u000a<p>I have a bunch of <code>.txt</code> files and I want to be able to use the corpus functions that NLTK provides for the corpus <code>nltk_data</code>. </p>\u000a\u000a<p>I've tried <code>PlaintextCorpusReader</code> but I couldn't get further than:</p>\u000a\u000a<pre><code>&gt;&gt;&gt;import nltk\u000a&gt;&gt;&gt;from nltk.corpus import PlaintextCorpusReader\u000a&gt;&gt;&gt;corpus_root = './'\u000a&gt;&gt;&gt;newcorpus = PlaintextCorpusReader(corpus_root, '.*')\u000a&gt;&gt;&gt;newcorpus.words()\u000a</code></pre>\u000a\u000a<p>How do I segment the <code>newcorpus</code> sentences using punkt? I tried using the punkt functions but the punkt functions couldn't read <code>PlaintextCorpusReader</code> class?</p>\u000a\u000a<p>Can you also lead me to how I can write the segmented data into text files?</p>\u000a\u000a<p><strong>Edit:</strong>\u000aThis question had a bounty once, and it now has a second bounty. See text in bounty box.</p>\u000a
p2110
sVis_answered
p2111
I01
sVview_count
p2112
I37410
sVtags
p2113
(lp2114
Vpython
p2115
aVnlp
p2116
aVnltk
p2117
aVcorpus
p2118
asVlast_activity_date
p2119
I1421882207
sVanswer_count
p2120
I3
sVcreation_date
p2121
I1297293588
sVscore
p2122
I54
sVlink
p2123
Vhttp://stackoverflow.com/questions/4951751/creating-a-new-corpus-with-nltk
p2124
sVaccepted_answer_id
p2125
I4952238
sVowner
p2126
(dp2127
Vuser_id
p2128
I610569
sVprofile_image
p2129
Vhttps://www.gravatar.com/avatar/0e9087f2672b0e4f28d91266acf9ce57?s=128&d=identicon&r=PG
p2130
sVuser_type
p2131
Vregistered
p2132
sVreputation
p2133
I25656
sVlink
p2134
Vhttp://stackoverflow.com/users/610569/alvas
p2135
sVaccept_rate
p2136
I92
sVdisplay_name
p2137
Valvas
p2138
ssVtitle
p2139
VCreating a new corpus with NLTK
p2140
sVlast_edit_date
p2141
I1421882207
sVquestion_id
p2142
I4951751
sa(dp2143
Vbody
p2144
V<p>With <strong>django-rest-framework 3.0</strong> and having these simple models:</p>\u000a\u000a<pre><code>class Book(models.Model):\u000a    title = models.CharField(max_length=50)\u000a\u000a\u000aclass Page(models.Model):\u000a    book = models.ForeignKey(Books, related_name='related_book')\u000a    text = models.CharField(max_length=500)\u000a</code></pre>\u000a\u000a<p>And given this JSON request:</p>\u000a\u000a<pre><code>{\u000a   "book_id":1,\u000a   "pages":[\u000a      {\u000a         "page_id":2,\u000a         "text":"loremipsum"\u000a      },\u000a      {\u000a         "page_id":4,\u000a         "text":"loremipsum"\u000a      }\u000a   ]\u000a}\u000a</code></pre>\u000a\u000a<p>How can I write a nested serializer to process this JSON and for each <code>page</code> for the given <code>book</code> either create a new page or update if it exists.</p>\u000a\u000a<pre><code>class RequestSerializer(serializers.Serializer):\u000a    book_id = serializers.IntegerField()\u000a    page = PageSerializer(many=True)\u000a\u000a\u000aclass PageSerializer(serializers.ModelSerializer):\u000a    class Meta:\u000a        model = Page\u000a</code></pre>\u000a\u000a<p>I know that instantiating the serializer with an <code>instance</code> will update the current one but how should I use it inside the <code>create</code> method of nested serializer? </p>\u000a
p2145
sVis_answered
p2146
I01
sVview_count
p2147
I19826
sVtags
p2148
(lp2149
Vpython
p2150
aVjson
p2151
aVdjango
p2152
aVserialization
p2153
aVdjango-rest-framework
p2154
asVlast_activity_date
p2155
I1444637027
sVanswer_count
p2156
I1
sVcreation_date
p2157
I1418341739
sVscore
p2158
I54
sVlink
p2159
Vhttp://stackoverflow.com/questions/27434593/django-rest-framework-3-0-create-or-update-in-nested-serializer
p2160
sVaccepted_answer_id
p2161
I27585066
sVowner
p2162
(dp2163
Vuser_id
p2164
I4228942
sVprofile_image
p2165
Vhttps://i.stack.imgur.com/2rplF.jpg?s=128&g=1
p2166
sVuser_type
p2167
Vregistered
p2168
sVreputation
p2169
I1410
sVlink
p2170
Vhttp://stackoverflow.com/users/4228942/norbertpy
p2171
sVaccept_rate
p2172
I85
sVdisplay_name
p2173
Vnorbertpy
p2174
ssVtitle
p2175
Vdjango-rest-framework 3.0 create or update in nested serializer
p2176
sVquestion_id
p2177
I27434593
sa(dp2178
Vbody
p2179
V<p>I'd like to read multiple JSON objects from a file/stream in Python, one at a time. Unfortunately <code>json.load()</code> just <code>.read()</code>s until end-of-file; there doesn't seem to be any way to use it to read a single object or to lazily iterate over the objects.</p>\u000a\u000a<p>Is there any way to do this? Using the standard library would be ideal, but if there's a third-party library I'd use that instead.</p>\u000a\u000a<p>At the moment I'm putting each object on a separate line and using <code>json.loads(f.readline())</code>, but I would really prefer not to need to do this.</p>\u000a\u000a<h2>Example Use</h2>\u000a\u000a<h3>example.py</h3>\u000a\u000a<pre class="lang-python prettyprint-override"><code>import my_json as json\u000aimport sys\u000a\u000afor o in json.iterload(sys.stdin):\u000a    print("Working on a", type(o))\u000a</code></pre>\u000a\u000a<h3>in.txt</h3>\u000a\u000a<pre class="lang-js prettyprint-override"><code>{"foo": ["bar", "baz"]} 1 2 [] 4 5 6\u000a</code></pre>\u000a\u000a<h3>example session</h3>\u000a\u000a<pre class="lang-none prettyprint-override"><code>$ python3.2 example.py &lt; in.txt\u000aWorking on a dict\u000aWorking on a int\u000aWorking on a int\u000aWorking on a list\u000aWorking on a int\u000aWorking on a int\u000aWorking on a int\u000a</code></pre>\u000a
p2180
sVis_answered
p2181
I01
sVview_count
p2182
I29261
sVtags
p2183
(lp2184
Vpython
p2185
aVjson
p2186
aVserialization
p2187
asVlast_activity_date
p2188
I1456278890
sVanswer_count
p2189
I8
sVcreation_date
p2190
I1312063977
sVscore
p2191
I54
sVlink
p2192
Vhttp://stackoverflow.com/questions/6886283/how-i-can-i-lazily-read-multiple-json-objects-from-a-file-stream-in-python
p2193
sVowner
p2194
(dp2195
Vuser_id
p2196
I1114
sVprofile_image
p2197
Vhttps://i.stack.imgur.com/xMJTK.png?s=128&g=1
p2198
sVuser_type
p2199
Vmoderator
p2200
sVreputation
p2201
I59672
sVlink
p2202
Vhttp://stackoverflow.com/users/1114/jeremy-banks
p2203
sVaccept_rate
p2204
I69
sVdisplay_name
p2205
VJeremy Banks
p2206
ssVtitle
p2207
VHow I can I lazily read multiple JSON objects from a file/stream in Python?
p2208
sVlast_edit_date
p2209
I1318637545
sVquestion_id
p2210
I6886283
sa(dp2211
Vbody
p2212
V<p>I would like to create an h264 or divx movie from frames that I generate in a python script in matplotlib. There are about 100k frames in this movie.</p>\u000a\u000a<p>In examples on the web [eg. 1], I have only seen the method of saving each frame as a png and then running mencoder or ffmpeg on these files. In my case, saving each frame is impractical. Is there a way to take a plot generated from matplotlib and pipe it directly to ffmpeg, generating no intermediate files? </p>\u000a\u000a<p>Programming with ffmpeg's C-api is too difficult for me [eg. 2]. Also, I need an encoding that has good compression such as x264 as the movie file will otherwise be too large for a subsequent step. So it would be great to stick with mencoder/ffmpeg/x264.</p>\u000a\u000a<p>Is there something that can be done with pipes [3]?</p>\u000a\u000a<p>[1] <a href="http://matplotlib.sourceforge.net/examples/animation/movie_demo.html" rel="noreferrer">http://matplotlib.sourceforge.net/examples/animation/movie_demo.html</a></p>\u000a\u000a<p>[2] <a href="http://stackoverflow.com/questions/2940671">How does one encode a series of images into H264 using the x264 C API?</a></p>\u000a\u000a<p>[3] <a href="http://www.ffmpeg.org/ffmpeg-doc.html#SEC41" rel="noreferrer">http://www.ffmpeg.org/ffmpeg-doc.html#SEC41</a></p>\u000a
p2213
sVis_answered
p2214
I01
sVview_count
p2215
I32908
sVtags
p2216
(lp2217
Vpython
p2218
aVnumpy
p2219
aVffmpeg
p2220
aVmatplotlib
p2221
aVx264
p2222
asVlast_activity_date
p2223
I1428527866
sVanswer_count
p2224
I5
sVcreation_date
p2225
I1288830621
sVscore
p2226
I54
sVlink
p2227
Vhttp://stackoverflow.com/questions/4092927/generating-movie-from-python-without-saving-individual-frames-to-files
p2228
sVaccepted_answer_id
p2229
I13983801
sVowner
p2230
(dp2231
Vuser_id
p2232
I320017
sVprofile_image
p2233
Vhttps://www.gravatar.com/avatar/0e460939afb01d86613f84949a5e0a88?s=128&d=identicon&r=PG
p2234
sVuser_type
p2235
Vregistered
p2236
sVreputation
p2237
I770
sVlink
p2238
Vhttp://stackoverflow.com/users/320017/paul
p2239
sVaccept_rate
p2240
I56
sVdisplay_name
p2241
VPaul
p2242
ssVtitle
p2243
VGenerating movie from python without saving individual frames to files
p2244
sVlast_edit_date
p2245
I1288857174
sVquestion_id
p2246
I4092927
sa(dp2247
Vbody
p2248
V<p>I'm a fairly strong Python coder, but too much of my style is a little haphazard, and I'm sure there are more Pythonic solutions to many problems than the ones I come up with. Which PEPs are essential for any well versed Pythonista to read?</p>\u000a
p2249
sVis_answered
p2250
I01
sVview_count
p2251
I2465
sVtags
p2252
(lp2253
Vpython
p2254
aVpep
p2255
asVlast_activity_date
p2256
I1391688292
sVanswer_count
p2257
I7
sVcreation_date
p2258
I1252132985
sVscore
p2259
I54
sVlink
p2260
Vhttp://stackoverflow.com/questions/1382648/which-peps-are-must-reads
p2261
sVaccepted_answer_id
p2262
I1382661
sVowner
p2263
(dp2264
Vuser_id
p2265
I145387
sVprofile_image
p2266
Vhttps://www.gravatar.com/avatar/b3ed9bd44a7d22be2dd659be02e44754?s=128&d=identicon&r=PG
p2267
sVuser_type
p2268
Vregistered
p2269
sVreputation
p2270
I8577
sVlink
p2271
Vhttp://stackoverflow.com/users/145387/michael-fairley
p2272
sVaccept_rate
p2273
I83
sVdisplay_name
p2274
VMichael Fairley
p2275
ssVtitle
p2276
VWhich PEP&#39;s are must reads?
p2277
sVquestion_id
p2278
I1382648
sa(dp2279
Vbody
p2280
V<p>How do I handle the window close event (user clicking the 'X' button) in a Python Tkinter program?</p>\u000a
p2281
sVis_answered
p2282
I01
sVview_count
p2283
I51389
sVtags
p2284
(lp2285
Vpython
p2286
aVevents
p2287
aVtkinter
p2288
aVwindow
p2289
asVlast_activity_date
p2290
I1430714548
sVanswer_count
p2291
I3
sVcreation_date
p2292
I1222008380
sVscore
p2293
I54
sVlink
p2294
Vhttp://stackoverflow.com/questions/111155/how-do-i-handle-the-window-close-event-in-tkinter
p2295
sVowner
p2296
(dp2297
Vuser_id
p2298
I10577
sVprofile_image
p2299
Vhttps://www.gravatar.com/avatar/a0ba54f9e5097759a443cd0ba3c2816a?s=128&d=identicon&r=PG
p2300
sVuser_type
p2301
Vregistered
p2302
sVreputation
p2303
I1897
sVlink
p2304
Vhttp://stackoverflow.com/users/10577/matt-gregory
p2305
sVaccept_rate
p2306
I67
sVdisplay_name
p2307
VMatt Gregory
p2308
ssVtitle
p2309
VHow do I handle the window close event in Tkinter?
p2310
sVlast_edit_date
p2311
I1427078649
sVquestion_id
p2312
I111155
sa(dp2313
Vbody
p2314
V<p>Even after years of programming, I'm ashamed to say that I've never really fully grasped regular expressions. In general, when a problem calls for a regex, I can usually (after a bunch of referring to syntax) come up with an appropriate one, but it's a technique that I find myself using increasingly often. </p>\u000a\u000a<p>So, to teach myself and understand regular expressions <em>properly</em>, I've decided to do what I always do when trying to learn something; i.e., try to write something ambitious that I'll probably abandon as soon as I feel I've learnt enough.</p>\u000a\u000a<p>To this end, I want to write a regular expression parser in Python. In this case, "learn enough" means that I want to implement a parser that can understand Perl's extended regex syntax completely. However, it doesn't have to be the most efficient parser or even necessarily usable in the real-world. It merely has to correctly match or fail to match a pattern in a string.</p>\u000a\u000a<p>The question is, where do I start? I know almost nothing about how regexes are parsed and interpreted apart from the fact that it involves a finite state automaton in some way. Any suggestions for how to approach this rather daunting problem would be much appreciated.</p>\u000a\u000a<p><strong>EDIT:</strong> I should clarify that while I'm going to <em>implement</em> the regex parser in Python, I'm not overly fussed about what programming language the examples or articles are written in. As long as it's not in Brainfuck, I will probably understand enough of it to make it worth my while.</p>\u000a
p2315
sVis_answered
p2316
I01
sVview_count
p2317
I13978
sVtags
p2318
(lp2319
Vpython
p2320
aVregex
p2321
aVparsing
p2322
asVlast_activity_date
p2323
I1474733609
sVanswer_count
p2324
I5
sVcreation_date
p2325
I1283548024
sVscore
p2326
I54
sVlink
p2327
Vhttp://stackoverflow.com/questions/3639574/writing-a-parser-for-regular-expressions
p2328
sVaccepted_answer_id
p2329
I3639610
sVowner
p2330
(dp2331
Vuser_id
p2332
I148765
sVprofile_image
p2333
Vhttps://www.gravatar.com/avatar/07d542a58ef9867b4ac2309ecdac3d2e?s=128&d=identicon&r=PG
p2334
sVuser_type
p2335
Vregistered
p2336
sVreputation
p2337
I30438
sVlink
p2338
Vhttp://stackoverflow.com/users/148765/chinmay-kanchi
p2339
sVaccept_rate
p2340
I88
sVdisplay_name
p2341
VChinmay Kanchi
p2342
ssVtitle
p2343
VWriting a parser for regular expressions
p2344
sVlast_edit_date
p2345
I1283548965
sVquestion_id
p2346
I3639574
sa(dp2347
Vbody
p2348
V<p>I'm optimizing some code whose main bottleneck is running through and accessing a very large list of struct-like objects.  Currently I'm using namedtuples, for readability.  But some quick benchmarking using 'timeit' shows that this is really the wrong way to go where performance is a factor:</p>\u000a\u000a<p>Named tuple with a, b, c:</p>\u000a\u000a<pre><code>&gt;&gt;&gt; timeit("z = a.c", "from __main__ import a")\u000a0.38655471766332994\u000a</code></pre>\u000a\u000a<p>Class using <code>__slots__</code>, with a, b, c:</p>\u000a\u000a<pre><code>&gt;&gt;&gt; timeit("z = b.c", "from __main__ import b")\u000a0.14527461047146062\u000a</code></pre>\u000a\u000a<p>Dictionary with keys a, b, c:</p>\u000a\u000a<pre><code>&gt;&gt;&gt; timeit("z = c['c']", "from __main__ import c")\u000a0.11588272541098377\u000a</code></pre>\u000a\u000a<p>Tuple with three values, using a constant key:</p>\u000a\u000a<pre><code>&gt;&gt;&gt; timeit("z = d[2]", "from __main__ import d")\u000a0.11106188992948773\u000a</code></pre>\u000a\u000a<p>List with three values, using a constant key:</p>\u000a\u000a<pre><code>&gt;&gt;&gt; timeit("z = e[2]", "from __main__ import e")\u000a0.086038238242508669\u000a</code></pre>\u000a\u000a<p>Tuple with three values, using a local key:</p>\u000a\u000a<pre><code>&gt;&gt;&gt; timeit("z = d[key]", "from __main__ import d, key")\u000a0.11187358437882722\u000a</code></pre>\u000a\u000a<p>List with three values, using a local key:</p>\u000a\u000a<pre><code>&gt;&gt;&gt; timeit("z = e[key]", "from __main__ import e, key")\u000a0.088604143037173344\u000a</code></pre>\u000a\u000a<p>First of all, is there anything about these little <code>timeit</code> tests that would render them invalid?  I ran each several times, to make sure no random system event had thrown them off, and the results were almost identical.</p>\u000a\u000a<p>It would appear that dictionaries offer the best balance between performance and readability, with classes coming in second.  This is unfortunate, since, for my purposes, I also need the object to be sequence-like; hence my choice of namedtuple.</p>\u000a\u000a<p>Lists are substantially faster, but constant keys are unmaintainable; I'd have to create a bunch of index-constants, i.e. KEY_1 = 1, KEY_2 = 2, etc. which is also not ideal.</p>\u000a\u000a<p>Am I stuck with these choices, or is there an alternative that I've missed?</p>\u000a
p2349
sVis_answered
p2350
I01
sVview_count
p2351
I12058
sVtags
p2352
(lp2353
Vpython
p2354
aVperformance
p2355
aVdata-structures
p2356
asVlast_activity_date
p2357
I1414603277
sVanswer_count
p2358
I5
sVcreation_date
p2359
I1271341769
sVscore
p2360
I54
sVlink
p2361
Vhttp://stackoverflow.com/questions/2646157/what-is-the-fastest-to-access-struct-like-object-in-python
p2362
sVaccepted_answer_id
p2363
I2648186
sVowner
p2364
(dp2365
Vuser_id
p2366
I51025
sVprofile_image
p2367
Vhttps://www.gravatar.com/avatar/263fec125853f697e0ea89787a4731a6?s=128&d=identicon&r=PG
p2368
sVuser_type
p2369
Vregistered
p2370
sVreputation
p2371
I23952
sVlink
p2372
Vhttp://stackoverflow.com/users/51025/dns
p2373
sVaccept_rate
p2374
I94
sVdisplay_name
p2375
VDNS
p2376
ssVtitle
p2377
VWhat is the fastest (to access) struct-like object in Python?
p2378
sVquestion_id
p2379
I2646157
sa(dp2380
Vbody
p2381
V<p>I am currently looking into implementing a client which will use an existing extensive SOAP management API.  </p>\u000a\u000a<p>I looked into different SOAP implementations like <a href="http://code.google.com/p/pysimplesoap/" rel="noreferrer">pysimplesoap</a> and <a href="https://fedorahosted.org/suds/" rel="noreferrer">SUDS</a>. While the first had problems parsing the WSDL because of too much recursions, suds worked fine (but slow) and I really like module.</p>\u000a\u000a<p>However, there seem to be several issues with SUDS like the high memory consumption, the WSDL parsing speed and missing support for some WSDL attributes (eg. choice attribute).<br>\u000aWhile there are a lot of people actively committing bug reports and patches, there was <a href="http://pypi.python.org/pypi/suds/0.4" rel="noreferrer">no release</a> of SUDS since 0.4 on 2010-09-15. Also, the wiki and roadmap look a bit neglected.  </p>\u000a\u000a<p>For me it looks like SUDS is no longer maintained.</p>\u000a\u000a<p><strong>So here my questions:</strong></p>\u000a\u000a<ol>\u000a<li>Does it make sense to base a larger project on suds as soap client?</li>\u000a<li>Is there a suds fork that already implements some of the patches available in the ticketing system?</li>\u000a<li>What alternatives are available, that have a lower memory footprint and are easy to use and can handle complex large WSDL files</li>\u000a</ol>\u000a\u000a<p><strong>[Update November 2013]</strong></p>\u000a\u000a<p>More than two years have passed and it turns out the original suds project is really dead. There have been no further releases since 2010. Due to this fact a lot of people started forking suds and and distributions like Debian are deploying patched versions of the original suds package to fix some of the issues.</p>\u000a\u000a<p>I can recommend Jurko's actively maintained fork which I used successfully. It supports python 3 and addresses a lot of suds' known problems. Release notes and bug tracker are available on <a href="https://bitbucket.org/jurko/suds" rel="noreferrer">Bitbucket</a> the package is also available on <a href="https://pypi.python.org/pypi/suds-jurko" rel="noreferrer">PyPI</a> so it can be installed using pip.</p>\u000a
p2382
sVis_answered
p2383
I01
sVview_count
p2384
I39694
sVtags
p2385
(lp2386
Vpython
p2387
aVsoap
p2388
aVsuds
p2389
asVlast_activity_date
p2390
I1463136174
sVanswer_count
p2391
I4
sVcreation_date
p2392
I1318420167
sVscore
p2393
I54
sVlink
p2394
Vhttp://stackoverflow.com/questions/7739613/python-soap-client-use-suds-or-something-else
p2395
sVaccepted_answer_id
p2396
I7852994
sVowner
p2397
(dp2398
Vuser_id
p2399
I593507
sVprofile_image
p2400
Vhttps://www.gravatar.com/avatar/6a6588ffb43e9925ea7c69f30ae16ae8?s=128&d=identicon&r=PG
p2401
sVuser_type
p2402
Vregistered
p2403
sVreputation
p2404
I1066
sVlink
p2405
Vhttp://stackoverflow.com/users/593507/circus
p2406
sVaccept_rate
p2407
I100
sVdisplay_name
p2408
Vcircus
p2409
ssVtitle
p2410
VPython SOAP Client - use SUDS or something else?
p2411
sVlast_edit_date
p2412
I1407782012
sVquestion_id
p2413
I7739613
sa(dp2414
Vbody
p2415
V<p>I'm having trouble wrapping my head around this.  Right now I have some models that looks kind of like this:</p>\u000a\u000a<pre><code> def Review(models.Model)\u000a    ...fields...\u000a    overall_score = models.FloatField(blank=True)\u000a\u000adef Score(models.Model)\u000a    review = models.ForeignKey(Review)\u000a    question = models.TextField()\u000a    grade = models.IntegerField()\u000a</code></pre>\u000a\u000a<p>A Review is has several "scores", the overall_score is the average of the scores.  When a review or a score is saved, I need to recalculate the overall_score average.  Right now I'm using a overridden save method.  Would there be any benefits to using Django's signal dispatcher?</p>\u000a
p2416
sVis_answered
p2417
I01
sVview_count
p2418
I13180
sVtags
p2419
(lp2420
Vpython
p2421
aVdjango
p2422
aVdjango-models
p2423
aVdjango-signals
p2424
asVlast_activity_date
p2425
I1457550207
sVanswer_count
p2426
I5
sVcreation_date
p2427
I1223127432
sVscore
p2428
I54
sVlink
p2429
Vhttp://stackoverflow.com/questions/170337/django-signals-vs-overriding-save-method
p2430
sVaccepted_answer_id
p2431
I171703
sVowner
p2432
(dp2433
Vuser_id
p2434
I24630
sVprofile_image
p2435
Vhttps://www.gravatar.com/avatar/19079f77b4f36fd2a45a58fcbb7dd883?s=128&d=identicon&r=PG
p2436
sVuser_type
p2437
Vregistered
p2438
sVreputation
p2439
I7393
sVlink
p2440
Vhttp://stackoverflow.com/users/24630/imjoevasquez
p2441
sVdisplay_name
p2442
Vimjoevasquez
p2443
ssVtitle
p2444
VDjango signals vs. overriding save method
p2445
sVlast_edit_date
p2446
I1223128303
sVquestion_id
p2447
I170337
sa(dp2448
Vbody
p2449
V<p>This is a question which is asked frequently in different forms, and often obtains "lol you're not doing it properly" responses. Pretty sure that's because there's a common sense scenario people (including me) are trying to use as an implementation, and the solution is not obvious (if you've not done it before).</p>\u000a\u000a<p>Would accept an answer which "lets the fly out of the bottle".</p>\u000a\u000a<p>Given</p>\u000a\u000a<pre><code>project/\u000a    __init__.py\u000a    /code\u000a        __init__.py\u000a        sut.py\u000a    /tests\u000a        __init__.py\u000a        test_sut.py\u000a</code></pre>\u000a\u000a<p>Where tests_sut.py starts:</p>\u000a\u000a<pre><code>import code.sut\u000a</code></pre>\u000a\u000a<p>Running nosetests in the root dir leads to:</p>\u000a\u000a<pre><code>ImportError: No module named code.sut\u000a</code></pre>\u000a\u000a<p>Avenues traveled:</p>\u000a\u000a<p>a) do a relative using </p>\u000a\u000a<pre><code>from ..code import sut\u000a</code></pre>\u000a\u000a<p>b) add root of project to PYTHONPATH</p>\u000a\u000a<p>c) use the </p>\u000a\u000a<pre><code>sys.path.append\u000a</code></pre>\u000a\u000a<p>to add the .. path before the imports at the start of each test module.</p>\u000a\u000a<p>d) just remember to do a </p>\u000a\u000a<pre><code>setup.py \u000a</code></pre>\u000a\u000a<p>on the project to install the modules into the site-packages before running tests.</p>\u000a\u000a<hr/>\u000a\u000a<p>So the requirement is to have tests located beneath the test package root which have access to the project. Each of the above don't feel "natural" to me, have proved problematic or seem like too much hard work!</p>\u000a\u000a<p>In java this works, but basically by dint of your build tool / IDE placing all your classes on the classpath. Perhaps the issue is I'm expecting "magic" from Python? Have noted in the Flask webframework tests, option d) seems to be preferred.</p>\u000a\u000a<p>In any case, statements below recommending a preferred solution would remove the feeling of "unnaturalness" in my own.</p>\u000a
p2450
sVis_answered
p2451
I01
sVview_count
p2452
I12321
sVtags
p2453
(lp2454
Vpython
p2455
aVtesting
p2456
aVnose
p2457
aVpython-import
p2458
asVlast_activity_date
p2459
I1379484041
sVanswer_count
p2460
I3
sVcreation_date
p2461
I1310500659
sVscore
p2462
I54
sVlink
p2463
Vhttp://stackoverflow.com/questions/6670275/python-imports-for-tests-using-nose-what-is-best-practice-for-imports-of-modul
p2464
sVaccepted_answer_id
p2465
I6670812
sVowner
p2466
(dp2467
Vuser_id
p2468
I98470
sVprofile_image
p2469
Vhttps://www.gravatar.com/avatar/ea489c7071fb3834bde5c733a146cc9e?s=128&d=identicon&r=PG
p2470
sVuser_type
p2471
Vregistered
p2472
sVreputation
p2473
I1746
sVlink
p2474
Vhttp://stackoverflow.com/users/98470/leonigmig
p2475
sVaccept_rate
p2476
I83
sVdisplay_name
p2477
Vleonigmig
p2478
ssVtitle
p2479
VPython imports for tests using nose - what is best practice for imports of modules above current package
p2480
sVlast_edit_date
p2481
I1361805964
sVquestion_id
p2482
I6670275
sa(dp2483
Vbody
p2484
V<p>I'm getting started with python, eclipse and pydev. Which Eclipse package should I choose? Nothing on the eclipse homepage tells me what to choose and python documentation assumes I have eclipse installed. Does which package I choose matter?</p>\u000a
p2485
sVis_answered
p2486
I01
sVview_count
p2487
I52377
sVtags
p2488
(lp2489
Vpython
p2490
aVeclipse
p2491
aVpackage
p2492
aVpydev
p2493
asVlast_activity_date
p2494
I1480233847
sVanswer_count
p2495
I13
sVcreation_date
p2496
I1225211600
sVscore
p2497
I54
sVlink
p2498
Vhttp://stackoverflow.com/questions/243962/which-eclipse-package-to-download-for-pydev
p2499
sVaccepted_answer_id
p2500
I243981
sVowner
p2501
(dp2502
Vuser_id
p2503
I23423
sVprofile_image
p2504
Vhttps://www.gravatar.com/avatar/335efe5a81bc20ecdfa314d7307c5496?s=128&d=identicon&r=PG
p2505
sVuser_type
p2506
Vregistered
p2507
sVreputation
p2508
I1369
sVlink
p2509
Vhttp://stackoverflow.com/users/23423/markus-johansson
p2510
sVaccept_rate
p2511
I51
sVdisplay_name
p2512
VMarkus Johansson
p2513
ssVtitle
p2514
VWhich Eclipse package to download for pydev?
p2515
sVquestion_id
p2516
I243962
sa(dp2517
Vbody
p2518
V<p>I'm not sure I'm organizing my package structure correctly or am using the right options in setup.py because I'm getting errors when I try to run unit tests.</p>\u000a\u000a<p>I have a structure like this:</p>\u000a\u000a<pre><code>/project\u000a   /bin\u000a   /src\u000a       /pkgname          \u000a           __init__.py\u000a           module1.py\u000a           module2.py\u000a   /tests\u000a       __init__.py\u000a       test1.py\u000a       test2.py\u000a</code></pre>\u000a\u000a<p>My setup.py looks like this:                                                                                                        </p>\u000a\u000a<pre><code>#!/usr/bin/env python                                                                                                                                        \u000afrom setuptools import setup, find_packages\u000a\u000asetup(version='0.1',\u000a      description='Trend following library',\u000a      author='Nate Reed',\u000a      author_email='nate@natereed.com',\u000a      packages=find_packages(),\u000a      install_requires=['numpy'],\u000a      test_suite="tests",                          \u000a)\u000a</code></pre>\u000a\u000a<p>When I run 'python setup.py test' I get:</p>\u000a\u000a<pre><code>nate@nate-desktop:~/PycharmProjects/trendfollowing$ sudo python setup.py test\u000arunning test\u000arunning egg_info\u000awriting requirements to UNKNOWN.egg-info/requires.txt\u000awriting UNKNOWN.egg-info/PKG-INFO\u000awriting top-level names to UNKNOWN.egg-info/top_level.txt\u000awriting dependency_links to UNKNOWN.egg-info/dependency_links.txt\u000areading manifest file 'UNKNOWN.egg-info/SOURCES.txt'\u000awriting manifest file 'UNKNOWN.egg-info/SOURCES.txt'\u000arunning build_ext\u000aTraceback (most recent call last):\u000a  File "setup.py", line 11, in &lt;module&gt;\u000a    test_suite="tests",\u000a  File "/usr/lib/python2.6/distutils/core.py", line 152, in setup\u000a    dist.run_commands()\u000a  File "/usr/lib/python2.6/distutils/dist.py", line 975, in run_commands\u000a    self.run_command(cmd)\u000a  File "/usr/lib/python2.6/distutils/dist.py", line 995, in run_command\u000a    cmd_obj.run()\u000a  File "/usr/lib/python2.6/dist-packages/setuptools/command/test.py", line 137, in run\u000a    self.with_project_on_sys_path(self.run_tests)\u000a  File "/usr/lib/python2.6/dist-packages/setuptools/command/test.py", line 117, in with_project_on_sys_path\u000a    func()\u000a  File "/usr/lib/python2.6/dist-packages/setuptools/command/test.py", line 146, in run_tests\u000a    testLoader = loader_class()\u000a  File "/usr/lib/python2.6/unittest.py", line 816, in __init__\u000a    self.parseArgs(argv)\u000a  File "/usr/lib/python2.6/unittest.py", line 843, in parseArgs\u000a    self.createTests()\u000a  File "/usr/lib/python2.6/unittest.py", line 849, in createTests\u000a    self.module)\u000a  File "/usr/lib/python2.6/unittest.py", line 613, in loadTestsFromNames\u000a    suites = [self.loadTestsFromName(name, module) for name in names]\u000a  File "/usr/lib/python2.6/unittest.py", line 587, in loadTestsFromName\u000a    return self.loadTestsFromModule(obj)\u000a  File "/usr/lib/python2.6/dist-packages/setuptools/command/test.py", line 34, in loadTestsFromModule\u000a    tests.append(self.loadTestsFromName(submodule))\u000a  File "/usr/lib/python2.6/unittest.py", line 584, in loadTestsFromName\u000a    parent, obj = obj, getattr(obj, part)\u000aAttributeError: 'module' object has no attribute 'test1'\u000a</code></pre>\u000a\u000a<p>Do the test names need to match module names?  Are there other conventions I need to follow in my package structure?</p>\u000a
p2519
sVis_answered
p2520
I01
sVview_count
p2521
I23974
sVtags
p2522
(lp2523
Vpython
p2524
aVtesting
p2525
aVsetuptools
p2526
asVlast_activity_date
p2527
I1454147005
sVanswer_count
p2528
I1
sVcreation_date
p2529
I1306612306
sVscore
p2530
I54
sVlink
p2531
Vhttp://stackoverflow.com/questions/6164004/python-package-structure-setup-py-for-running-unit-tests
p2532
sVaccepted_answer_id
p2533
I6165054
sVowner
p2534
(dp2535
Vuser_id
p2536
I479490
sVprofile_image
p2537
Vhttps://www.gravatar.com/avatar/59bb043810ee72608c62ee69fc2818b8?s=128&d=identicon&r=PG
p2538
sVuser_type
p2539
Vregistered
p2540
sVreputation
p2541
I2052
sVlink
p2542
Vhttp://stackoverflow.com/users/479490/nate-reed
p2543
sVaccept_rate
p2544
I44
sVdisplay_name
p2545
VNate Reed
p2546
ssVtitle
p2547
VPython package structure, setup.py for running unit tests
p2548
sVlast_edit_date
p2549
I1306612613
sVquestion_id
p2550
I6164004
sa(dp2551
Vbody
p2552
V<p>I want to perform an element wise multiplication, to multiply two lists together by value in Python, like we can do it in Matlab.</p>\u000a\u000a<p>This is how I would do it in Matlab.</p>\u000a\u000a<pre><code>a = [1,2,3,4]\u000ab = [2,3,4,5]\u000aa .* b = [2, 6, 12, 20]\u000a</code></pre>\u000a\u000a<p>A list comprehension would give 16 list entries, for every combination <code>x * y</code> of <code>x</code> from <code>a</code> and <code>y</code> from <code>b</code>. Unsure of how to map this.</p>\u000a\u000a<p>If anyone is interested why, I have a dataset, and want to multiply it by <code>Numpy.linspace(1.0, 0.5, num=len(dataset)) =)</code>.</p>\u000a
p2553
sVis_answered
p2554
I01
sVview_count
p2555
I104522
sVtags
p2556
(lp2557
Vpython
p2558
aVlist
p2559
aVmultiplying
p2560
aVelementwise-operations
p2561
asVlast_activity_date
p2562
I1479679013
sVanswer_count
p2563
I11
sVcreation_date
p2564
I1335123955
sVscore
p2565
I53
sVlink
p2566
Vhttp://stackoverflow.com/questions/10271484/how-to-perform-element-wise-multiplication-of-two-lists-in-python
p2567
sVaccepted_answer_id
p2568
I10271504
sVowner
p2569
(dp2570
Vuser_id
p2571
I849697
sVprofile_image
p2572
Vhttps://www.gravatar.com/avatar/0c91f58ffa7bbf4151cae13b5c8b9ccd?s=128&d=identicon&r=PG
p2573
sVuser_type
p2574
Vregistered
p2575
sVreputation
p2576
I5314
sVlink
p2577
Vhttp://stackoverflow.com/users/849697/xxjjnn
p2578
sVaccept_rate
p2579
I71
sVdisplay_name
p2580
Vxxjjnn
p2581
ssVtitle
p2582
VHow to perform element-wise multiplication of two lists in Python?
p2583
sVlast_edit_date
p2584
I1472730995
sVquestion_id
p2585
I10271484
sa(dp2586
Vbody
p2587
V<p>Is there a scipy function or numpy function or module for python that calculates the running mean of a 1D array given a specific window?</p>\u000a\u000a<p>/M</p>\u000a
p2588
sVis_answered
p2589
I01
sVprotected_date
p2590
I1488915564
sVview_count
p2591
I84264
sVtags
p2592
(lp2593
Vpython
p2594
aVpython-2.7
p2595
aVnumpy
p2596
aVmatplotlib
p2597
aVscipy
p2598
asVlast_activity_date
p2599
I1491289568
sVaccepted_answer_id
p2600
I40623822
sVcreation_date
p2601
I1354726625
sVscore
p2602
I53
sVlink
p2603
Vhttp://stackoverflow.com/questions/13728392/moving-average-or-running-mean
p2604
sVanswer_count
p2605
I14
sVowner
p2606
(dp2607
Vuser_id
p2608
I1394513
sVprofile_image
p2609
Vhttps://www.gravatar.com/avatar/083bd2bd06262fa53e4158c4b5d86c99?s=128&d=identicon&r=PG
p2610
sVuser_type
p2611
Vregistered
p2612
sVreputation
p2613
I866
sVlink
p2614
Vhttp://stackoverflow.com/users/1394513/shejo284
p2615
sVaccept_rate
p2616
I89
sVdisplay_name
p2617
VShejo284
p2618
ssVtitle
p2619
VMoving average or running mean
p2620
sVlast_edit_date
p2621
I1394280141
sVquestion_id
p2622
I13728392
sa(dp2623
Vbody
p2624
V<p>When I try to run app.py (Python 3.3, PyCrypto 2.6) my virtualenv keeps returning the error listed above. My import statement is just <code>from Crypto.Cipher import AES</code>. I looked for duplicates and you might say that there are some, but I tried the solutions (although most are not even solutions) and nothing worked.</p>\u000a\u000a<p>You can see what the files are like for PyCrypto below:</p>\u000a\u000a<p><img src="https://i.imgur.com/ElrSw6L.png?1" alt=""></p>\u000a
p2625
sVis_answered
p2626
I01
sVview_count
p2627
I125490
sVtags
p2628
(lp2629
Vpython
p2630
aVvirtualenv
p2631
aVpip
p2632
aVeasy-install
p2633
aVpycrypto
p2634
asVlast_activity_date
p2635
I1471648711
sVanswer_count
p2636
I10
sVcreation_date
p2637
I1382906350
sVscore
p2638
I53
sVlink
p2639
Vhttp://stackoverflow.com/questions/19623267/importerror-no-module-named-crypto-cipher
p2640
sVaccepted_answer_id
p2641
I20014293
sVowner
p2642
(dp2643
Vuser_id
p2644
I1813837
sVprofile_image
p2645
Vhttps://www.gravatar.com/avatar/fb11d2c62763afbb3fc7178d859ba002?s=128&d=identicon&r=PG
p2646
sVuser_type
p2647
Vregistered
p2648
sVreputation
p2649
I435
sVlink
p2650
Vhttp://stackoverflow.com/users/1813837/graham-smith
p2651
sVaccept_rate
p2652
I100
sVdisplay_name
p2653
VGraham Smith
p2654
ssVtitle
p2655
VImportError: No module named Crypto.Cipher
p2656
sVquestion_id
p2657
I19623267
sa(dp2658
Vbody
p2659
V<p>I know to remove an entry, 'key' from my dictionary <code>d</code>, safely, you do:</p>\u000a\u000a<pre><code>if d.has_key('key'):\u000a    del d['key']\u000a</code></pre>\u000a\u000a<p>However, I need to remove multiple entries from dictionary safely.  I was thinking of defining the entries in a tuple as I will need to do this more than once.</p>\u000a\u000a<pre><code>entitiesToREmove = ('a', 'b', 'c')\u000afor x in entitiesToRemove:\u000a    if d.has_key(x):\u000a        del d[x]\u000a</code></pre>\u000a\u000a<p>However, I was wondering if there is a smarter way to do this?</p>\u000a
p2660
sVis_answered
p2661
I01
sVview_count
p2662
I34024
sVtags
p2663
(lp2664
Vpython
p2665
aVdictionary
p2666
asVlast_activity_date
p2667
I1490886910
sVanswer_count
p2668
I8
sVcreation_date
p2669
I1327446351
sVscore
p2670
I53
sVlink
p2671
Vhttp://stackoverflow.com/questions/8995611/removing-multiple-keys-from-a-dictionary-safely
p2672
sVaccepted_answer_id
p2673
I8995760
sVowner
p2674
(dp2675
Vuser_id
p2676
I835083
sVprofile_image
p2677
Vhttps://www.gravatar.com/avatar/0563b1d945e5697d5b42a5fa683fe282?s=128&d=identicon&r=PG
p2678
sVuser_type
p2679
Vregistered
p2680
sVreputation
p2681
I3899
sVlink
p2682
Vhttp://stackoverflow.com/users/835083/dublintech
p2683
sVaccept_rate
p2684
I61
sVdisplay_name
p2685
Vdublintech
p2686
ssVtitle
p2687
VRemoving multiple keys from a dictionary safely
p2688
sVlast_edit_date
p2689
I1432559551
sVquestion_id
p2690
I8995611
sa(dp2691
Vbody
p2692
V<p>I would like to share a template between AJAX and regualr HTTP calls, the only difference is that one template needs to be served with the base.html html, the other one without.</p>\u000a\u000a<p>Any idea?</p>\u000a
p2693
sVis_answered
p2694
I01
sVview_count
p2695
I6675
sVtags
p2696
(lp2697
Vpython
p2698
aVajax
p2699
aVdjango
p2700
aVdjango-templates
p2701
asVlast_activity_date
p2702
I1448770652
sVanswer_count
p2703
I4
sVcreation_date
p2704
I1300726717
sVscore
p2705
I53
sVlink
p2706
Vhttp://stackoverflow.com/questions/5380984/any-way-to-make-extends-conditional-django
p2707
sVaccepted_answer_id
p2708
I5381015
sVowner
p2709
(dp2710
Vuser_id
p2711
I208827
sVprofile_image
p2712
Vhttps://www.gravatar.com/avatar/0b455a88803f79d121493a95ff119937?s=128&d=identicon&r=PG
p2713
sVuser_type
p2714
Vregistered
p2715
sVreputation
p2716
I8261
sVlink
p2717
Vhttp://stackoverflow.com/users/208827/radianthex
p2718
sVaccept_rate
p2719
I70
sVdisplay_name
p2720
VRadiantHex
p2721
ssVtitle
p2722
VAny way to make {% extends &#39;...&#39; %} conditional? - Django
p2723
sVlast_edit_date
p2724
I1300740691
sVquestion_id
p2725
I5380984
sa(dp2726
Vbody
p2727
V<p>I can't figure out how to rotate the text on the X Axis.  Its a time stamp, so as the number of samples increase, they get closer and closer until they overlap.  I'd like to rotate the text 90 degrees so as the samples get closer together, they aren't overlapping.</p>\u000a\u000a<p>Below is what I have, it works fine with the exception that I can't figure out how to rotate the X axis text.</p>\u000a\u000a<pre><code>import sys\u000a\u000aimport matplotlib\u000amatplotlib.use('Agg')\u000aimport matplotlib.pyplot as plt\u000aimport datetime\u000a\u000afont = {'family' : 'normal',\u000a        'weight' : 'bold',\u000a        'size'   : 8}\u000a\u000amatplotlib.rc('font', **font)\u000a\u000avalues = open('stats.csv', 'r').readlines()\u000a\u000atime = [datetime.datetime.fromtimestamp(float(i.split(',')[0].strip())) for i in values[1:]]\u000adelay = [float(i.split(',')[1].strip()) for i in values[1:]]\u000a\u000aplt.plot(time, delay)\u000aplt.grid(b='on')\u000a\u000aplt.savefig('test.png')\u000a</code></pre>\u000a
p2728
sVis_answered
p2729
I01
sVview_count
p2730
I85170
sVtags
p2731
(lp2732
Vpython
p2733
aVmatplotlib
p2734
asVlast_activity_date
p2735
I1479921337
sVanswer_count
p2736
I6
sVcreation_date
p2737
I1339510834
sVscore
p2738
I53
sVlink
p2739
Vhttp://stackoverflow.com/questions/10998621/rotate-axis-text-in-python-matplotlib
p2740
sVowner
p2741
(dp2742
Vuser_id
p2743
I592851
sVprofile_image
p2744
Vhttps://www.gravatar.com/avatar/21dc54ace246ac7672dabd01ae82ed2f?s=128&d=identicon&r=PG
p2745
sVuser_type
p2746
Vregistered
p2747
sVreputation
p2748
I6156
sVlink
p2749
Vhttp://stackoverflow.com/users/592851/tmc
p2750
sVaccept_rate
p2751
I96
sVdisplay_name
p2752
VtMC
p2753
ssVtitle
p2754
VRotate axis text in python matplotlib
p2755
sVquestion_id
p2756
I10998621
sa(dp2757
Vbody
p2758
V<p>Hi I was trying the python packaging using setuptools and to test I installed the module in develop mode.\u000ai.e</p>\u000a\u000a<pre><code>python setup.py develop\u000a</code></pre>\u000a\u000a<p>This has added my modules directory to sys.path. Now I want to remove the module is there any way to do this?</p>\u000a\u000a<p>Thanks in advance</p>\u000a
p2759
sVis_answered
p2760
I01
sVview_count
p2761
I11133
sVtags
p2762
(lp2763
Vpython
p2764
aVsetuptools
p2765
asVlast_activity_date
p2766
I1375062164
sVanswer_count
p2767
I3
sVcreation_date
p2768
I1283235234
sVscore
p2769
I53
sVlink
p2770
Vhttp://stackoverflow.com/questions/3606457/removing-python-module-installed-in-develop-mode
p2771
sVaccepted_answer_id
p2772
I3613880
sVowner
p2773
(dp2774
Vuser_id
p2775
I154206
sVprofile_image
p2776
Vhttps://www.gravatar.com/avatar/282e296a4edd6be96aadd7b39a970d71?s=128&d=identicon&r=PG
p2777
sVuser_type
p2778
Vregistered
p2779
sVreputation
p2780
I505
sVlink
p2781
Vhttp://stackoverflow.com/users/154206/copyninja
p2782
sVaccept_rate
p2783
I67
sVdisplay_name
p2784
Vcopyninja
p2785
ssVtitle
p2786
VRemoving python module installed in develop mode
p2787
sVquestion_id
p2788
I3606457
sa(dp2789
Vbody
p2790
V<p>I have a loop going, but there is the possibility for exceptions to be raised inside the loop. This of course would stop my program all together. To prevent that I catch the exceptions and handle them. But then the rest of the iteration runs even though an exception occurred. Is there a keyword to use in my <code>except:</code> clause to just skip the rest of the current iteration?</p>\u000a
p2791
sVis_answered
p2792
I01
sVview_count
p2793
I88113
sVtags
p2794
(lp2795
Vpython
p2796
aViteration
p2797
aVskip
p2798
asVlast_activity_date
p2799
I1455651073
sVanswer_count
p2800
I5
sVcreation_date
p2801
I1234640884
sVscore
p2802
I53
sVlink
p2803
Vhttp://stackoverflow.com/questions/549674/skipping-iterations-in-python
p2804
sVaccepted_answer_id
p2805
I549682
sVowner
p2806
(dp2807
Vuser_id
p2808
I2128
sVprofile_image
p2809
Vhttps://www.gravatar.com/avatar/9e896c8c1ffcf716f2593ec0ed672140?s=128&d=identicon&r=PG&f=1
p2810
sVuser_type
p2811
Vregistered
p2812
sVreputation
p2813
I12287
sVlink
p2814
Vhttp://stackoverflow.com/users/2128/the-anti-9
p2815
sVaccept_rate
p2816
I88
sVdisplay_name
p2817
VThe.Anti.9
p2818
ssVtitle
p2819
VSkipping Iterations in Python
p2820
sVlast_edit_date
p2821
I1354537889
sVquestion_id
p2822
I549674
sa(dp2823
Vbody
p2824
V<p>According to the <a href="http://docs.djangoproject.com/en/dev/howto/error-reporting/" rel="noreferrer">documentation</a>, if <code>DEBUG</code> is set to <code>False</code> and something is provided under the <code>ADMINS</code> setting, Django will send an email whenever the code raises a 500 status code. I have the email settings filled out properly (as I can use send_mail fine) but whenever I intentionally put up erroneous code I get my 500.html template but no error email is sent. What could cause Django to not do this?</p>\u000a
p2825
sVis_answered
p2826
I01
sVview_count
p2827
I16330
sVtags
p2828
(lp2829
Vpython
p2830
aVdjango
p2831
asVlast_activity_date
p2832
I1479144768
sVanswer_count
p2833
I15
sVcreation_date
p2834
I1252724279
sVscore
p2835
I53
sVlink
p2836
Vhttp://stackoverflow.com/questions/1414130/django-not-sending-emails-to-admins
p2837
sVowner
p2838
(dp2839
Vdisplay_name
p2840
VJoseVega
p2841
sVuser_type
p2842
Vdoes_not_exist
p2843
ssVtitle
p2844
VDjango not sending emails to admins
p2845
sVquestion_id
p2846
I1414130
sa(dp2847
Vbody
p2848
V<p>How do I get the inverse of a matrix in python? I've implemented it myself, but it's pure python, and I suspect there are faster modules out there to do it.</p>\u000a
p2849
sVis_answered
p2850
I01
sVview_count
p2851
I91895
sVtags
p2852
(lp2853
Vpython
p2854
aValgorithm
p2855
aVmatrix
p2856
aVlinear-algebra
p2857
aVmatrix-inverse
p2858
asVlast_activity_date
p2859
I1434546156
sVanswer_count
p2860
I6
sVcreation_date
p2861
I1224221449
sVscore
p2862
I53
sVlink
p2863
Vhttp://stackoverflow.com/questions/211160/python-inverse-of-a-matrix
p2864
sVaccepted_answer_id
p2865
I211174
sVowner
p2866
(dp2867
Vuser_id
p2868
I15055
sVprofile_image
p2869
Vhttps://www.gravatar.com/avatar/7f71287b47b7189d11fe6d3fbc7ed2fe?s=128&d=identicon&r=PG
p2870
sVuser_type
p2871
Vregistered
p2872
sVreputation
p2873
I103525
sVlink
p2874
Vhttp://stackoverflow.com/users/15055/claudiu
p2875
sVaccept_rate
p2876
I80
sVdisplay_name
p2877
VClaudiu
p2878
ssVtitle
p2879
VPython Inverse of a Matrix
p2880
sVlast_edit_date
p2881
I1372863753
sVquestion_id
p2882
I211160
sa(dp2883
Vbody
p2884
V<p>I am using the following class to easily store data of my songs.</p>\u000a\u000a<pre><code>class Song:\u000a    """The class to store the details of each song"""\u000a    attsToStore=('Name', 'Artist', 'Album', 'Genre', 'Location')\u000a    def __init__(self):\u000a        for att in self.attsToStore:\u000a            exec 'self.%s=None'%(att.lower()) in locals()\u000a    def setDetail(self, key, val):\u000a        if key in self.attsToStore:\u000a            exec 'self.%s=val'%(key.lower()) in locals()\u000a</code></pre>\u000a\u000a<p>I feel that this is just much more extensible than writing out an if/else block. However, eval seems to be considered a bad practice and unsafe to use. If so, can anyone explain to me why and show me a better way of defining the above class?</p>\u000a
p2885
sVis_answered
p2886
I01
sVview_count
p2887
I17573
sVtags
p2888
(lp2889
Vpython
p2890
aVeval
p2891
asVlast_activity_date
p2892
I1480267200
sVanswer_count
p2893
I6
sVcreation_date
p2894
I1259760847
sVscore
p2895
I53
sVlink
p2896
Vhttp://stackoverflow.com/questions/1832940/is-using-eval-in-python-a-bad-practice
p2897
sVaccepted_answer_id
p2898
I1832957
sVowner
p2899
(dp2900
Vuser_id
p2901
I32001
sVprofile_image
p2902
Vhttps://www.gravatar.com/avatar/d624ad306da373c1c9c7ffe973ccd249?s=128&d=identicon&r=PG
p2903
sVuser_type
p2904
Vregistered
p2905
sVreputation
p2906
I2807
sVlink
p2907
Vhttp://stackoverflow.com/users/32001/nikwin
p2908
sVaccept_rate
p2909
I76
sVdisplay_name
p2910
VNikwin
p2911
ssVtitle
p2912
VIs using eval in Python a bad practice?
p2913
sVlast_edit_date
p2914
I1472846101
sVquestion_id
p2915
I1832940
sa(dp2916
Vbody
p2917
V<p>Why is this simple test case inserting 100,000 rows 25 times slower with SQLAlchemy than it is using the sqlite3 driver directly?  I have seen similar slowdowns in real-world applications.  Am I doing something wrong?</p>\u000a\u000a<pre><code>#!/usr/bin/env python\u000a# Why is SQLAlchemy with SQLite so slow?\u000a# Output from this program:\u000a# SqlAlchemy: Total time for 100000 records 10.74 secs\u000a# sqlite3:    Total time for 100000 records  0.40 secs\u000a\u000a\u000aimport time\u000aimport sqlite3\u000a\u000afrom sqlalchemy.ext.declarative import declarative_base\u000afrom sqlalchemy import Column, Integer, String,  create_engine \u000afrom sqlalchemy.orm import scoped_session, sessionmaker\u000a\u000aBase = declarative_base()\u000aDBSession = scoped_session(sessionmaker())\u000a\u000aclass Customer(Base):\u000a    __tablename__ = "customer"\u000a    id = Column(Integer, primary_key=True)\u000a    name = Column(String(255))\u000a\u000adef init_sqlalchemy(dbname = 'sqlite:///sqlalchemy.db'):\u000a    engine  = create_engine(dbname, echo=False)\u000a    DBSession.configure(bind=engine, autoflush=False, expire_on_commit=False)\u000a    Base.metadata.drop_all(engine)\u000a    Base.metadata.create_all(engine)\u000a\u000adef test_sqlalchemy(n=100000):\u000a    init_sqlalchemy()\u000a    t0 = time.time()\u000a    for i in range(n):\u000a        customer = Customer()\u000a        customer.name = 'NAME ' + str(i)\u000a        DBSession.add(customer)\u000a    DBSession.commit()\u000a    print "SqlAlchemy: Total time for " + str(n) + " records " + str(time.time() - t0) + " secs"\u000a\u000adef init_sqlite3(dbname):\u000a    conn = sqlite3.connect(dbname)\u000a    c = conn.cursor()\u000a    c.execute("DROP TABLE IF EXISTS customer")\u000a    c.execute("CREATE TABLE customer (id INTEGER NOT NULL, name VARCHAR(255), PRIMARY KEY(id))")\u000a    conn.commit()\u000a    return conn\u000a\u000adef test_sqlite3(n=100000, dbname = 'sqlite3.db'):\u000a    conn = init_sqlite3(dbname)\u000a    c = conn.cursor()\u000a    t0 = time.time()\u000a    for i in range(n):\u000a        row = ('NAME ' + str(i),)\u000a        c.execute("INSERT INTO customer (name) VALUES (?)", row)\u000a    conn.commit()\u000a    print "sqlite3: Total time for " + str(n) + " records " + str(time.time() - t0) + " sec"\u000a\u000aif __name__ == '__main__':\u000a    test_sqlalchemy(100000)\u000a    test_sqlite3(100000)\u000a</code></pre>\u000a\u000a<p>I have tried numerous variations (see <a href="http://pastebin.com/zCmzDraU">http://pastebin.com/zCmzDraU</a> )</p>\u000a
p2918
sVis_answered
p2919
I01
sVview_count
p2920
I20003
sVtags
p2921
(lp2922
Vpython
p2923
aVsqlite
p2924
aVorm
p2925
aVsqlite3
p2926
aVsqlalchemy
p2927
asVlast_activity_date
p2928
I1429813882
sVanswer_count
p2929
I3
sVcreation_date
p2930
I1343866446
sVscore
p2931
I53
sVlink
p2932
Vhttp://stackoverflow.com/questions/11769366/why-is-sqlalchemy-insert-with-sqlite-25-times-slower-than-using-sqlite3-directly
p2933
sVaccepted_answer_id
p2934
I11769768
sVowner
p2935
(dp2936
Vuser_id
p2937
I150132
sVprofile_image
p2938
Vhttps://www.gravatar.com/avatar/46972c7413a2c511ee5bb58e347ffa3b?s=128&d=identicon&r=PG
p2939
sVuser_type
p2940
Vregistered
p2941
sVreputation
p2942
I597
sVlink
p2943
Vhttp://stackoverflow.com/users/150132/braddock
p2944
sVaccept_rate
p2945
I75
sVdisplay_name
p2946
Vbraddock
p2947
ssVtitle
p2948
VWhy is SQLAlchemy insert with sqlite 25 times slower than using sqlite3 directly?
p2949
sVquestion_id
p2950
I11769366
sa(dp2951
Vbody
p2952
V<p>I have the following piece of base64 encoded data, and I want to use python base64 module to extract information from it. It seems that module does not work. Can anyone tell me how? </p>\u000a\u000a<pre><code> Q5YACgAAAABDlgAbAAAAAEOWAC0AAAAAQ5YAPwAAAABDlgdNAAAAAEOWB18AAAAAQ5YHcAAAAABDlgeCAAAAAEOWB5QAAAAAQ5YHpkNx8H9Dlge4REqBx0OWB8pEpZ10Q5YH3ES2lxFDlgfuRIuPbEOWB/9EA9SqQ5YIEUIFJtxDlggjAAAAAEOWCDVDDMm3Q5YIR0N5wOtDlghZQ4GkeEOWCGtDD0CbQ5YIfQAAAABDlgiOAAAAAEOWCKAAAAAAQ5YIsgAAAABDlob5AAAAAEOWhwsAAAAAQ5aHHQAAAABDlocvAAAAAEOWh0FBC+dQQ5aHU0NJ9WdDlodlQ9RK6kOWh3dEDRdFQ5aHiUQARjZDloebQ5xn3kOWh61C1TYMQ5aHvwAAAABDlofRAAAAAEOWh+MAAAAAQ5aH9QAAAABDnFl9AAAAAEOcWZAAAAAAQ5xZpAAAAABDnFm3AAAAAEOcWctDH72jQ5xZ3kNDentDnFnxQ0QCp0OcWgVDK52XQ5xaGEMDUuNDnFosAAAAAEOcWj8AAAAAQ5xaUwAAAABDnFpmAAAAAEOcWnkAAAAAQ5xajQAAAABDnFqgAAAAAEOcWrRBnlHwQ5xax0MvOY9DnFraQ6AiZkOcWu5DquEAQ5xbAUNtwQNDnFsVQqVdQEOcWygAAAAAQ5xbPAAAAABDnFtPAAAAAEOcW2IAAAAAQ6Cg+AAAAABDoKEMAAAAAEOgoSEAAAAAQ6ChNQAAAABDoKFKQwi7a0OgoV5DOmAdQ6Chc0NSxE9DoKGHQy7KVUOgoZxCvXN4Q6ChsAAAAABDoKHFAAAAAEOgodkAAAAAQ6Ch7gAAAABDo3scAAAAAEOjezEAAAAAQ6N7RgAAAABDo3tcAAAAAEOje3FCY5O8Q6N7hkOOIjhDo3ubQ+yNhEOje7FD5+CaQ6N7xkN9U2tDo3vbAAAAAEOje/AAAAAAQ6N8BgAAAABDo3wbAAAAAEOjfDAAAAAAQ6QrkgAAAABDpCuoAAAAAEOkK70AAAAAQ6Qr0wAAAABDpCvoQwzvKUOkK/5Db9LnQ6QsE0OMRq5DpCwoQ4WYnEOkLD5DUWd9Q6QsU0MC2p1DpCxpAAAAAEOkLH4AAAAAQ6QskwAAAABDpCypAAAAAEOkLeoAAAAAQ6Qt/wAAAABDpC4VAAAAAEOkLioAAAAAQ6QuQELk8fJDpC5VQzIBUUOkLmpDE3S3Q6QugAAAAABDpC6VAAAAAEOkLqsAAAAAQ6QuwAAAAABDpMIjAAAAAEOkwjkAAAAAQ6TCTgAAAABDpMJkAAAAAEOkwnlDAogtQ6TCj0Nm3ZFDpMKlQ5AQSkOkwrpDdJURQ6TC0ELt1GxDpMLlAAAAAEOkwvsAAAAAQ6TDEAAAAABDpMMmAAAAAEOlUuoAAAAAQ6VTAAAAAABDpVMWAAAAAEOlUysAAAAAQ6VTQUIVw9xDpVNXQztuc0OlU2xDXwOpQ6VTgkLnklxDpVOYAAAAAEOlU64AAAAAQ6VTwwAAAABDpVPZAAAAAEOlgyQAAAAAQ6WDOgAAAABDpYNPAAAAAEOlg2UAAAAAQ6WDewAAAABDpYORAAAAAEOlg6YAAAAAQ6WDvAAAAABDpYPSAAAAAEOlg+gAAAAAQ6WD/QAAAABDpYQTAAAAAEOlhCkAAAAAQ6WEPwAAAABDqiJcAAAAAEOqInMAAAAAQ6oiigAAAABDqiKhAAAAAEOqIrhDOjjhQ6oiz0NL8gFDqiLmQyJ2X0OqIv0AAAAAQ6ojFAAAAABDqiMrAAAAAEOqI0IAAAAAQ6p+EwAAAABDqn4qAAAAAEOqfkEAAAAAQ6p+WAAAAABDqn5vQwzLhUOqfoZDZJlNQ6p+nUOX5SpDqn60Q6at5kOqfstDhSHAQ6p+4kLVJZZDqn75AAAAAEOqfxEAAAAAQ6p/KAAAAABDqn8/AAAAAEOqgZcAAAAAQ6qBrgAAAABDqoHFAAAAAEOqgdwAAAAAQ6qB9EMMs0NDqoILRHyldEOqgiJFFM7eQ6qCOUVg6OJDqoJQRW5RNUOqgmdFL4LSQ6qCfkSe+whDqoKVQydSLUOqgqwAAAAAQ6qCwwAAAABDqoLaAAAAAEOqgvIAAAAAQ6qw0gAAAABDqrDpAAAAAEOqsQAAAAAAQ6qxFwAAAABDqrEuQxCiB0OqsUZDfmUnQ6qxXUOJeMRDqrF0Q1Un5UOqsYtC9lyOQ6qxogAAAABDqrG5AAAAAEOqsdAAAAAAQ6qx6AAAAABDqwGcAAAAAEOrAbMAAAAAQ6sBygAAAABDqwHhAAAAAEOrAflDEU5HQ6sCEEP64TpDqwInRHAAYkOrAj5ElZzIQ6sCVUSCkc9DqwJtRBsdnkOrAoRDRp3HQ6sCm0JJ0uRDqwKyAAAAAEOrAsoAAAAAQ6sC4QAAAABDqwL4AAAAAEOrgUkAAAAAQ6uBYAAAAABDq4F3AAAAAEOrgY8AAAAAQ6uBpkKjOb5Dq4G9Q5AYHEOrgdVD2l3+Q6uB7EPb9xxDq4IDQ5Zv6EOrghtDGbKhQ6uCMgAAAABDq4JKAAAAAEOrgmEAAAAAQ6uCeAAAAABDrHxTAAAAAEOsfGsAAAAAQ6x8gwAAAABDrHyaAAAAAEOsfLIAAAAAQ6x8ykOV3rxDrHzhRCIkR0OsfPlESnsOQ6x9EUQraodDrH0oQ8DC7EOsfUBC5QRmQ6x9VwAAAABDrH1vAAAAAEOsfYcAAAAAQ6x9ngAAAABDsYDPAAAAAEOxgOgAAAAAQ7GBAQAAAABDsYEaAAAAAEOxgTNDHtFFQ7GBTENOOtdDsYFlQzQ0M0OxgX5CsakkQ7GBlwAAAABDsYGwAAAAAEOxgckAAAAAQ7GB4wAAAABDsYfZAAAAAEOxh/IAAAAAQ7GIDAAAAABDsYglAAAAAEOxiD5CNN5kQ7GIV0Mx6h9DsYhwQyLw10OxiIkAAAAAQ7GIokQvuWJDsYi7RTLrZEOxiNRFti0vQ7GI7UX0+WtDsYkGReZyqEOxiR9Fk7sbQ7GJOETYM4ZDsYlRQZhM0EOxiWpDPbMFQ7GJg0EE8DBDsYmcAAAAAEOxibUAAAAAQ7GJzgAAAABDsYnnAAAAAEOyBSwAAAAAQ7IFRgAAAABDsgVfAAAAAEOyBXgAAAAAQ7IFkUMeX/lDsgWqQ1qnIUOyBcNDakzLQ7IF3UNOK1lDsgX2QxcLFUOyBg8AAAAAQ7IGKAAAAABDsgZBAAAAAEOyBloAAAAAQ7IIIAAAAABDsgg5AAAAAEOyCFIAAAAAQ7IIawAAAABDsgiEQGvLQEOyCJ5DjE5EQ7IIt0RT8ohDsgjQRLITDUOyCOlEx/0eQ7IJAkSboYRDsgkbRBrElkOyCTVC8Q1qQ7IJTkNZN6lDsglnQ9HrdEOyCYBD3r0EQ7IJmUOUB7JDsgmyQt1s2EOyCcwAAAAAQ7IJ5QAAAABDsgn+AAAAAEOyChcAAAAAQ7KH1wAAAABDsofwAAAAAEOyiAkAAAAAQ7KIIwAAAABDsog8AAAAAEOyiFVDmdXKQ7KIbkRFmedDsoiIRIyTq0OyiKFEhXFjQ7KIukQk++pDsojUQ2Ti6UOyiO1C59eGQ7KJBgAAAABDsokgQx+8zUOyiTlDW2b7Q7KJUkNhYXFDsolsQw9giUOyiYUAAAAAQ7KJngAAAABDsom4AAAAAEOyidEAAAAAQ7KjJgAAAABDsqNAAAAAAEOyo1kAAAAAQ7KjcwAAAABDsqOMQxiW60Oyo6VDb3iLQ7Kjv0OCiUpDsqPYQ0zvUUOyo/FC2VN+Q7KkCwAAAABDsqQkAAAAAEOypD1CxVtqQ7KkV0NC+C9DsqRwQ3VyJ0OypIlDV0SRQ7Kko0LAkp5DsqS8AAAAAEOypNUAAAAAQ7Kk7wAAAABDsqUIAAAAAEOzgtQAAAAAQ7OC7QAAAABDs4MHAAAAAEOzgyAAAAAAQ7ODOgAAAABDs4NURBZFGEOzg21FAqNDQ7ODh0VyQZRDs4OgRZfF10Ozg7pFheg0Q7OD1EUfaltDs4PtREyHoEOzhAcAAAAAQ7OEIAAAAABDs4Q6AAAAAEOzhFQAAAAAQ7OEbQAAAABDtALeAAAAAEO0AvcAAAAAQ7QDEQAAAABDtAMrAAAAAEO0A0UAAAAAQ7QDXkNQ5IVDtAN4RAIEokO0A5JEHByTQ7QDrEPrpJ5DtAPFQ1wEy0O0A99Cf5dkQ7QD+QAAAABDtAQSAAAAAEO0BCwAAAAAQ7QERgAAAABDtIKCAAAAAEO0gpwAAAAAQ7SCtgAAAABDtILQAAAAAEO0gupCwzHOQ7SDA0NWhYdDtIMdQ6kekkO0gzdD65s+Q7SDUUPZmNxDtINrQ0uJw0O0g4VCwHqAQ7SDnwAAAABDtIO5AAAAAEO0g9MAAAAAQ7SD7AAAAABDuYw1AAAAAEO5jFEAAAAAQ7mMbAAAAABDuYyHAAAAAEO5jKNCQp50Q7mMvkO6WI5DuYzZRC4aE0O5jPVESsfrQ7mNEEQhx9ZDuY0rQ6WBqEO5jUdCGiqoQ7mNYgAAAABDuY19AAAAAEO5jZkAAAAAQ7mNtAAAAABDugxRAAAAAEO6DGwAAAAAQ7oMiAAAAABDugyjAAAAAEO6DL9DFS1NQ7oM2kOCy6BDugz2Q3wf9UO6DRFDKs7FQ7oNLUMkWulDug1IQ1WgIUO6DWRDP0LbQ7oNf0KzSzpDug2bAAAAAEO6DbYAAAAAQ7oN0gAAAABDug3tAAAAAEO6iY0AAAAAQ7qJqQAAAABDuonEAAAAAEO6ieAAAAAAQ7qJ/EKUY+5DuooXQ0F3k0O6ijNDiJBMQ7qKT0OKy05DuopqQ0Uf0UO6ioZCjaAQQ7qKogAAAABDuoq9AAAAAEO6itkAAAAAQ7qK9QAAAABDwis+AAAAAEPCK1wAAAAAQ8IregAAAABDwiuYAAAAAEPCK7ZDIAxFQ8Ir1EM3uZlDwivyQw/DxUPCLBAAAAAAQ8IsLQAAAABDwixLAAAAAEPCLGkAAAAAQ8KrFQAAAABDwqszAAAAAEPCq1EAAAAAQ8KrbwAAAABDwquNQuvJ8kPCq6tDXTspQ8KryUOF7VJDwqvnQ2qgd0PCrAVDWFCVQ8KsJENlY31DwqxCQzBR90PCrGBCks/EQ8KsfgAAAABDwqycAAAAAEPCrLoAAAAAQ8Ks2AAAAABDxaCeAAAAAEPFoL0AAAAAQ8Wg3AAAAABDxaD7AAAAAEPFoRpC6Bm+Q8WhOUNIlwtDxaFYQ0bbiUPFoXdC60cUQ8WhlgAAAABDxaG1AAAAAEPFodQAAAAAQ8Wh8wAAAABDxcLQAAAAAEPFwu8AAAAAQ8XDDgAAAABDxcMuAAAAAEPFw01DCdiTQ8XDbENSEiFDxcOLQzMgqUPFw6pCvkXoQ8XDyQAAAABDxcPoAAAAAEPFxAcAAAAAQ8XEJgAAAABDyqCrAAAAAEPKoMwAAAAAQ8qg7AAAAABDyqENAAAAAEPKoS5DFgyhQ8qhTkNJ8YtDyqFvQyCk7UPKoZAAAAAAQ8qhsAAAAABDyqHRAAAAAEPKofEAAAAAQ86hbQAAAABDzqGPAAAAAEPOobEAAAAAQ86h0wAAAABDzqH1QtiFfkPOohdDN+wBQ86iOEMicXdDzqJaAAAAAEPOonwAAAAAQ86ingAAAABDzqLAAAAAAEPPg5sAAAAAQ8+DvQAAAABDz4PfAAAAAEPPhAEAAAAAQ8+EJAAAAABDz4RGQzv7CUPPhGhEXJabQ8+EikTXGK5Dz4SsRQtcE0PPhM9E/wVMQ8+E8USdi5JDz4UTQ9CGQEPPhTVCsERWQ8+FVwAAAABDz4V6AAAAAEPPhZwAAAAAQ8+FvgAAAABD0AOmAAAAAEPQA8gAAAAAQ9AD6wAAAABD0AQNAAAAAEPQBC9DKyRrQ9AEUkPKA05D0AR0RCwHHUPQBJdEUzZEQ9AEuUQ94dVD0ATbQ/ChWkPQBP5DNpvFQ9AFIEFnWsBD0AVCAAAAAEPQBWUAAAAAQ9AFhwAAAABD0AWqAAAAAEPQg4AAAAAAQ9CDowAAAABD0IPFAAAAAEPQg+gAAAAAQ9CEC0LS1TZD0IQtQ8lMiEPQhFBEAV2PQ9CEckOvPy5D0ISVQhAVCEPQhLcAAAAAQ9CE2gAAAABD0IT8AAAAAEPQhR8AAAAAQ9F+hQAAAABD0X6oAAAAAEPRfssAAAAAQ9F+7gAAAABD0X8RAAAAAEPRfzRDXvi1Q9F/V0Pav3JD0X96Q/VLikPRf5xDwjysQ9F/v0NUF1ND0X/iQkRspEPRgAUAAAAAQ9GAKAAAAABD0YBLAAAAAEPRgG4AAAAAQ9M8gQAAAABD0zykAAAAAEPTPMgAAAAAQ9M86wAAAABD0z0PQyIWp0PTPTJDNPW/Q9M9VkMNGedD0z15AAAAAEPTPZwAAAAAQ9M9wAAAAABD0z3jAAAAAEPUoh8AAAAAQ9SiQwAAAABD1KJmAAAAAEPUoooAAAAAQ9SirkKYjL5D1KLSQy6TTUPUovZDOYDvQ9SjGkLawPpD1KM+AAAAAEPUo2IAAAAAQ9SjhgAAAABD1KOqAAAAAEPWiiwAAAAAQ9aKUQAAAABD1op1AAAAAEPWipoAAAAAQ9aKvkJ42vRD1orjQ6UBeEPWiwhEvTTGQ9aLLEVQripD1otRRZKn/EPWi3VFjjxkQ9aLmkU7lFtD1ou+RI+CDUPWi+NCDiKAQ9aMBwAAAABD1owsAAAAAEPWjFEAAAAAQ9aMdQAAAABD1pV1AAAAAEPWlZoAAAAAQ9aVvgAAAABD1pXjAAAAAEPWlgdC4s80Q9aWLENR95VD1pZQQzhC/0PWlnVC0TaKQ9aWmgAAAABD1pa+AAAAAEPWluMAAAAAQ9aXBwAAAABD1wpKAAAAAEPXCm8AAAAAQ9cKlAAAAABD1wq5AAAAAEPXCt0AAAAAQ9cLAkOM9OhD1wsnREXjmUPXC0xEi3MpQ9cLcER5n2RD1wuVRAxzB0PXC7pDbm1bQ9cL3kND/tdD1wwDQsah9EPXDCgAAAAAQ9cMTQAAAABD1wxxAAAAAEPXDJYAAAAAQ9eKAAAAAABD14olAAAAAEPXikoAAAAAQ9eKbgAAAABD14qTQr6yAkPXirhEAvzPQ9eK3URaCbtD14sCRFjVXEPXiydD7mQkQ9eLTEGr5HhD14txQymzDUPXi5ZDXmm/Q9eLu0MMb99D14vfAAAAAEPXjAQAAAAAQ9eMKQAAAABD14xOAAAAAEPejjkAAAAAQ96OYAAAAABD3o6IAAAAAEPejq8AAAAAQ96O1kLCXcBD3o7+Q82Q4kPejyVEXvwyQ96PTESd1VxD3o90RJ20oEPej5tEXtT0Q96PwkPOWbxD3o/qQwI770PekBFDDeXNQ96QOENBpAdD3pBgQ0iIqUPekIdDNQp7Q96QrkMWx49D3pDWAAAAAEPekP0AAAAAQ96RJAAAAABD3pFMAAAAAEPfDjkAAAAAQ98OYQAAAABD3w6IAAAAAEPfDrAAAAAAQ98O10AISkBD3w7/Qzb5V0PfDyZDvoRSQ98PTkPrjWZD3w91Q8YEBEPfD51DXByZQ98PxEJrbhRD3w/sAAAAAEPfEBMAAAAAQ98QOwAAAABD3xBiAAAAAEPfjlYAAAAAQ9+OfgAAAABD346lAAAAAEPfjs0AAAAAQ9+O9UMmm8lD348cQzD1g0Pfj0RCszhMQ9+PbAAAAABD34+TAAAAAEPfj7sAAAAAQ9+P4wAAAABD6lKzAAAAAEPqUt8AAAAAQ+pTCgAAAABD6lM2AAAAAEPqU2FC6LRAQ+pTjUNNqAVD6lO5Q3Zi/UPqU+RDST1xQ+pUEELOjkRD6lQ8AAAAAEPqVGcAAAAAQ+pUkwAAAABD6lS+AAAAAEPqVOpDFBk7Q+pVFkMzxf9D6lVBQxfgMUPqVW0AAAAAQ+pVmQAAAABD6lXEAAAAAEPqVfAAAAAAQ+qp4gAAAABD6qoOAAAAAEPqqjoAAAAAQ+qqZgAAAABD6qqRQxtGxUPqqr1DM9+nQ+qq6UMaTMlD6qsVAAAAAEPqq0AAAAAAQ+qrbAAAAABD6quYAAAAAEP0hdQAAAAAQ/SGAwAAAABD9IYzAAAAAEP0hmIAAAAAQ/SGkkMtUiND9IbBQ7i2DkP0hvFEDd8PQ/SHIEQVu79D9IdPQ8UR1EP0h39Ca+8EQ/SHrgAAAABD9IfeAAAAAEP0iA0AAAAAQ/SIPQAAAABD+RUtAAAAAEP5FV4AAAAAQ/kVkAAAAABD+RXBAAAAAEP5FfJCVW8oQ/kWJENG0adD+RZVQ1OdY0P5FoZCryaYQ/kWtwAAAABD+RbpAAAAAEP5FxoAAAAAQ/kXSwAAAABD+4xwAAAAAEP7jKIAAAAAQ/uM1AAAAABD+40HAAAAAEP7jTlC9zV6Q/uNa0RTp1JD+42dRNYseUP7jdBFBMwAQ/uOAkTfKPxD+440RHEDqEP7jmZDZQYzQ/uOmQAAAABD+47LAAAAAEP7jv0AAAAAQ/uPLwAAAABD+49iAAAAAEP8DB0AAAAAQ/wMTwAAAABD/AyCAAAAAEP8DLQAAAAAQ/wM50LANKBD/A0ZQzA9l0P8DUxDqOawQ/wNfkQJ8GRD/A2wRBZh8kP8DeNDxvUSQ/wOFUNFkX9D/A5IQ1nIi0P8DnpC1lEYQ/wOrQAAAABD/A7fAAAAAEP8DxIAAAAAQ/wPRAAAAABD/Cl/AAAAAEP8KbIAAAAAQ/wp5AAAAABD/CoXAAAAAEP8KklC/rV+Q/wqfEM2/AlD/CquQ1vrR0P8KuFDXZxtQ/wrE0NO+6lD/CtGQ0CkpUP8K3hDKv/tQ/wrqwAAAABD/CvdAAAAAEP8LBAAAAAAQ/wsQgAAAABEAchdAAAAAEQByHgAAAAARAHIkgAAAABEAcitAAAAAEQByMhDFFQtRAHI40NBZ/VEAcj9Qw4ojUQByRgAAAAARAHJMwAAAABEAclOAAAAAEQByWkAAAAARAiPBQAAAABECI8iAAAAAEQIj0AAAAAARAiPXgAAAABECI97QtIAQEQIj5lDQC1DRAiPt0NUR8tECI/UQyrKL0QIj/IAAAAARAiQDwAAAABECJAtAAAAAEQIkEsAAAAARBAtaQAAAABEEC2KAAAAAEQQLasAAAAARBAtzAAAAABEEC3tQxEM40QQLg5DZaXdRBAuL0NJKXtEEC5QQqsvrkQQLnEAAAAARBAukgAAAABEEC6zAAAAAEQQLtQAAAAARBBHOgAAAABEEEdbAAAAAEQQR3wAAAAARBBHnQAAAABEEEe+QtQGdEQQR99Dknh2RBBIAEQI1vxEEEgiRCYd2UQQSENEA8fXRBBIZEOAHJJEEEiFQqmfKEQQSKYAAAAARBBIxwAAAABEEEjoAAAAAEQQSQkAAAAARBlVmgAAAABEGVW/AAAAAEQZVeQAAAAARBlWCgAAAABEGVYvQyA4p0QZVlRDQEFRRBlWekMn+t9EGVafAAAAAEQZVsUAAAAARBlW6gAAAABEGVcPAAAAAEQeSQgAAAAARB5JMAAAAABEHklYAAAAAEQeSYAAAAAARB5JqEMFcstEHknPQ30s70QeSfdDfp4lRB5KH0Mti5FEHkpHAAAAAEQeSm8AAAAARB5KlgAAAABEHkq+AAAAAEQihscAAAAARCKG8QAAAABEIocbAAAAAEQih0UAAAAARCKHb0OkiJREIoeZRAMjbkQih8NECTC6RCKH7UPBZahEIogXQvNmskQiiEEAAAAARCKIawAAAABEIoiVAAAAAEQiiL8AAAAARCLISQAAAABEIshzAAAAAEQiyJ4AAAAARCLIyAAAAABEIsjyQ0iV30QiyRxDw6BSRCLJRkPte9xEIslwQ83zwkQiyZpDghpaRCLJxAAAAABEIsnuAAAAAEQiyhgAAAAARCLKQwAAAABEJiRvAAAAAEQmJJsAAAAARCYkxgAAAABEJiTyAAAAAEQmJR5DK/KrRCYlSkQjZoJEJiV2RICqBUQmJaJEgim/RCYlzkQvOIxEJiX5Q3y6R0QmJiUAAAAARCYmUQAAAABEJiZ9AAAAAEQmJqkAAAAARCYm1QAAAABEJjcdAAAAAEQmN0kAAAAARCY3dAAAAABEJjegAAAAAEQmN8xDBEj1RCY3+EM/mrtEJjgkQywKXUQmOFAAAAAARCY4fAAAAABEJjioAAAAAEQmONQAAAAARCY4/wAAAABEJjkrAAAAAEQmOVcAAAAARCY5g0JBR6REJjmvQz/4BUQmOdtDc6ohRCY6B0Mj/9NEJjozAAAAAEQmOl8AAAAARCY6iwAAAABEJjq2AAAAAEQmeQ0AAAAARCZ5OQAAAABEJnllAAAAAEQmeZEAAAAARCZ5vUOx1ixEJnnpQ75QAEQmehVDwh7uRCZ6QUO0zPJEJnptQ4qrsEQmepkAAAAARCZ6xQAAAABEJnrxAAAAAEQmex0AAAAARClCpwAAAABEKULUAAAAAEQpQwIAAAAARClDLwAAAABEKUNdQyANz0QpQ4pDSArxRClDuEL7XKZEKUPlAAAAAEQpRBMAAAAARClEQAAAAABEKURuAAAAAEQpXEUAAAAARClccgAAAABEKVygAAAAAEQpXM0AAAAARClc+0Ndlg1EKV0pQ9ngrkQpXVZEBnrCRCldhEPiHNxEKV2xQ3c46UQpXd8AAAAARCleDAAAAABEKV46AAAAAEQpXmgAAAAARC2UcwAAAABELZSjAAAAAEQtlNMAAAAARC2VAwAAAABELZUzQ66+WkQtlWNEAXWBRC2Vk0QB02FELZXCQ51yyEQtlfJBrxGwRC2WIgAAAABELZZSAAAAAEQtloIAAAAARC2WsgAAAABELuKlAAAAAEQu4tUAAAAARC7jBgAAAABELuM2AAAAAEQu42dDJDvtRC7jmEOQDyRELuPIQ5kAzkQu4/lDS6czRC7kKUJQiRBELuRaAAAAAEQu5IsAAAAARC7kuwAAAABELuTsAAAAAEQu5RwAAAAARC7lTQAAAABELuV+AAAAAEQu5a5DOYEhRC7l30Pef6pELuYPRCLAuUQu5kBEQEWRRC7mcERZXENELuahRGN6UkQu5tJEPj+ORC7nAkPumMpELuczQ0sKXUQu52NCYZr8RC7nlAAAAABELufFAAAAAEQu5/UAAAAARC7oJgAAAABEL+anAAAAAEQv5tgAAAAARC/nCQAAAABEL+c7AAAAAEQv52xDL7dZRC/nnUNiVZ1EL+fOQ0JbHUQv5/9CqyhcRC/oMAAAAABEL+hhAAAAAEQv6JMAAAAARC/oxAAAAABEMO0eAAAAAEQw7VAAAAAARDDtgQAAAABEMO2zAAAAAEQw7eVCUT7cRDDuF0PDnb5EMO5IRBZ3E0Qw7npEDDm8RDDurEOnWkBEMO7eQq2XfkQw7w8AAAAARDDvQQAAAABEMO9zAAAAAEQw76UAAAAARDIYsAAAAABEMhjiAAAAAEQyGRQAAAAARDIZRwAAAABEMhl5Qy11O0QyGaxDXkIHRDIZ3kMXpdlEMhoQAAAAAEQyGkNDZT89RDIadUQZnVJEMhqoRD0KeEQyGtpEDWCVRDIbDEM+nSVEMhs/AAAAAEQyG3EAAAAARDIbpAAAAABEMhvWAAAAAEQyHAgAAAAARDJ2+AAAAABEMncqAAAAAEQyd10AAAAARDJ3jwAAAABEMnfCQ6fqRkQyd/VDvIWyRDJ4J0Pn2wREMnhaRAqwhEQyeIxECz0aRDJ4v0PtS9BEMnjyQ8FijkQyeSRDo41YRDJ5VwAAAABEMnmKAAAAAEQyebwAAAAARDJ57wAAAABEM1/LAAAAAEQzX/4AAAAARDNgMQAAAABEM2BkAAAAAEQzYJdDM9+BRDNgy0PSzIBEM2D+RARTb0QzYTFD57s4RDNhZEOeAqxEM2GXAAAAAEQzYcoAAAAARDNh/QAAAABEM2IwAAAAAEQ04ccAAAAARDTh+wAAAABENOIvAAAAAEQ04mMAAAAARDTil0NvUs1ENOLKQ7mM+EQ04v5D2IziRDTjMkPIjeBENONmQ5x0FEQ045oAAAAARDTjzgAAAABENOQCAAAAAEQ05DYAAAAARDTndgAAAABENOeqAAAAAEQ0594AAAAARDToEgAAAABENOhGQoWMvEQ06HpDQjn9RDTorkOZ9sZENOjiQ7LKFEQ06RZDkzI2RDTpSkL3QTJENOl+AAAAAEQ06bIAAAAARDTp5gAAAABENOoaAAAAAEQ129gAAAAARDXcDAAAAABENdxBAAAAAEQ13HUAAAAARDXcqkMUJ6FENdzeQ1KteUQ13RNDdSurRDXdSENhih1ENd18QzJGj0Q13bEAAAAARDXd5QAAAABENd4aAAAAAEQ13k4AAAAARDtfyAAAAABEO2AAAAAAAEQ7YDgAAAAARDtgbwAAAABEO2CnQvuPWkQ7YN9DR2vLRDthF0NP6YFEO2FOQx9lJ0Q7YYYAAAAARDthvgAAAABEO2H2AAAAAEQ7Yi4AAAAARD1dFAAAAABEPV1NAAAAAEQ9XYYAAAAARD1dvwAAAABEPV34Qy/i/UQ9XjFDWMDLRD1eakNLJ+VEPV6jQwls40Q9XtwAAAAARD1fFQAAAABEPV9OAAAAAEQ9X4cAAAAARD1k3wAAAABEPWUYAAAAAEQ9ZVEAAAAARD1ligAAAABEPWXDQqbV1EQ9ZfxDPvz5RD1mNUN8Ak1EPWZuQ4QpLkQ9ZqdDdtHbRD1m4ENV/DVEPWcZQyQAmUQ9Z1EAAAAARD1nigAAAABEPWfDAAAAAEQ9Z/wAAAAAREEeKwAAAABEQR5mAAAAAERBHqEAAAAAREEe3QAAAABEQR8YQtDTRERBH1NDPvx3REEfjkNcAh1EQR/KQ1m890RBIAVDONTfREEgQELxvNJEQSB7AAAAAERBILcAAAAAREEg8gAAAABEQSEtAAAAAERCU3EAAAAAREJTrQAAAABEQlPpAAAAAERCVCUAAAAAREJUYUKXYq5EQlSdQzg4rURCVNlDpapGREJVFUPkLuZEQlVRRBRjCkRCVY1ELIQgREJVyUQk7ZpEQlYFRAlZ1ERCVkFDx9h+REJWfUMY4alEQla5AAAAAERCVvUAAAAAREJXMQAAAABEQldtAAAAAERFh5YAAAAAREWH1AAAAABERYgSAAAAAERFiFAAAAAAREWIjkMWkvtERYjMQ4g29ERFiQpDqf4mREWJSEOyObBERYmGQ6D0xkRFicRDUY2nREWKAkIfGvhERYpAAAAAAERFin4AAAAAREWKvAAAAABERYr6AAAAAERFjiAAAAAAREWOXgAAAABERY6cAAAAAERFjtoAAAAAREWPGEK9GuBERY9WQ2Ml50RFj5RDoK7UREWP0kOl+WhERZAQQ22uP0RFkE5Coc28REWQjAAAAABERZDKAAAAAERFkQgAAAAAREWRRgAAAABER8aUAAAAAERHxtQAAAAAREfHEwAAAABER8dTAAAAAERHx5JDh8FaREfH0UO9DJBER8gRQ9bfKERHyFBDzkoWREfIkEOuMHxER8jPAAAAAERHyQ4AAAAAREfJTgAAAABER8mNAAAAAERIbk4AAAAAREhujgAAAABESG7OAAAAAERIbw4AAAAAREhvTkMM9UlESG+NQ083Y0RIb81DOgL9REhwDUK2XghESHBNAAAAAERIcI0AAAAAREhwzQAAAABESHEMAAAAAERKh+IAAAAAREqIIwAAAABESohkAAAAAERKiKYAAAAAREqI50Lh96RESokoQ35MV0RKiWlDnMTYREqJqkNxeg9ESonrQr2M/kRKii0AAAAAREqKbgAAAABESoqvAAAAAERKivAAAAAAREvFtwAAAABES8X5AAAAAERLxjsAAAAAREvGfQAAAABES8a/QwTfiURLxwFDcL+ZREvHQ0OJfrJES8eFQ2HTSURLx8dDAQzpREvICQAAAABES8hLAAAAAERLyI0AAAAAREvIzwAAAABES8wpAAAAAERLzGsAAAAAREvMrQAAAABES8zvAAAAAERLzTFC78e2REvNc0NWbJ9ES821Q5QpeERLzfdDbnPBREvOOUJOhwhES857AAAAAERLzrwAAAAAREvO/gAAAABES89AAAAAAERMDGoAAAAAREwMrQAAAABETAzvAAAAAERMDTEAAAAAREwNc0MbaL1ETA21Q4XDPkRMDfdDlMa4REwOOkNYuqFETA58QoUC7kRMDr4AAAAAREwPAAAAAABETA9CAAAAAERMD4QAAAAARE+u2AAAAABET68dAAAAAERPr2EAAAAARE+vpgAAAABET6/qQyyLhURPsC9DWN/HRE+wc0NkY0tET7C4QxkM20RPsPwAAAAARE+xQQAAAABET7GFAAAAAERPscoAAAAARFAOCQAAAABEUA5OAAAAAERQDpMAAAAARFAO1wAAAABEUA8cQwDAqURQD2FDdvAjRFAPpkOL1RJEUA/qQ0OKJURQEC9CXTp0RFAQdAAAAABEUBC5AAAAAERQEP4AAAAARFARQgAAAABEVcuoAAAAAERVy/AAAAAARFXMOQAAAABEVcyCAAAAAERVzMpCzsoORFXNE0NaGXFEVc1bQ3R5C0RVzaRDKbY/RFXN7QAAAABEVc41AAAAAERVzn4AAAAARFXOxwAAAABEV5BlAAAAAERXkK4AAAAARFeQ+AAAAABEV5FCAAAAAERXkYxDKSu1RFeR1kNbVSFEV5IgQ1lH20RXkmlDOlYfRFeSs0M4QDVEV5L9Q0YP/0RXk0dDMzG5RFeTkQAAAABEV5PaAAAAAERXlCQAAAAARFeUbgAAAABEV6FpAAAAAERXobMAAAAARFeh/QAAAABEV6JHAAAAAERXopFDDVORRFei20NxGSNEV6MlQ22aoURXo25C9lnCRFejuAAAAABEV6QCAAAAAERXpEwAAAAARFeklgAAAABEV6W9AAAAAERXpgcAAAAARFemUQAAAABEV6abAAAAAERXpuVDLnHjRFenL0M9OBdEV6d5QxBdL0RXp8MAAAAARFeoDQAAAABEV6hWAAAAAERXqKAAAAAARF33JAAAAABEXfdzAAAAAERd98EAAAAARF34DwAAAABEXfheQy+tTURd+KxDS93XRF34+kM42jtEXflIQswuZkRd+ZcAAAAARF355QAAAABEXfozAAAAAERd+oEAAAAARF5M4QAAAABEXk0wAAAAAEReTX4AAAAARF5NzQAAAABEXk4bQrksMkReTmpDvnVcRF5OuEQoL11EXk8HREPcqkReT1VEI/uQRF5PpEPTigZEXk/zQ4LN9kReUEFDX7PhRF5QkAAAAABEXlDeAAAAAEReUS0AAAAARF5RewAAAABEXo0MAAAAAERejVsAAAAARF6NqQAAAABEXo34AAAAAERejkdDA7iRRF6OlUOCrD5EXo7kQ8vYCkRejzND56FuRF6PgUO0Y8BEXo/QQyOz3URekB8AAAAARF6QbgAAAABEXpC8AAAAAERekQsAAAAARF7MvgAAAABEXs0NAAAAAERezVwAAAAARF7NqgAAAABEXs35Q478yERezkhDw2IoRF7Ol0PtNthEXs7mQ+gZFERezzVDnL2ORF7PhAAAAABEXs/TAAAAAERe0CEAAAAARF7QcAAAAABEYs8hAAAAAERiz3MAAAAARGLPxQAAAABEYtAXAAAAAERi0GhCk7m4RGLQukOaFH5EYtEMQ8gFaERi0V1DoL7mRGLRr0MQ5L1EYtIBAAAAAERi0lMAAAAARGLSpAAAAABEYtL2AAAAAERjTncAAAAARGNOyQAAAABEY08bAAAAAERjT20AAAAARGNPv0MdKfNEY1ARQ4lspERjUGNDjNEARGNQtkM/hM9EY1EIQkeJ4ERjUVoAAAAARGNRrAAAAABEY1H+AAAAAERjUlAAAAAARGbfpAAAAABEZt/5AAAAAERm4E4AAAAARGbgogAAAABEZuD3Qw3sj0Rm4UxDPHMvRGbhoEMBtoVEZuH1AAAAAERm4koAAAAARGbingAAAABEZuLzAAAAAERnjyUAAAAARGePegAAAABEZ4/PAAAAAERnkCQAAAAARGeQeULWDGZEZ5DPQ061J0RnkSRDan7BRGeReUNAkQdEZ5HOQuC5/kRnkiMAAAAARGeSeQAAAABEZ5LOAAAAAERnkyMAAAAARG8fawAAAABEbx/GAAAAAERvICEAAAAARG8gfAAAAABEbyDXQrehxkRvITJDR2/vRG8hjUNuIblEbyHnQ1BEK0RvIkJDLuhfRG8inQAAAABEbyL4AAAAAERvI1MAAAAARG8jrgAAAABEcM5fAAAAAERwzrsAAAAARHDPFwAAAABEcM9zAAAAAERwz89DK5xDRHDQK0OGgeZEcNCHQ26Re0Rw0ONC5uMORHDRQAAAAABEcNGcAAAAAERw0fgAAAAARHDSVAAAAABEcQ4hAAAAAERxDn0AAAAARHEO2gAAAABEcQ82AAAAAERxD5JC/8MCRHEP70PZhmhEcRBLRCsGMERxEKdEHpPpRHERBEOzPEpEcRFgQpyPfERxEbwAAAAARHESGQAAAABEcRJ1AAAAAERxEtEAAAAARHFNqQAAAABEcU4FAAAAAERxTmIAAAAARHFOvgAAAABEcU8bQWGokERxT3dDXYpdRHFP1EPRHHxEcVAwQ/Hb1kRxUI1DyFA0RHFQ6UN6Ck1EcVFGQzioDURxUaNDau5XRHFR/0NnQT9EcVJcQxBEBURxUrgAAAAARHFTFQAAAABEcVNxAAAAAERxU84AAAAARHUP2wAAAABEdRA6AAAAAER1EJkAAAAARHUQ+QAAAABEdRFYQoIpDER1EbhDbzAjRHUSF0OZA/BEdRJ2Q5gAnkR1EtZDj7qGRHUTNUN1fidEdROVQxFdtUR1E/QAAAAARHUUUwAAAABEdRSzAAAAAER1FRIAAAAARIFNGgAAAABEgU1PAAAAAESBTYQAAAAARIFNuQAAAABEgU3uQy178USBTiNDb4JRRIFOWEOhvR5EgU6NQ7dIFESBTsNDkg3MRIFO+ELaUAREgU8tAAAAAESBT2IAAAAARIFPlwAAAABEgU/MAAAAAESBpzIAAAAARIGnZwAAAABEgaecAAAAAESBp9IAAAAARIGoB0Jew0REgag9QzrtF0SBqHJDhC78RIGop0NtEDlEgajdQy4kQ0SBqRIAAAAARIGpSAAAAABEgal9AAAAAESBqbMAAAAARIHnXgAAAABEgeeUAAAAAESB58kAAAAARIHn/wAAAABEgeg1QwZ+g0SB6GpDhNUoRIHooEOId6xEgejWQvQoEkSB6QsAAAAARIHpQQAAAABEgel2AAAAAESB6awAAAAARIIHpwAAAABEggfdAAAAAESCCBMAAAAARIIISAAAAABEggh+Qv4nckSCCLRDWj6rRIII6kNbO+tEggkfQwvuw0SCCVUAAAAARIIJiwAAAABEggnBAAAAAESCCfYAAAAARIInlQAAAABEgifLAAAAAESCKAAAAAAARIIoNgAAAABEgihsQpgZsESCKKJDTqwDRIIo2ENlUilEgikOQwzsVUSCKUMAAAAARIIpeQAAAABEgimvAAAAAESCKeUAAAAARIJjZgAAAABEgmOcAAAAAESCY9IAAAAARIJkCAAAAABEgmQ+QxAFj0SCZHRDUubtRIJkq0NEJytEgmThQrRT7ESCZRcAAAAARIJlTQAAAABEgmWDAAAAAESCZbkAAAAARILgJgAAAABEguBcAAAAAESC4JMAAAAARILgyQAAAABEguEAQykld0SC4TZDdX0HRILhbENFmp9EguGjQb3PWESC4dkAAAAARILiEAAAAABEguJGAAAAAESC4n0AAAAARILldwAAAABEguWtAAAAAESC5eMAAAAARILmGgAAAABEguZQQwBjuUSC5odDV6cNRILmvUM6wtdEgub0QqvdxESC5yoAAAAARILnYQAAAABEgueXAAAAAESC580AAAAARIQHrQAAAABEhAflAAAAAESECBwAAAAARIQIVAAAAABEhAiLQ6u3TESECMJDwF2mRIQI+kO6QMBEhAkxQ4fEYkSECWlC/e2yRIQJoAAAAABEhAnXAAAAAESECg8AAAAARIQKRgAAAABEhkcTAAAAAESGR00AAAAARIZHhgAAAABEhke/AAAAAESGR/lDLs0JRIZIMkNUEF9EhkhrQ0uXC0SGSKRDHr1tRIZI3gAAAABEhkkXAAAAAESGSVAAAAAARIZJikL/SApEhknDQ2n1HUSGSfxDaNZfRIZKNULoybBEhkpvAAAAAESGSqgAAAAARIZK4QAAAABEhksbAAAAAESKp1YAAAAARIqnkwAAAABEiqfQAAAAAESKqA0AAAAARIqoSkOZccZEiqiHQ8OX8ESKqMRD0uwsRIqpAUPBGSZEiqk+Q4aumESKqXsAAAAARIqpuAAAAABEiqn1AAAAAESKqjMAAAAARIsHRgAAAABEiweEAAAAAESLB8EAAAAARIsH/gAAAABEiwg8QRzZQESLCHlDOZ21RIsIt0NpEt9Eiwj0Qxy7mUSLCTIAAAAARIsJbwAAAABEiwmsAAAAAESLCepC1l7iRIsKJ0NKJGFEiwplQ2VGDUSLCqJDI96fRIsK3wAAAABEiwsdAAAAAESLC1oAAAAARIsLmAAAAABEi6aPAAAAAESLps0AAAAARIunCgAAAABEi6dIAAAAAESLp4ZDAlSPRIunxEN89OlEi6gCQ36+10SLqEBDKC6nRIuofgAAAABEi6i8AAAAAESLqPoAAAAARIupOAAAAABEi6l2AAAAAESLqbQAAAAARIup8kMy0NNEi6owQ4TQBkSLqm5DkiguRIuqrENtXpdEi6rqQtiDoESLqygAAAAARIurZgAAAABEi6ukAAAAAESLq+IAAAAARIwKEwAAAABEjApRAAAAAESMCpAAAAAARIwKzgAAAABEjAsMQvIq9kSMC0pDZhH9RIwLiUNv6lFEjAvHQzxNeUSMDAVDBf57RIwMRAAAAABEjAyCAAAAAESMDMAAAAAARIwM/wAAAABEjShkAAAAAESNKKMAAAAARI0o4wAAAABEjSkiAAAAAESNKWFDElYDRI0poENEpUlEjSngQ1ahVUSNKh9DTWGbRI0qXkMyvJNEjSqeAAAAAESNKt0AAAAARI0rHAAAAABEjStcAAAAAESNSBMAAAAARI1IUgAAAABEjUiSAAAAAESNSNEAAAAARI1JEEOD/sxEjUlQQ5zD+kSNSY9DiLWwRI1Jz0M8GlVEjUoOQt0cRESNSk0AAAAARI1KjQAAAABEjUrMAAAAAESNSwwAAAAARI38VAAAAABEjfyUAAAAAESN/NQAAAAARI39FAAAAABEjf1UQqmYCkSN/ZRDQgi5RI391EOHro5Ejf4VQ5lPvkSN/lVDkJFWRI3+lUNXxZNEjf7VQt7eVESN/xUAAAAARI3/VQAAAABEjf+VAAAAAESN/9UAAAAARI4DFgAAAABEjgNWAAAAAESOA5YAAAAARI4D1gAAAABEjgQWQqKKNkSOBFZDWtVLRI4ElkORPRJEjgTWQ1hZoUSOBRdCi7n2RI4FVwAAAABEjgWXAAAAAESOBdcAAAAARI4GFwAAAABEkxSUAAAAAESTFNkAAAAARJMVHQAAAABEkxViAAAAAESTFadDJaKtRJMV7ENTNDdEkxYwQysKnUSTFnUAAAAARJMWugAAAABEkxb+AAAAAESTF0MAAAAARJUa0gAAAABElRsZAAAAAESVG18AAAAARJUbpgAAAABElRvtQxH4LUSVHDNDZsFtRJUcekN8raNElRzBQ2M/m0SVHQdDWz+3RJUdTkNrpC1ElR2VQ1qkRUSVHdtDF/M1RJUeIgAAAABElR5pAAAAAESVHq8AAAAARJUe9gAAAABElaatAAAAAESVpvUAAAAARJWnPAAAAABElaeDAAAAAESVp8pDIWOXRJWoEUN/VZNElahYQ1lqnUSVqKBCB/rcRJWo5wAAAABElakuAAAAAESVqXUAAAAARJWpvAAAAABElaoDQjC90ESVqktDb5h/RJWqkkOowJBElarZQ6MNmESVqyBDZaT5RJWrZ0LD4VBElauuAAAAAESVq/YAAAAARJWsPQAAAABElayEAAAAAESWQrAAAAAARJZC+AAAAABElkNAAAAAAESWQ4gAAAAARJZDz0MVJttElkQXQ05HR0SWRF9DPkqdRJZEp0MQVC9ElkTuAAAAAESWRTYAAAAARJZFfgAAAABElkXGAAAAAESWvGkAAAAARJa8sgAAAABElrz6AAAAAESWvUIAAAAARJa9ikKlvF5Elr3SQ1O/L0SWvhtDkrv0RJa+Y0Oe1WZElr6rQ5PuTESWvvNDaqxTRJa/O0MEwgFElr+EAAAAAESWv8wAAAAARJbAFAAAAABElsBcAAAAAESZ16UAAAAARJnX8AAAAABEmdg7AAAAAESZ2IcAAAAARJnY0kH4EwBEmdkdQzrIE0SZ2WhDr/tKRJnZs0PPruhEmdn/Q6dHFESZ2kpDV+ORRJnalUNWgi1EmdrgQ3EyH0SZ2ytDPfUTRJnbd0KWcMBEmdvCAAAAAESZ3A0AAAAARJncWAAAAABEmdykAAAAAESaWekAAAAARJpaNQAAAABEmlqAAAAAAESaWswAAAAARJpbGEMn4mNEmltjQ4AIPESaW69DX28TRJpb+0Krmh5EmlxHAAAAAESaXJIAAAAARJpc3gAAAABEml0qAAAAAESdv/QAAAAARJ3AQwAAAABEncCSAAAAAESdwOEAAAAARJ3BMEI6TyhEncGAQz/wr0Sdwc9DlDxyRJ3CHkOVGYJEncJtQzpUF0SdwrxCKT/gRJ3DCwAAAABEncNaAAAAAESdw6kAAAAARJ3D+AAAAABEpBQCAAAAAESkFFcAAAAARKQUrQAAAABEpBUCAAAAAESkFVhDNdeLRKQVrUNA8RVEpBYDQzh+m0SkFlkAAAAARKQWrgAAAABEpBcEAAAAAESkF1kAAAAARKSmiAAAAABEpKbfAAAAAESkpzUAAAAARKSniwAAAABEpKfhQxLIMUSkqDdDaeADRKSojUNwUU9EpKjjQ0nNC0SkqTpDL+FvRKSpkAAAAABEpKnmAAAAAESkqjwAAAAARKSqkgAAAABEqfuwAAAAAESp/AwAAAAARKn8aAAAAABEqfzEAAAAAESp/SBDNOW9RKn9e0NlYU9Eqf3XQ0R360Sp/jNCwDr2RKn+jwAAAABEqf7rAAAAAESp/0YAAAAARKn/ogAAAABErEarAAAAAESsRwoAAAAARKxHaAAAAABErEfGAAAAAESsSCVCE4y4RKxIg0NICpdErEjhQ4IvIkSsSUBDKx7dRKxJngAAAABErEn8AAAAAESsSloAAAAARKxKuQAAAABEtQkRAAAAAES1CXkAAAAARLUJ4QAAAABEtQpKAAAAAES1CrJDJhD9RLULGkN2IZtEtQuCQ0j6M0S1C+pCqdwmRLUMUgAAAABEtQy6AAAAAES1DSMAAAAARLUNiwAAAABEt1aPAAAAAES3VvkAAAAARLdXZAAAAABEt1fPAAAAAES3WDpDesoPRLdYpUPA01ZEt1kPQ9YeGkS3WXpDvpdCRLdZ5UOX1rpEt1pQAAAAAES3WrsAAAAARLdbJgAAAABEt1uQAAAAAETFGvIAAAAARMUbbQAAAABExRvpAAAAAETFHGQAAAAARMUc30JvoHRExR1bQ31mOUTFHdZDt+aSRMUeUkPAB3pExR7NQ6mPcETFH0lDgLBwRMUfxEMHHK9ExSBAAAAAAETFILsAAAAARMUhNwAAAABExSGyAAAAAETHFHgAAAAARMcU9gAAAABExxV0AAAAAETHFfIAAAAARMcWcEM1n/lExxbuQ1u19UTHF2xDRxs7RMcX6kLjC6ZExxhoAAAAAETHGOYAAAAARMcZZAAAAABExxniAAAAAETH/rQAAAAARMf/MwAAAABEx/+yAAAAAETIADEAAAAA\u000a</code></pre>\u000a
p2953
sVis_answered
p2954
I01
sVview_count
p2955
I120926
sVtags
p2956
(lp2957
Vpython
p2958
aVbase64
p2959
aVdecode
p2960
asVlast_activity_date
p2961
I1484630162
sVanswer_count
p2962
I7
sVcreation_date
p2963
I1281635572
sVscore
p2964
I53
sVlink
p2965
Vhttp://stackoverflow.com/questions/3470546/python-base64-data-decode
p2966
sVowner
p2967
(dp2968
Vuser_id
p2969
I413897
sVprofile_image
p2970
Vhttps://www.gravatar.com/avatar/8f2526bc92e19ef842b9f5d39d78e6ce?s=128&d=identicon&r=PG
p2971
sVuser_type
p2972
Vregistered
p2973
sVreputation
p2974
I1097
sVlink
p2975
Vhttp://stackoverflow.com/users/413897/ladyfafa
p2976
sVaccept_rate
p2977
I35
sVdisplay_name
p2978
Vladyfafa
p2979
ssVtitle
p2980
VPython base64 data decode
p2981
sVlast_edit_date
p2982
I1428680940
sVquestion_id
p2983
I3470546
sa(dp2984
Vbody
p2985
V<p>What I do in the command line:</p>\u000a\u000a<pre><code>cat file1 file2 file3 &gt; myfile\u000a</code></pre>\u000a\u000a<p>What I want to do with python:</p>\u000a\u000a<pre><code>import subprocess, shlex\u000amy_cmd = 'cat file1 file2 file3 &gt; myfile'\u000aargs = shlex.split(my_cmd)\u000asubprocess.call(args) # spits the output in the window i call my python program\u000a</code></pre>\u000a
p2986
sVis_answered
p2987
I01
sVview_count
p2988
I41827
sVtags
p2989
(lp2990
Vpython
p2991
aVsubprocess
p2992
asVlast_activity_date
p2993
I1445043728
sVanswer_count
p2994
I5
sVcreation_date
p2995
I1297392541
sVscore
p2996
I53
sVlink
p2997
Vhttp://stackoverflow.com/questions/4965159/python-how-to-redirect-output-with-subprocess
p2998
sVaccepted_answer_id
p2999
I4965176
sVowner
p3000
(dp3001
Vuser_id
p3002
I612441
sVprofile_image
p3003
Vhttps://www.gravatar.com/avatar/471fd5cd15b2c338061a989c7a2446d7?s=128&d=identicon&r=PG
p3004
sVuser_type
p3005
Vunregistered
p3006
sVreputation
p3007
I268
sVlink
p3008
Vhttp://stackoverflow.com/users/612441/catatemypythoncode
p3009
sVdisplay_name
p3010
Vcatatemypythoncode
p3011
ssVtitle
p3012
VPython: How to Redirect Output with Subprocess?
p3013
sVlast_edit_date
p3014
I1369235139
sVquestion_id
p3015
I4965159
sa(dp3016
Vbody
p3017
V<p>To read some text file, in C or Pascal, I always use the following snippets to read the data until EOF:</p>\u000a\u000a<pre><code>while not eof do begin\u000a  readline(a);\u000a  do_something;\u000aend;\u000a</code></pre>\u000a\u000a<p>Thus, I wonder how can I do this simple and fast in Python? </p>\u000a
p3018
sVis_answered
p3019
I01
sVview_count
p3020
I139627
sVtags
p3021
(lp3022
Vpython
p3023
aVfile
p3024
aViteration
p3025
aVeof
p3026
asVlast_activity_date
p3027
I1463419833
sVanswer_count
p3028
I6
sVcreation_date
p3029
I1364135131
sVscore
p3030
I53
sVlink
p3031
Vhttp://stackoverflow.com/questions/15599639/whats-perfect-counterpart-in-python-for-while-not-eof
p3032
sVaccepted_answer_id
p3033
I15599648
sVowner
p3034
(dp3035
Vuser_id
p3036
I1408256
sVprofile_image
p3037
Vhttps://i.stack.imgur.com/dYWhF.jpg?s=128&g=1
p3038
sVuser_type
p3039
Vregistered
p3040
sVreputation
p3041
I571
sVlink
p3042
Vhttp://stackoverflow.com/users/1408256/allen-koo
p3043
sVaccept_rate
p3044
I75
sVdisplay_name
p3045
VAllen Koo
p3046
ssVtitle
p3047
VWhat&#39;s perfect counterpart in Python for &quot;while not eof&quot;
p3048
sVlast_edit_date
p3049
I1417732431
sVquestion_id
p3050
I15599639
sa(dp3051
Vbody
p3052
V<p>I want to sort a list of strings based on the string length. I tried to use sort as follows, but it doesn't seem to give me correct result.</p>\u000a\u000a<pre><code>xs = ['dddd','a','bb','ccc']\u000aprint xs\u000axs.sort(lambda x,y: len(x) &lt; len(y))\u000aprint xs\u000a\u000a['dddd', 'a', 'bb', 'ccc']\u000a['dddd', 'a', 'bb', 'ccc']\u000a</code></pre>\u000a\u000a<p>What might be wrong?</p>\u000a
p3053
sVis_answered
p3054
I01
sVview_count
p3055
I47249
sVtags
p3056
(lp3057
Vpython
p3058
aVlist
p3059
aVsorting
p3060
asVlast_activity_date
p3061
I1459432402
sVanswer_count
p3062
I6
sVcreation_date
p3063
I1270579500
sVscore
p3064
I53
sVlink
p3065
Vhttp://stackoverflow.com/questions/2587402/sorting-python-list-based-on-the-length-of-the-string
p3066
sVaccepted_answer_id
p3067
I2587419
sVowner
p3068
(dp3069
Vuser_id
p3070
I260127
sVprofile_image
p3071
Vhttps://www.gravatar.com/avatar/74758c702067a3490094451e475e28c5?s=128&d=identicon&r=PG
p3072
sVuser_type
p3073
Vregistered
p3074
sVreputation
p3075
I47767
sVlink
p3076
Vhttp://stackoverflow.com/users/260127/prosseek
p3077
sVaccept_rate
p3078
I93
sVdisplay_name
p3079
Vprosseek
p3080
ssVtitle
p3081
VSorting Python list based on the length of the string
p3082
sVlast_edit_date
p3083
I1441533755
sVquestion_id
p3084
I2587402
sa(dp3085
Vbody
p3086
V<p>I'm writing a script to automate some command line commands in Python. At the moment I'm doing calls thus:</p>\u000a\u000a<pre><code>cmd = "some unix command"\u000aretcode = subprocess.call(cmd,shell=True)\u000a</code></pre>\u000a\u000a<p>However I need to run some commands on a remote machine. Manually, I would log in using ssh and then run the commands. How would I automate this in Python? I need to log in with a (known) password to the remote machine, so I can't just use <code>cmd = ssh user@remotehost</code>, I'm wondering if there's a module I should be using?</p>\u000a
p3087
sVis_answered
p3088
I01
sVview_count
p3089
I154913
sVtags
p3090
(lp3091
Vpython
p3092
aVssh
p3093
asVlast_activity_date
p3094
I1495110717
sVanswer_count
p3095
I6
sVcreation_date
p3096
I1282925341
sVscore
p3097
I53
sVlink
p3098
Vhttp://stackoverflow.com/questions/3586106/perform-commands-over-ssh-with-python
p3099
sVaccepted_answer_id
p3100
I3586168
sVowner
p3101
(dp3102
Vuser_id
p3103
I319618
sVprofile_image
p3104
Vhttps://i.stack.imgur.com/bQZof.png?s=128&g=1
p3105
sVuser_type
p3106
Vregistered
p3107
sVreputation
p3108
I14728
sVlink
p3109
Vhttp://stackoverflow.com/users/319618/fredley
p3110
sVaccept_rate
p3111
I82
sVdisplay_name
p3112
Vfredley
p3113
ssVtitle
p3114
VPerform commands over ssh with Python
p3115
sVquestion_id
p3116
I3586106
sa(dp3117
Vcommunity_owned_date
p3118
I1270488380
sVis_answered
p3119
I01
sVview_count
p3120
I48033
sVtags
p3121
(lp3122
Vpython
p3123
aVgetter-setter
p3124
asVbody
p3125
V<p>Using get/set seems to be a common practice in Java (for various reasons), but I hardly see Python code that uses this.</p>\u000a\u000a<p>Why do you use or avoid get/set methods in Python?</p>\u000a
p3126
sVlast_activity_date
p3127
I1430809762
sVanswer_count
p3128
I7
sVcreation_date
p3129
I1270488380
sVscore
p3130
I53
sVlink
p3131
Vhttp://stackoverflow.com/questions/2579840/do-you-use-the-get-set-pattern-in-python
p3132
sVaccepted_answer_id
p3133
I2579864
sVowner
p3134
(dp3135
Vuser_id
p3136
I86944
sVprofile_image
p3137
Vhttps://www.gravatar.com/avatar/01ee8747637d31e6bfd3b448da182466?s=128&d=identicon&r=PG
p3138
sVuser_type
p3139
Vregistered
p3140
sVreputation
p3141
I1473
sVlink
p3142
Vhttp://stackoverflow.com/users/86944/avery-payne
p3143
sVaccept_rate
p3144
I86
sVdisplay_name
p3145
VAvery Payne
p3146
ssVtitle
p3147
VDo you use the get/set pattern (in Python)?
p3148
sVlast_edit_date
p3149
I1411594158
sVquestion_id
p3150
I2579840
sa(dp3151
Vbody
p3152
V<p>I'm receiving a dict from one "layer" of code upon which some calculations/modifications are performed before passing it onto another "layer". The original dict's keys &amp; "string" values are <code>unicode</code>, but the layer they're being passed onto only accepts <code>str</code>.</p>\u000a\u000a<p>This is going to be called often, so I'd like to know what would be the fastest way to convert something like:</p>\u000a\u000a<pre><code>{ u'spam': u'eggs', u'foo': True, u'bar': { u'baz': 97 } }\u000a</code></pre>\u000a\u000a<p>...to:</p>\u000a\u000a<pre><code>{ 'spam': 'eggs', 'foo': True, 'bar': { 'baz': 97 } }\u000a</code></pre>\u000a\u000a<p>...bearing in mind the non-"string" values need to stay as their original type.</p>\u000a\u000a<p>Any thoughts?</p>\u000a
p3153
sVis_answered
p3154
I01
sVview_count
p3155
I61486
sVtags
p3156
(lp3157
Vpython
p3158
aVcasting
p3159
aVtypes
p3160
asVlast_activity_date
p3161
I1491320043
sVanswer_count
p3162
I6
sVcreation_date
p3163
I1249905077
sVscore
p3164
I53
sVlink
p3165
Vhttp://stackoverflow.com/questions/1254454/fastest-way-to-convert-a-dicts-keys-values-from-unicode-to-str
p3166
sVaccepted_answer_id
p3167
I1254499
sVowner
p3168
(dp3169
Vuser_id
p3170
I30478
sVprofile_image
p3171
Vhttps://i.stack.imgur.com/PaKNL.jpg?s=128&g=1
p3172
sVuser_type
p3173
Vregistered
p3174
sVreputation
p3175
I7972
sVlink
p3176
Vhttp://stackoverflow.com/users/30478/phillip-b-oldham
p3177
sVaccept_rate
p3178
I62
sVdisplay_name
p3179
VPhillip B Oldham
p3180
ssVtitle
p3181
VFastest way to convert a dict&#39;s keys &amp; values from `unicode` to `str`?
p3182
sVquestion_id
p3183
I1254454
sa(dp3184
Vbody
p3185
V<p>Suppose I have a pandas data frame df: </p>\u000a\u000a<p>I want to calculate the column wise mean of a data frame, </p>\u000a\u000a<p>This is easy: </p>\u000a\u000a<pre><code>df.apply(average) \u000a</code></pre>\u000a\u000a<p>then the column wise range max(col) - min (col). this is easy again: </p>\u000a\u000a<pre><code>df.apply(max) - df.apply(min)\u000a</code></pre>\u000a\u000a<p>Now for each element I want to subtract its columns mean and divide by its columns range. \u000aI am not sure how to do that</p>\u000a\u000a<p>Any help/pointers much appreciated. </p>\u000a
p3186
sVis_answered
p3187
I01
sVview_count
p3188
I69599
sVtags
p3189
(lp3190
Vpython
p3191
aVpandas
p3192
aVnumpy
p3193
asVlast_activity_date
p3194
I1494008846
sVanswer_count
p3195
I4
sVcreation_date
p3196
I1348211063
sVscore
p3197
I53
sVlink
p3198
Vhttp://stackoverflow.com/questions/12525722/normalize-data-in-pandas
p3199
sVaccepted_answer_id
p3200
I12525836
sVowner
p3201
(dp3202
Vuser_id
p3203
I218900
sVprofile_image
p3204
Vhttps://www.gravatar.com/avatar/8845997252d2a936f4741fb42f173d8c?s=128&d=identicon&r=PG
p3205
sVuser_type
p3206
Vregistered
p3207
sVreputation
p3208
I1062
sVlink
p3209
Vhttp://stackoverflow.com/users/218900/jason
p3210
sVaccept_rate
p3211
I87
sVdisplay_name
p3212
Vjason
p3213
ssVtitle
p3214
VNormalize data in pandas
p3215
sVlast_edit_date
p3216
I1472742590
sVquestion_id
p3217
I12525722
sa(dp3218
Vbody
p3219
V<p>I made a test to compare string operations in several languages for choosing a language for the server-side application. The results seemed normal until I finally tried C++, which surprised me a lot. So I wonder if I had missed any optimization and come here for help.</p>\u000a\u000a<p>The test are mainly intensive string operations, including concatenate and searching. The test is performed on Ubuntu 11.10 amd64, with GCC's version 4.6.1. The machine is Dell Optiplex 960, with 4G RAM, and Quad-core CPU.</p>\u000a\u000a<h2>in Python (2.7.2):</h2>\u000a\u000a<pre><code>def test():\u000a    x = ""\u000a    limit = 102 * 1024\u000a    while len(x) &lt; limit:\u000a        x += "X"\u000a        if x.find("ABCDEFGHIJKLMNOPQRSTUVWXYZ", 0) &gt; 0:\u000a            print("Oh my god, this is impossible!")\u000a    print("x's length is : %d" % len(x))\u000a\u000atest()\u000a</code></pre>\u000a\u000a<p>which gives result:</p>\u000a\u000a<pre><code>x's length is : 104448\u000a\u000areal    0m8.799s\u000auser    0m8.769s\u000asys     0m0.008s\u000a</code></pre>\u000a\u000a<h2>in Java (OpenJDK-7):</h2>\u000a\u000a<pre><code>public class test {\u000a    public static void main(String[] args) {\u000a        int x = 0;\u000a        int limit = 102 * 1024;\u000a        String s="";\u000a        for (; s.length() &lt; limit;) {\u000a            s += "X";\u000a            if (s.indexOf("ABCDEFGHIJKLMNOPQRSTUVWXYZ") &gt; 0)\u000a            System.out.printf("Find!\u005cn");\u000a        }\u000a        System.out.printf("x's length = %d\u005cn", s.length());\u000a    }\u000a}\u000a</code></pre>\u000a\u000a<p>which gives result:</p>\u000a\u000a<pre><code>x's length = 104448\u000a\u000areal    0m50.436s\u000auser    0m50.431s\u000asys     0m0.488s\u000a</code></pre>\u000a\u000a<h2>in Javascript (Nodejs 0.6.3)</h2>\u000a\u000a<pre><code>function test()\u000a{\u000a    var x = "";\u000a    var limit = 102 * 1024;\u000a    while (x.length &lt; limit) {\u000a        x += "X";\u000a        if (x.indexOf("ABCDEFGHIJKLMNOPQRSTUVWXYZ", 0) &gt; 0)\u000a            console.log("OK");\u000a    }\u000a    console.log("x's length = " + x.length);\u000a}();\u000a</code></pre>\u000a\u000a<p>which gives result:</p>\u000a\u000a<pre><code>x's length = 104448\u000a\u000areal    0m3.115s\u000auser    0m3.084s\u000asys     0m0.048s\u000a</code></pre>\u000a\u000a<h2>in C++ (g++ -Ofast)</h2>\u000a\u000a<p>It's not surprising that Nodejs performas better than Python or Java. But I expected libstdc++ would give much better performance than Nodejs, whose result really suprised me.</p>\u000a\u000a<pre><code>#include &lt;iostream&gt;\u000a#include &lt;string&gt;\u000ausing namespace std;\u000avoid test()\u000a{\u000a    int x = 0;\u000a    int limit = 102 * 1024;\u000a    string s("");\u000a    for (; s.size() &lt; limit;) {\u000a        s += "X";\u000a        if (s.find("ABCDEFGHIJKLMNOPQRSTUVWXYZ", 0) != string::npos)\u000a            cout &lt;&lt; "Find!" &lt;&lt; endl;\u000a    }\u000a    cout &lt;&lt; "x's length = " &lt;&lt; s.size() &lt;&lt; endl;\u000a}\u000a\u000aint main()\u000a{\u000a    test();\u000a}\u000a</code></pre>\u000a\u000a<p>which gives result:</p>\u000a\u000a<pre><code>x length = 104448\u000a\u000areal    0m5.905s\u000auser    0m5.900s\u000asys     0m0.000s\u000a</code></pre>\u000a\u000a<h2>Brief Summary</h2>\u000a\u000a<p>OK, now let's see the summary:</p>\u000a\u000a<ul>\u000a<li>javascript on Nodejs(V8): 3.1s</li>\u000a<li>Python on CPython 2.7.2 : 8.8s</li>\u000a<li>C++ with libstdc++: 5.9s</li>\u000a<li>Java on OpenJDK 7: 50.4s</li>\u000a</ul>\u000a\u000a<p>Surprisingly! I tried "-O2, -O3" in C++ but noting helped. C++ seems about only 50% performance of javascript in V8, and even poor than CPython. Could anyone explain to me if I had missed some optimization in GCC or is this just the case? Thank you a lot.</p>\u000a
p3220
sVis_answered
p3221
I01
sVview_count
p3222
I9471
sVtags
p3223
(lp3224
Vc++
p3225
aVpython
p3226
aVperformance
p3227
aVnode.js
p3228
aVstl
p3229
asVlast_activity_date
p3230
I1442077355
sVanswer_count
p3231
I12
sVcreation_date
p3232
I1322566393
sVscore
p3233
I53
sVlink
p3234
Vhttp://stackoverflow.com/questions/8310039/why-do-stdstring-operations-perform-poorly
p3235
sVowner
p3236
(dp3237
Vuser_id
p3238
I1071086
sVprofile_image
p3239
Vhttps://www.gravatar.com/avatar/e9bd371095e93e4cba27427931bba333?s=128&d=identicon&r=PG
p3240
sVuser_type
p3241
Vregistered
p3242
sVreputation
p3243
I284
sVlink
p3244
Vhttp://stackoverflow.com/users/1071086/wu-shu
p3245
sVdisplay_name
p3246
VWu Shu
p3247
ssVtitle
p3248
VWhy do std::string operations perform poorly?
p3249
sVlast_edit_date
p3250
I1322566581
sVquestion_id
p3251
I8310039
sa(dp3252
Vbody
p3253
V<p>I want to implement a HashMap in Python.  I want to ask a user for an input. depending on his input I am retrieving some information from the HashMap. If the user enters a key of the HashMap,  I would like to retrieve the corresponding value.</p>\u000a\u000a<p>How do I implement this functionality in Python?</p>\u000a\u000a<pre><code>HashMap&lt;String,String&gt; streetno=new HashMap&lt;String,String&gt;();\u000a   streetno.put("1", "Sachin Tendulkar");\u000a   streetno.put("2", "Dravid");\u000a   streetno.put("3","Sehwag");\u000a   streetno.put("4","Laxman");\u000a   streetno.put("5","Kohli")\u000a</code></pre>\u000a
p3254
sVis_answered
p3255
I01
sVview_count
p3256
I113036
sVtags
p3257
(lp3258
Vjava
p3259
aVpython
p3260
aVhashmap
p3261
asVlast_activity_date
p3262
I1445799493
sVanswer_count
p3263
I5
sVcreation_date
p3264
I1325524630
sVscore
p3265
I53
sVlink
p3266
Vhttp://stackoverflow.com/questions/8703496/hash-map-in-python
p3267
sVaccepted_answer_id
p3268
I8703509
sVowner
p3269
(dp3270
Vuser_id
p3271
I1118984
sVprofile_image
p3272
Vhttps://www.gravatar.com/avatar/0a18c024517c23ef9a7d03a5ad662699?s=128&d=identicon&r=PG
p3273
sVuser_type
p3274
Vregistered
p3275
sVreputation
p3276
I585
sVlink
p3277
Vhttp://stackoverflow.com/users/1118984/kiran-bhat
p3278
sVaccept_rate
p3279
I100
sVdisplay_name
p3280
VKiran Bhat
p3281
ssVtitle
p3282
VHash Map in Python
p3283
sVlast_edit_date
p3284
I1435883142
sVquestion_id
p3285
I8703496
sa(dp3286
Vbody
p3287
V<p>I want to change <code>a.txt</code> to <code>b.kml</code>.</p>\u000a
p3288
sVis_answered
p3289
I01
sVview_count
p3290
I76648
sVtags
p3291
(lp3292
Vpython
p3293
aVfile-rename
p3294
asVlast_activity_date
p3295
I1490937239
sVanswer_count
p3296
I5
sVcreation_date
p3297
I1269251963
sVscore
p3298
I53
sVlink
p3299
Vhttp://stackoverflow.com/questions/2491222/how-to-rename-a-file-using-python
p3300
sVaccepted_answer_id
p3301
I2491232
sVowner
p3302
(dp3303
Vuser_id
p3304
I234322
sVprofile_image
p3305
Vhttps://www.gravatar.com/avatar/474edaacceec677e0919b16f8cb8b67e?s=128&d=identicon&r=PG
p3306
sVuser_type
p3307
Vregistered
p3308
sVreputation
p3309
I12659
sVlink
p3310
Vhttp://stackoverflow.com/users/234322/zjm1126
p3311
sVaccept_rate
p3312
I78
sVdisplay_name
p3313
Vzjm1126
p3314
ssVtitle
p3315
VHow to rename a file using Python
p3316
sVlast_edit_date
p3317
I1349875770
sVquestion_id
p3318
I2491222
sa(dp3319
Vbody
p3320
V<p>I have the following two lists:</p>\u000a\u000a<pre><code>first = [1,2,3,4,5]\u000asecond = [6,7,8,9,10]\u000a</code></pre>\u000a\u000a<p>Now I want to add items of both lists into a new list.</p>\u000a\u000a<p>output should be </p>\u000a\u000a<pre><code>three = [7,9,11,13,15]\u000a</code></pre>\u000a
p3321
sVis_answered
p3322
I01
sVview_count
p3323
I84090
sVtags
p3324
(lp3325
Vpython
p3326
aVlist
p3327
aVsum
p3328
asVlast_activity_date
p3329
I1494413966
sVanswer_count
p3330
I12
sVcreation_date
p3331
I1356592192
sVscore
p3332
I53
sVlink
p3333
Vhttp://stackoverflow.com/questions/14050824/add-sum-of-values-of-two-lists-into-new-list
p3334
sVaccepted_answer_id
p3335
I14050853
sVowner
p3336
(dp3337
Vuser_id
p3338
I1850358
sVprofile_image
p3339
Vhttps://i.stack.imgur.com/EW1aw.jpg?s=128&g=1
p3340
sVuser_type
p3341
Vregistered
p3342
sVreputation
p3343
I3589
sVlink
p3344
Vhttp://stackoverflow.com/users/1850358/prashant-gaur
p3345
sVaccept_rate
p3346
I77
sVdisplay_name
p3347
VPrashant Gaur
p3348
ssVtitle
p3349
VAdd SUM of values of two LISTS into new LIST
p3350
sVlast_edit_date
p3351
I1356592905
sVquestion_id
p3352
I14050824
sasVquota_max
p3353
I300
sVquota_remaining
p3354
I197
s.