(dp0
Vhas_more
p1
I01
sVitems
p2
(lp3
(dp4
Vclosed_date
p5
I1417355071
sVis_answered
p6
I01
sVclosed_reason
p7
Voff-topic
p8
sVview_count
p9
I41232
sVtags
p10
(lp11
Vpython
p12
aVdeployment
p13
aVdependency-management
p14
asVbody
p15
V<p>I'm a java developer/python beginner, and I'm missing my maven features, particularly dependency management and build automation (I mean you don't build, but how to create a package for deployment?)  </p>\u000a\u000a<p>Is there a python equivalent to achieve these features?<br>\u000aNote: I use python 2.x</p>\u000a\u000a<p>Thanks. </p>\u000a
p16
sVlast_activity_date
p17
I1494238860
sVaccepted_answer_id
p18
I3324124
sVcreation_date
p19
I1279953698
sVscore
p20
I87
sVlink
p21
Vhttp://stackoverflow.com/questions/3324108/maven-equivalent-for-python
p22
sVanswer_count
p23
I5
sVowner
p24
(dp25
Vuser_id
p26
I234901
sVprofile_image
p27
Vhttps://www.gravatar.com/avatar/5d95dbec709c9c45e9fc325e750cdcdd?s=128&d=identicon&r=PG
p28
sVuser_type
p29
Vregistered
p30
sVreputation
p31
I17366
sVlink
p32
Vhttp://stackoverflow.com/users/234901/enno-shioji
p33
sVaccept_rate
p34
I97
sVdisplay_name
p35
VEnno Shioji
p36
ssVtitle
p37
VMaven equivalent for python
p38
sVlast_edit_date
p39
I1279954282
sVquestion_id
p40
I3324108
sa(dp41
Vbody
p42
V<p>What it the difference between running two commands:</p>\u000a\u000a<pre><code>foo = FooModel()\u000a</code></pre>\u000a\u000a<p>and</p>\u000a\u000a<pre><code>bar = BarModel.objects.create()\u000a</code></pre>\u000a\u000a<p>Does the second one immediately creates a BarModel at database, while for FooModel the save() method has to be called explicitly to add it?</p>\u000a
p43
sVis_answered
p44
I01
sVview_count
p45
I45031
sVtags
p46
(lp47
Vpython
p48
aVdjango
p49
aVdatabase
p50
asVlast_activity_date
p51
I1489602520
sVanswer_count
p52
I2
sVcreation_date
p53
I1414750189
sVscore
p54
I87
sVlink
p55
Vhttp://stackoverflow.com/questions/26672077/django-model-vs-model-objects-create
p56
sVaccepted_answer_id
p57
I26672182
sVowner
p58
(dp59
Vuser_id
p60
I865866
sVprofile_image
p61
Vhttps://i.stack.imgur.com/U6cUE.jpg?s=128&g=1
p62
sVuser_type
p63
Vregistered
p64
sVreputation
p65
I1326
sVlink
p66
Vhttp://stackoverflow.com/users/865866/h3d0
p67
sVaccept_rate
p68
I85
sVdisplay_name
p69
Vh3d0
p70
ssVtitle
p71
VDjango Model() vs Model.objects.create()
p72
sVquestion_id
p73
I26672077
sa(dp74
Vbody
p75
V<p>I have version 2.7 installed from early 2012. I can't find any consensus on whether I should completely uninstall and wipe this version before putting on the latest version.</p>\u000a\u000a<p>"Soft"-removing old versions? Hard-removing/wiping old versions? Installing over top?</p>\u000a\u000a<p>I've seen somewhere a special install/upgrade process using a "segmenting" method of Python installations, keeping different versions separate and apart, but functional. Not sure if this is the standard, de facto way.</p>\u000a\u000a<p>I also wonder if Revo gets too overzealous and may cause issues with wiping out still-needed remnants, like environment/PATH variables.</p>\u000a\u000a<p>(Win7 x64, 32-bit Python)</p>\u000a
p76
sVis_answered
p77
I01
sVview_count
p78
I210524
sVtags
p79
(lp80
Vpython
p81
aVpython-2.7
p82
aVinstallation
p83
aVupgrade
p84
aVwindows-7-x64
p85
asVlast_activity_date
p86
I1490390478
sVanswer_count
p87
I3
sVcreation_date
p88
I1361930860
sVscore
p89
I87
sVlink
p90
Vhttp://stackoverflow.com/questions/15102943/how-to-update-python
p91
sVaccepted_answer_id
p92
I17954487
sVowner
p93
(dp94
Vuser_id
p95
I1203437
sVprofile_image
p96
Vhttps://www.gravatar.com/avatar/5ca6b00262ff3a2e88f8e2e019ccf092?s=128&d=identicon&r=PG
p97
sVuser_type
p98
Vregistered
p99
sVreputation
p100
I1258
sVlink
p101
Vhttp://stackoverflow.com/users/1203437/coldblackice
p102
sVaccept_rate
p103
I62
sVdisplay_name
p104
VColdblackice
p105
ssVtitle
p106
VHow to update Python?
p107
sVlast_edit_date
p108
I1441760429
sVquestion_id
p109
I15102943
sa(dp110
Vbody
p111
V<p>I have two dictionaries, but for simplification, I will take these two:</p>\u000a\u000a<pre><code>&gt;&gt;&gt; x = dict(a=1, b=2)\u000a&gt;&gt;&gt; y = dict(a=2, b=2)\u000a</code></pre>\u000a\u000a<p>Now, I want to compare whether each <code>key, value</code> pair in <code>x</code> has the same corresponding value in <code>y</code>. So I wrote this:</p>\u000a\u000a<pre><code>&gt;&gt;&gt; for x_values, y_values in zip(x.iteritems(), y.iteritems()):\u000a        if x_values == y_values:\u000a            print 'Ok', x_values, y_values\u000a        else:\u000a            print 'Not', x_values, y_values\u000a</code></pre>\u000a\u000a<p>And it works since a <code>tuple</code> is returned and then compared for equality.</p>\u000a\u000a<p>My questions:</p>\u000a\u000a<p>Is this correct? Is there a <em>better</em> way to do this? Better not in speed, I am talking about code elegance.</p>\u000a\u000a<p>UPDATE: I forgot to mention that I have to check how many <code>key, value</code> pairs are equal. </p>\u000a
p112
sVis_answered
p113
I01
sVview_count
p114
I144949
sVtags
p115
(lp116
Vpython
p117
aVdictionary
p118
aVcomparison
p119
asVlast_activity_date
p120
I1491792813
sVanswer_count
p121
I13
sVcreation_date
p122
I1293217752
sVscore
p123
I86
sVlink
p124
Vhttp://stackoverflow.com/questions/4527942/comparing-two-dictionaries-in-python
p125
sVaccepted_answer_id
p126
I4527978
sVowner
p127
(dp128
Vuser_id
p129
I225312
sVprofile_image
p130
Vhttps://www.gravatar.com/avatar/98be1fca8529611a09e77da800faa817?s=128&d=identicon&r=PG
p131
sVuser_type
p132
Vregistered
p133
sVreputation
p134
I46012
sVlink
p135
Vhttp://stackoverflow.com/users/225312/user225312
p136
sVaccept_rate
p137
I94
sVdisplay_name
p138
Vuser225312
p139
ssVtitle
p140
VComparing two dictionaries in Python
p141
sVquestion_id
p142
I4527942
sa(dp143
Vbody
p144
V<p>I'm a Python newbie, but I've just spent a day working out how to get MySQLdb working properly, and the universe according to google includes numerous references to what a PITA it is, and an inordinate number of guides that seem to be outdated.  Given that this site is intended to address these sorts of problems, and I know that I'm going to need a reference to the solution in future, I'm going to ask the question, provide my answer and see what else floats to the surface.</p>\u000a\u000a<p>So the question is how to get <a href="http://sourceforge.net/projects/mysql-python/files/" rel="noreferrer">MySQLdb</a> working on Mac OS X?</p>\u000a
p145
sVis_answered
p146
I01
sVprotected_date
p147
I1362817481
sVview_count
p148
I138728
sVtags
p149
(lp150
Vpython
p151
aVmysql
p152
aVosx
p153
asVlast_activity_date
p154
I1478993106
sVanswer_count
p155
I11
sVcreation_date
p156
I1253361881
sVscore
p157
I86
sVlink
p158
Vhttp://stackoverflow.com/questions/1448429/how-to-install-mysqldb-python-data-access-library-to-mysql-on-mac-os-x
p159
sVowner
p160
(dp161
Vuser_id
p162
I147508
sVprofile_image
p163
Vhttps://www.gravatar.com/avatar/d5441cc612dfbba9aa2874ea682517f7?s=128&d=identicon&r=PG
p164
sVuser_type
p165
Vregistered
p166
sVreputation
p167
I2174
sVlink
p168
Vhttp://stackoverflow.com/users/147508/mblackwell8
p169
sVaccept_rate
p170
I67
sVdisplay_name
p171
Vmblackwell8
p172
ssVtitle
p173
VHow to install MySQLdb (Python data access library to MySQL) on Mac OS X?
p174
sVlast_edit_date
p175
I1344949804
sVquestion_id
p176
I1448429
sa(dp177
Vbody
p178
V<p>I am writing scripts in Python2.6 with use of <a href="https://github.com/vmware/pyvmomi">pyVmomi</a> and while using one of the connection methods:</p>\u000a\u000a<pre><code>service_instance = connect.SmartConnect(host=args.ip,\u000a                                        user=args.user,\u000a                                        pwd=args.password)\u000a</code></pre>\u000a\u000a<p>I get the following warning:</p>\u000a\u000a<pre><code>/usr/lib/python2.6/site-packages/requests/packages/urllib3/connectionpool.py:734: InsecureRequestWarning: Unverified HTTPS request is being made. Adding certificate verification is strongly advised. See: https://urllib3.readthedocs.org/en/latest/security.html\u000a  InsecureRequestWarning)\u000a</code></pre>\u000a\u000a<p>What's interesting is that I do not have urllib3 installed with pip (but it's there in <em>/usr/lib/python2.6/site-packages/requests/packages/urllib3/</em>).</p>\u000a\u000a<p>I have tried as suggested <a href="https://urllib3.readthedocs.org/en/latest/security.html">here</a></p>\u000a\u000a<pre><code>import urllib3\u000a...\u000aurllib3.disable_warnings()\u000a</code></pre>\u000a\u000a<p>but that didn't change anything.</p>\u000a
p179
sVis_answered
p180
I01
sVview_count
p181
I74671
sVtags
p182
(lp183
Vpython
p184
aVpython-2.6
p185
aVsuppress-warnings
p186
aVurllib3
p187
aVpyvmomi
p188
asVlast_activity_date
p189
I1482269801
sVanswer_count
p190
I4
sVcreation_date
p191
I1421402839
sVscore
p192
I86
sVlink
p193
Vhttp://stackoverflow.com/questions/27981545/suppress-insecurerequestwarning-unverified-https-request-is-being-made-in-pytho
p194
sVaccepted_answer_id
p195
I28002687
sVowner
p196
(dp197
Vuser_id
p198
I675100
sVprofile_image
p199
Vhttps://i.stack.imgur.com/jTqPB.png?s=128&g=1
p200
sVuser_type
p201
Vregistered
p202
sVreputation
p203
I5318
sVlink
p204
Vhttp://stackoverflow.com/users/675100/patryk
p205
sVaccept_rate
p206
I84
sVdisplay_name
p207
VPatryk
p208
ssVtitle
p209
VSuppress InsecureRequestWarning: Unverified HTTPS request is being made in Python2.6
p210
sVlast_edit_date
p211
I1445889803
sVquestion_id
p212
I27981545
sa(dp213
Vbody
p214
V<p>My model -></p>\u000a\u000a<pre><code>class Sample(models.Model):\u000a     users = models.ManyToManyField(User)\u000a</code></pre>\u000a\u000a<p>I want to do this (save users, user1 and user2 in this model ) -></p>\u000a\u000a<pre><code>user1 = User.objects.get(pk=1)\u000auser2 = User.objects.get(pk=2)\u000asample_object = Sample( users = user1, users=user2 )\u000asample_object.save()\u000a</code></pre>\u000a\u000a<p>I know that's wrong : D, but I'm sure you get what I want to do...so how would you do it ?</p>\u000a
p215
sVis_answered
p216
I01
sVview_count
p217
I47944
sVtags
p218
(lp219
Vpython
p220
aVdjango
p221
aVdjango-models
p222
aVdjango-orm
p223
asVlast_activity_date
p224
I1466611177
sVanswer_count
p225
I5
sVcreation_date
p226
I1312892806
sVscore
p227
I86
sVlink
p228
Vhttp://stackoverflow.com/questions/6996176/how-to-create-an-object-for-a-django-model-with-a-many-to-many-field
p229
sVaccepted_answer_id
p230
I6996358
sVowner
p231
(dp232
Vuser_id
p233
I478377
sVprofile_image
p234
Vhttps://www.gravatar.com/avatar/313886141349b56131bfdb5e133d81fe?s=128&d=identicon&r=PG
p235
sVuser_type
p236
Vregistered
p237
sVreputation
p238
I1337
sVlink
p239
Vhttp://stackoverflow.com/users/478377/zach-wild
p240
sVaccept_rate
p241
I73
sVdisplay_name
p242
VZach Wild
p243
ssVtitle
p244
VHow to create an object for a Django model with a many to many field?
p245
sVlast_edit_date
p246
I1450516392
sVquestion_id
p247
I6996176
sa(dp248
Vbody
p249
V<p>I was looking for an elegant way to change a specified column name in a <code>DataFrame</code>.</p>\u000a\u000a<p>play data ...</p>\u000a\u000a<pre><code>import pandas as pd\u000ad = {\u000a         'one': [1, 2, 3, 4, 5],\u000a         'two': [9, 8, 7, 6, 5],\u000a         'three': ['a', 'b', 'c', 'd', 'e']\u000a    }\u000adf = pd.DataFrame(d)\u000a</code></pre>\u000a\u000a<p>The most elegant solution I have found so far ...</p>\u000a\u000a<pre><code>names = df.columns.tolist()\u000anames[names.index('two')] = 'new_name'\u000adf.columns = names\u000a</code></pre>\u000a\u000a<p>I was hoping for a simple one-liner ... this attempt failed ...</p>\u000a\u000a<pre><code>df.columns[df.columns.tolist().index('one')] = 'another_name'\u000a</code></pre>\u000a\u000a<p>Any hints gratefully received.</p>\u000a
p250
sVis_answered
p251
I01
sVview_count
p252
I95023
sVtags
p253
(lp254
Vpython
p255
aVpandas
p256
asVlast_activity_date
p257
I1457617856
sVanswer_count
p258
I3
sVcreation_date
p259
I1388577594
sVscore
p260
I86
sVlink
p261
Vhttp://stackoverflow.com/questions/20868394/changing-a-specific-column-name-in-pandas-dataframe
p262
sVaccepted_answer_id
p263
I20868446
sVowner
p264
(dp265
Vuser_id
p266
I1577110
sVprofile_image
p267
Vhttps://www.gravatar.com/avatar/ca96cc231c44d10d8f78d1a7df698368?s=128&d=identicon&r=PG
p268
sVuser_type
p269
Vregistered
p270
sVreputation
p271
I1542
sVlink
p272
Vhttp://stackoverflow.com/users/1577110/mark-graph
p273
sVaccept_rate
p274
I81
sVdisplay_name
p275
VMark Graph
p276
ssVtitle
p277
VChanging a specific column name in pandas DataFrame
p278
sVlast_edit_date
p279
I1388577908
sVquestion_id
p280
I20868394
sa(dp281
Vbody
p282
V<p>the following code worked until today when I imported from a Windows machine and got this error:</p>\u000a\u000a<p><strong>new-line character seen in unquoted field - do you need to open the file in universal-newline mode?</strong></p>\u000a\u000a<pre><code>import csv\u000a\u000aclass CSV:\u000a\u000a\u000a    def __init__(self, file=None):\u000a        self.file = file\u000a\u000a    def read_file(self):\u000a        data = []\u000a        file_read = csv.reader(self.file)\u000a        for row in file_read:\u000a            data.append(row)\u000a        return data\u000a\u000a    def get_row_count(self):\u000a        return len(self.read_file())\u000a\u000a    def get_column_count(self):\u000a        new_data = self.read_file()\u000a        return len(new_data[0])\u000a\u000a    def get_data(self, rows=1):\u000a        data = self.read_file()\u000a\u000a        return data[:rows]\u000a</code></pre>\u000a\u000a<p>How can I fix this issue?</p>\u000a\u000a<pre><code>def upload_configurator(request, id=None):\u000a    """\u000a    A view that allows the user to configurator the uploaded CSV.\u000a    """\u000a    upload = Upload.objects.get(id=id)\u000a    csvobject = CSV(upload.filepath)\u000a\u000a    upload.num_records = csvobject.get_row_count()\u000a    upload.num_columns = csvobject.get_column_count()\u000a    upload.save()\u000a\u000a    form = ConfiguratorForm()\u000a\u000a    row_count = csvobject.get_row_count()\u000a    colum_count = csvobject.get_column_count()\u000a    first_row = csvobject.get_data(rows=1)\u000a    first_two_rows = csvobject.get_data(rows=5)\u000a</code></pre>\u000a
p283
sVis_answered
p284
I01
sVview_count
p285
I81084
sVtags
p286
(lp287
Vpython
p288
aVdjango
p289
aVcsv
p290
asVlast_activity_date
p291
I1488935947
sVanswer_count
p292
I7
sVcreation_date
p293
I1372236974
sVscore
p294
I86
sVlink
p295
Vhttp://stackoverflow.com/questions/17315635/csv-new-line-character-seen-in-unquoted-field-error
p296
sVaccepted_answer_id
p297
I17315921
sVowner
p298
(dp299
Vuser_id
p300
I2299875
sVprofile_image
p301
Vhttps://www.gravatar.com/avatar/850c3f751c598149965ea72e03263185?s=128&d=identicon&r=PG
p302
sVuser_type
p303
Vregistered
p304
sVreputation
p305
I1352
sVlink
p306
Vhttp://stackoverflow.com/users/2299875/grantu
p307
sVaccept_rate
p308
I90
sVdisplay_name
p309
VGrantU
p310
ssVtitle
p311
VCSV new-line character seen in unquoted field error
p312
sVlast_edit_date
p313
I1407711709
sVquestion_id
p314
I17315635
sa(dp315
Vbody
p316
V<p>In Python, is there a way to bind an unbound method without calling it?</p>\u000a\u000a<p>I am writing a wxPython program, and for a certain class I decided it'd be nice to group the data of all of my buttons together as a class-level list of tuples, like so:</p>\u000a\u000a<pre><code>class MyWidget(wx.Window):\u000a    buttons = [("OK", OnOK),\u000a               ("Cancel", OnCancel)]\u000a\u000a    # ...\u000a\u000a    def Setup(self):\u000a        for text, handler in MyWidget.buttons:\u000a\u000a            # This following line is the problem line.\u000a            b = wx.Button(parent, label=text).Bind(wx.EVT_BUTTON, handler)\u000a</code></pre>\u000a\u000a<p>The problem is, since all of the values of <code>handler</code> are unbound methods, my program explodes in a spectacular blaze and I weep.</p>\u000a\u000a<p>I was looking around online for a solution to what seems like should be a relatively straightforward, solvable problem. Unfortunately I couldn't find anything. Right now, I'm using <code>functools.partial</code> to work around this, but does anyone know if there's a clean-feeling, healthy, Pythonic way to bind an unbound method to an instance and continue passing it around without calling it?</p>\u000a
p317
sVis_answered
p318
I01
sVview_count
p319
I31052
sVtags
p320
(lp321
Vpython
p322
aVclass
p323
aVmethods
p324
aVbind
p325
asVlast_activity_date
p326
I1495126946
sVanswer_count
p327
I4
sVcreation_date
p328
I1245360798
sVscore
p329
I86
sVlink
p330
Vhttp://stackoverflow.com/questions/1015307/python-bind-an-unbound-method
p331
sVaccepted_answer_id
p332
I1015405
sVowner
p333
(dp334
Vuser_id
p335
I125415
sVprofile_image
p336
Vhttps://www.gravatar.com/avatar/25cd06518221e8ce6f3a4c8a5ccd711a?s=128&d=identicon&r=PG
p337
sVuser_type
p338
Vregistered
p339
sVreputation
p340
I1891
sVlink
p341
Vhttp://stackoverflow.com/users/125415/dan-passaro
p342
sVaccept_rate
p343
I55
sVdisplay_name
p344
VDan Passaro
p345
ssVtitle
p346
VPython: Bind an Unbound Method?
p347
sVlast_edit_date
p348
I1245362661
sVquestion_id
p349
I1015307
sa(dp350
Vbody
p351
V<p>I often find myself writing if / elif / else constructs in python, and I want to include options which can occur, but for which the corresponding action is to do nothing. I realise I could just exclude those if statements, but for readability I find it helps to include them all, so that if you are looking through the code you can see what happens as a result of each option. How do I code the no-op? Currently, I'm doing it like this:</p>\u000a\u000a<pre><code>no_op = 0\u000a\u000aif x == 0:\u000a    y = 2 * a\u000aelif x == 1:\u000a    z = 3 * b\u000aelif x == 3:\u000a    no_op\u000a</code></pre>\u000a\u000a<p>(The code is actually quite a bit longer than that, and more complicated. This is just to illustrate the structure).</p>\u000a\u000a<p>I don't like using a variable as a no-op, but it's the neatest way I could think of. Is there a better way?</p>\u000a
p352
sVis_answered
p353
I01
sVview_count
p354
I47585
sVtags
p355
(lp356
Vpython
p357
asVlast_activity_date
p358
I1342322237
sVanswer_count
p359
I3
sVcreation_date
p360
I1238173459
sVscore
p361
I86
sVlink
p362
Vhttp://stackoverflow.com/questions/690622/whats-a-standard-way-to-do-a-no-op-in-python
p363
sVaccepted_answer_id
p364
I690625
sVowner
p365
(dp366
Vuser_id
p367
I11522
sVprofile_image
p368
Vhttps://www.gravatar.com/avatar/a0146d458e8d014cdfa38f832d91adbb?s=128&d=identicon&r=PG
p369
sVuser_type
p370
Vregistered
p371
sVreputation
p372
I19266
sVlink
p373
Vhttp://stackoverflow.com/users/11522/ben
p374
sVaccept_rate
p375
I92
sVdisplay_name
p376
VBen
p377
ssVtitle
p378
VWhat&#39;s a standard way to do a no-op in python?
p379
sVlast_edit_date
p380
I1342322237
sVquestion_id
p381
I690622
sa(dp382
Vbody
p383
V<p>I am starting to depend heavily on the IPython notebook app to develop and document algorithms.  It is awesome; but there is something that seems like it should be possible, but I can't figure out how to do it:</p>\u000a\u000a<p>I would like to insert a local image into my (local) IPython notebook markdown to aid in documenting an algorithm.  I know enough to add something like <code>&lt;img src="image.png"&gt;</code> to the markdown, but that is about as far as my knowledge goes.  I assume I could put the image in the directory represented by 127.0.0.1:8888 (or some subdirectory) to be able to access it, but I can't figure out where that directory is.  (I'm working on a mac.)  So, is it possible to do what I'm trying to do without too much trouble?</p>\u000a
p384
sVis_answered
p385
I01
sVview_count
p386
I72563
sVtags
p387
(lp388
Vpython
p389
aVipython
p390
asVlast_activity_date
p391
I1492761899
sVanswer_count
p392
I7
sVcreation_date
p393
I1337212323
sVscore
p394
I86
sVlink
p395
Vhttp://stackoverflow.com/questions/10628262/inserting-image-into-ipython-notebook-markdown
p396
sVaccepted_answer_id
p397
I10628360
sVowner
p398
(dp399
Vuser_id
p400
I322558
sVprofile_image
p401
Vhttps://www.gravatar.com/avatar/a4a46d5c0212e103c6552cce34f73aaf?s=128&d=identicon&r=PG
p402
sVuser_type
p403
Vregistered
p404
sVreputation
p405
I869
sVlink
p406
Vhttp://stackoverflow.com/users/322558/benpro
p407
sVaccept_rate
p408
I75
sVdisplay_name
p409
Vbenpro
p410
ssVtitle
p411
VInserting image into IPython notebook markdown
p412
sVquestion_id
p413
I10628262
sa(dp414
Vbody
p415
V<p>I have a file. In Python, I would like to take its creation time, and convert it to an <a href="http://en.wikipedia.org/wiki/ISO_8601" rel="noreferrer">ISO time (ISO 8601) string</a> <strong>while preserving the fact that it was created in the Eastern Time Zone</strong>.</p>\u000a\u000a<p>How do I take the file's ctime and convert it to an ISO time string, that indicates the Eastern Time Zone (and takes into account daylight savings time, if necessary)?</p>\u000a
p416
sVis_answered
p417
I01
sVview_count
p418
I80285
sVtags
p419
(lp420
Vpython
p421
aVdatetime
p422
aViso8601
p423
asVlast_activity_date
p424
I1478600286
sVanswer_count
p425
I10
sVcreation_date
p426
I1264630956
sVscore
p427
I86
sVlink
p428
Vhttp://stackoverflow.com/questions/2150739/iso-time-iso-8601-in-python
p429
sVowner
p430
(dp431
Vuser_id
p432
I82733
sVprofile_image
p433
Vhttps://www.gravatar.com/avatar/a9cd063ebcce45ead965dce637eebfd3?s=128&d=identicon&r=PG
p434
sVuser_type
p435
Vregistered
p436
sVreputation
p437
I3875
sVlink
p438
Vhttp://stackoverflow.com/users/82733/joseph-turian
p439
sVaccept_rate
p440
I75
sVdisplay_name
p441
VJoseph Turian
p442
ssVtitle
p443
VISO Time (ISO 8601) in Python?
p444
sVquestion_id
p445
I2150739
sa(dp446
Vbody
p447
V<p>I am very new to PyDev and Python, though I have used Eclipse for Java plenty. I am trying to work through some of the Dive Into Python examples and this feels like an extremely trivial problem that's just becoming exceedingly annoying. I am using Ubuntu Linux 10.04.</p>\u000a\u000a<p>I want to be able to use the file odbchelper.py, which is located in the directory <code>/Desktop/Python_Tutorials/diveintopython/py</code></p>\u000a\u000a<p>Here is my example.py file that I'm working on in my PyDev/Eclipse project: </p>\u000a\u000a<pre><code>import sys\u000asys.path.append("~/Desktop/Python_Tutorials/diveintopython/py")\u000a</code></pre>\u000a\u000a<p>This works fine, but then I want the next line of my code to be:</p>\u000a\u000a<pre><code>import odbchelper\u000a</code></pre>\u000a\u000a<p>and this causes an unresolved import error every time. I have added <code>__init__.py</code> files to just about every directory possible and it doesn't help anything. I've tried adding <code>__init__.py</code> files one at a time to the various levels of directories between the project location and the odbchelper.py file, and I've also tried adding the <code>__init__.py</code> files to all of the directories in between simultaneously. Neither works.</p>\u000a\u000a<p>All I want to do is have a project somewhere in some other directory, say <code>/Desktop/MyStuff/Project</code>, in which I have example.py ... and then from example.py I want to import odbchelper.py from <code>/Desktop/Python_Tutorials/diveintopython/py/</code></p>\u000a\u000a<p>Every message board response I can find just saying to use the <code>sys.path.append()</code> function to add this directory to my path, and then import it ... but that is precisely what I am doing in my code and it's not working.</p>\u000a\u000a<p>I have also tried the <kbd>Ctrl</kbd>-<kbd>1</kbd> trick to suppress the error message, but the program is still not functioning correctly. I get an error, <code>ImportError: No module named odbchelper</code>. So it's clearly not getting the path added, or there is some problem that all of my many permutations of adding <code>__init__.py</code> files has missed.</p>\u000a\u000a<p>It's very frustrating that something this simple... calling things from some file that exists somewhere else on my machine... requires this much effort.</p>\u000a
p448
sVis_answered
p449
I01
sVview_count
p450
I117974
sVtags
p451
(lp452
Vpython
p453
aVpydev
p454
aVpython-import
p455
asVlast_activity_date
p456
I1487846702
sVanswer_count
p457
I9
sVcreation_date
p458
I1294444527
sVscore
p459
I86
sVlink
p460
Vhttp://stackoverflow.com/questions/4631377/unresolved-import-issues-with-pydev-and-eclipse
p461
sVaccepted_answer_id
p462
I4632022
sVowner
p463
(dp464
Vuser_id
p465
I567620
sVprofile_image
p466
Vhttps://i.stack.imgur.com/g8HIM.jpg?s=128&g=1
p467
sVuser_type
p468
Vregistered
p469
sVreputation
p470
I22654
sVlink
p471
Vhttp://stackoverflow.com/users/567620/ely
p472
sVaccept_rate
p473
I71
sVdisplay_name
p474
Vely
p475
ssVtitle
p476
VUnresolved Import Issues with PyDev and Eclipse
p477
sVlast_edit_date
p478
I1487846702
sVquestion_id
p479
I4631377
sa(dp480
Vbody
p481
V<p>How do you cause uncaught exceptions to output via the <code>logging</code> module rather than to <code>stderr</code>?</p>\u000a\u000a<p>I realize the best way to do this would be:</p>\u000a\u000a<pre><code>try:\u000a    raise Exception, 'Throwing a boring exception'\u000aexcept Exception, e:\u000a    logging.exception(e)\u000a</code></pre>\u000a\u000a<p>But my situation is such that it would be <em>really nice</em> if <code>logging.exception(...)</code> were invoked automatically whenever an exception isn't caught.</p>\u000a
p482
sVis_answered
p483
I01
sVview_count
p484
I19228
sVtags
p485
(lp486
Vpython
p487
aVlogging
p488
aVexception-handling
p489
asVlast_activity_date
p490
I1491427969
sVanswer_count
p491
I8
sVcreation_date
p492
I1307156002
sVscore
p493
I86
sVlink
p494
Vhttp://stackoverflow.com/questions/6234405/logging-uncaught-exceptions-in-python
p495
sVaccepted_answer_id
p496
I6234491
sVowner
p497
(dp498
Vuser_id
p499
I110358
sVprofile_image
p500
Vhttps://www.gravatar.com/avatar/13c7ad63eb27047a7ff869d27e40c1ad?s=128&d=identicon&r=PG
p501
sVuser_type
p502
Vregistered
p503
sVreputation
p504
I13395
sVlink
p505
Vhttp://stackoverflow.com/users/110358/jacob-marble
p506
sVaccept_rate
p507
I90
sVdisplay_name
p508
VJacob Marble
p509
ssVtitle
p510
VLogging uncaught exceptions in Python
p511
sVlast_edit_date
p512
I1426167052
sVquestion_id
p513
I6234405
sa(dp514
Vbody
p515
V<p>Given a NumPy array of <code>int32</code>, how do I convert it to <code>float32</code> <strong>in place</strong>?  So basically, I would like to do</p>\u000a\u000a<pre><code>a = a.astype(numpy.float32)\u000a</code></pre>\u000a\u000a<p>without copying the array.  It is big.</p>\u000a\u000a<p>The reason for doing this is that I have two algorithms for the computation of <code>a</code>.  One of them returns an array of <code>int32</code>, the other returns an array of <code>float32</code> (and this is inherent to the two different algorithms).  All further computations assume that <code>a</code> is an array of <code>float32</code>.</p>\u000a\u000a<p>Currently I do the conversion in a C function called via <code>ctypes</code>.  Is there a way to do this in Python?</p>\u000a
p516
sVis_answered
p517
I01
sVview_count
p518
I77431
sVtags
p519
(lp520
Vpython
p521
aVnumpy
p522
asVlast_activity_date
p523
I1435227548
sVanswer_count
p524
I4
sVcreation_date
p525
I1291824106
sVscore
p526
I86
sVlink
p527
Vhttp://stackoverflow.com/questions/4389517/in-place-type-conversion-of-a-numpy-array
p528
sVaccepted_answer_id
p529
I4396247
sVowner
p530
(dp531
Vuser_id
p532
I279627
sVprofile_image
p533
Vhttps://www.gravatar.com/avatar/2dceea858ad8f1577bec6ddaa0485d15?s=128&d=identicon&r=PG
p534
sVuser_type
p535
Vregistered
p536
sVreputation
p537
I252330
sVlink
p538
Vhttp://stackoverflow.com/users/279627/sven-marnach
p539
sVaccept_rate
p540
I78
sVdisplay_name
p541
VSven Marnach
p542
ssVtitle
p543
VIn-place type conversion of a NumPy array
p544
sVlast_edit_date
p545
I1373818452
sVquestion_id
p546
I4389517
sa(dp547
Vbody
p548
V<p>I have many "can't encode" and "can't decode" problems with <a href="http://en.wikipedia.org/wiki/Python_%28programming_language%29" rel="noreferrer">Python</a> when I run my applications from the console. But in the <a href="http://en.wikipedia.org/wiki/Eclipse_%28software%29" rel="noreferrer">Eclipse</a> <a href="http://en.wikipedia.org/wiki/PyDev" rel="noreferrer">PyDev</a> IDE, the default character encoding is set to <a href="http://en.wikipedia.org/wiki/UTF-8" rel="noreferrer">UTF-8</a>, and I'm fine.</p>\u000a\u000a<p>I searched around for setting the default encoding, and people say that Python deletes the <code>sys.setdefaultencoding</code> function on startup, and we can not use it.</p>\u000a\u000a<p>So what's the best solution for it?</p>\u000a
p549
sVis_answered
p550
I01
sVview_count
p551
I137008
sVtags
p552
(lp553
Vpython
p554
aVencoding
p555
aVutf-8
p556
aVconsole
p557
asVlast_activity_date
p558
I1493290407
sVanswer_count
p559
I8
sVcreation_date
p560
I1266353188
sVscore
p561
I86
sVlink
p562
Vhttp://stackoverflow.com/questions/2276200/changing-default-encoding-of-python
p563
sVowner
p564
(dp565
Vuser_id
p566
I233535
sVprofile_image
p567
Vhttps://www.gravatar.com/avatar/98352b262fadd93300d24b081ae75f81?s=128&d=identicon&r=PG
p568
sVuser_type
p569
Vregistered
p570
sVreputation
p571
I906
sVlink
p572
Vhttp://stackoverflow.com/users/233535/ali-nadalizadeh
p573
sVaccept_rate
p574
I62
sVdisplay_name
p575
VAli Nadalizadeh
p576
ssVtitle
p577
VChanging default encoding of Python?
p578
sVlast_edit_date
p579
I1415731557
sVquestion_id
p580
I2276200
sa(dp581
Vbody
p582
V<p>Before i re-invent this particular wheel, has anybody got a nice routine for calculating the size of a directory using Python? It would be very nice if the routine would format the size nicely in Mb/Gb etc.</p>\u000a
p583
sVis_answered
p584
I01
sVview_count
p585
I68745
sVtags
p586
(lp587
Vpython
p588
aVdirectory
p589
asVlast_activity_date
p590
I1494158284
sVanswer_count
p591
I20
sVcreation_date
p592
I1252393602
sVscore
p593
I86
sVlink
p594
Vhttp://stackoverflow.com/questions/1392413/calculating-a-directory-size-using-python
p595
sVaccepted_answer_id
p596
I1392549
sVowner
p597
(dp598
Vuser_id
p599
I13227
sVprofile_image
p600
Vhttps://www.gravatar.com/avatar/9aa8ec2ad36bb9385a4a0f3840f65ae8?s=128&d=identicon&r=PG
p601
sVuser_type
p602
Vregistered
p603
sVreputation
p604
I21438
sVlink
p605
Vhttp://stackoverflow.com/users/13227/gary-willoughby
p606
sVaccept_rate
p607
I91
sVdisplay_name
p608
VGary Willoughby
p609
ssVtitle
p610
VCalculating a directory size using Python?
p611
sVlast_edit_date
p612
I1404077706
sVquestion_id
p613
I1392413
sa(dp614
Vbody
p615
V<p>I am using Selenium RC to automate some browser operations but I want the browser to be invisible. Is this possible? How? What about Selenium Grid? Can I hide the Selenium RC window also?</p>\u000a
p616
sVis_answered
p617
I01
sVview_count
p618
I56833
sVtags
p619
(lp620
Vpython
p621
aVselenium
p622
aVselenium-rc
p623
asVlast_activity_date
p624
I1492781856
sVanswer_count
p625
I11
sVcreation_date
p626
I1252858073
sVscore
p627
I86
sVlink
p628
Vhttp://stackoverflow.com/questions/1418082/is-it-possible-to-hide-the-browser-in-selenium-rc
p629
sVaccepted_answer_id
p630
I1418419
sVowner
p631
(dp632
Vuser_id
p633
I157027
sVprofile_image
p634
Vhttps://www.gravatar.com/avatar/8dd37ccddb6a9237369abe8009ce746b?s=128&d=identicon&r=PG
p635
sVuser_type
p636
Vregistered
p637
sVreputation
p638
I12101
sVlink
p639
Vhttp://stackoverflow.com/users/157027/yatendra-goel
p640
sVaccept_rate
p641
I68
sVdisplay_name
p642
VYatendra Goel
p643
ssVtitle
p644
VIs it possible to hide the browser in Selenium RC?
p645
sVlast_edit_date
p646
I1412006204
sVquestion_id
p647
I1418082
sa(dp648
Vclosed_date
p649
I1453245207
sVis_answered
p650
I01
sVclosed_reason
p651
Vduplicate
p652
sVview_count
p653
I47277
sVtags
p654
(lp655
Vpython
p656
asVbody
p657
V<p>In C#, I can say <code>x ?? ""</code>, which will give me x if x is not null, and the empty string if x is null. I've found it useful for working with databases. </p>\u000a\u000a<p>Is there a way to return a default value if Python finds None in a variable?</p>\u000a
p658
sVlast_activity_date
p659
I1453246338
sVaccepted_answer_id
p660
I13710667
sVcreation_date
p661
I1354650151
sVscore
p662
I86
sVlink
p663
Vhttp://stackoverflow.com/questions/13710631/is-there-shorthand-for-returning-a-default-value-if-none-in-python
p664
sVanswer_count
p665
I5
sVowner
p666
(dp667
Vuser_id
p668
I279719
sVprofile_image
p669
Vhttps://www.gravatar.com/avatar/0c6f083ecfe76eb92bb3e85c6e9857c7?s=128&d=identicon&r=PG
p670
sVuser_type
p671
Vregistered
p672
sVreputation
p673
I713
sVlink
p674
Vhttp://stackoverflow.com/users/279719/nfw
p675
sVaccept_rate
p676
I83
sVdisplay_name
p677
Vnfw
p678
ssVtitle
p679
VIs there shorthand for returning a default value if None in Python?
p680
sVquestion_id
p681
I13710631
sa(dp682
Vbody
p683
V<p>I have the following XML which I want to parse using Python's <code>ElementTree</code>:</p>\u000a\u000a<pre class="lang-xml prettyprint-override"><code>&lt;rdf:RDF xml:base="http://dbpedia.org/ontology/"\u000a    xmlns:rdf="http://www.w3.org/1999/02/22-rdf-syntax-ns#"\u000a    xmlns:owl="http://www.w3.org/2002/07/owl#"\u000a    xmlns:xsd="http://www.w3.org/2001/XMLSchema#"\u000a    xmlns:rdfs="http://www.w3.org/2000/01/rdf-schema#"\u000a    xmlns="http://dbpedia.org/ontology/"&gt;\u000a\u000a    &lt;owl:Class rdf:about="http://dbpedia.org/ontology/BasketballLeague"&gt;\u000a        &lt;rdfs:label xml:lang="en"&gt;basketball league&lt;/rdfs:label&gt;\u000a        &lt;rdfs:comment xml:lang="en"&gt;\u000a          a group of sports teams that compete against each other\u000a          in Basketball\u000a        &lt;/rdfs:comment&gt;\u000a    &lt;/owl:Class&gt;\u000a\u000a&lt;/rdf:RDF&gt;\u000a</code></pre>\u000a\u000a<p>I want to find all <code>owl:Class</code> tags and then extract the value of all <code>rdfs:label</code> instances inside them. I am using the following code:</p>\u000a\u000a<pre class="lang-py prettyprint-override"><code>tree = ET.parse("filename")\u000aroot = tree.getroot()\u000aroot.findall('owl:Class')\u000a</code></pre>\u000a\u000a<p>Because of the namespace, I am getting the following error.</p>\u000a\u000a<pre class="lang-py prettyprint-override"><code>SyntaxError: prefix 'owl' not found in prefix map\u000a</code></pre>\u000a\u000a<p>I tried reading the document at <a href="http://effbot.org/zone/element-namespaces.htm">http://effbot.org/zone/element-namespaces.htm</a> but I am still not able to get this working since the above XML has multiple nested namespaces.</p>\u000a\u000a<p>Kindly let me know how to change the code to find all the <code>owl:Class</code> tags.</p>\u000a
p684
sVis_answered
p685
I01
sVview_count
p686
I58770
sVtags
p687
(lp688
Vpython
p689
aVxml
p690
aVxml-parsing
p691
aVelementtree
p692
asVlast_activity_date
p693
I1487664953
sVanswer_count
p694
I5
sVcreation_date
p695
I1360757317
sVscore
p696
I86
sVlink
p697
Vhttp://stackoverflow.com/questions/14853243/parsing-xml-with-namespace-in-python-via-elementtree
p698
sVaccepted_answer_id
p699
I14853417
sVowner
p700
(dp701
Vuser_id
p702
I24949
sVprofile_image
p703
Vhttps://www.gravatar.com/avatar/18040800897df7eebd802fe40da96a2a?s=128&d=identicon&r=PG
p704
sVuser_type
p705
Vregistered
p706
sVreputation
p707
I6102
sVlink
p708
Vhttp://stackoverflow.com/users/24949/sudar
p709
sVaccept_rate
p710
I95
sVdisplay_name
p711
VSudar
p712
ssVtitle
p713
VParsing XML with namespace in Python via &#39;ElementTree&#39;
p714
sVlast_edit_date
p715
I1421161165
sVquestion_id
p716
I14853243
sa(dp717
Vbody
p718
V<p>List comprehensions are having some unexpected interactions with scoping. Is this the expected behaviour?</p>\u000a\u000a<p>I've got a method:</p>\u000a\u000a<pre><code>def leave_room(self, uid):\u000a  u = self.user_by_id(uid)\u000a  r = self.rooms[u.rid]\u000a\u000a  other_uids = [ouid for ouid in r.users_by_id.keys() if ouid != u.uid]\u000a  other_us = [self.user_by_id(uid) for uid in other_uids]\u000a\u000a  r.remove_user(uid) # OOPS! uid has been re-bound by the list comprehension above\u000a\u000a  # Interestingly, it's rebound to the last uid in the list, so the error only shows\u000a  # up when len &gt; 1\u000a</code></pre>\u000a\u000a<p>At the risk of whining, this is a brutal source of errors. As I write new code, I just occasionally find very weird errors due to rebinding -- even now that I know it's a problem. I need to make a rule like "always preface temp vars in list comprehensions with underscore", but even that's not fool-proof.</p>\u000a\u000a<p>The fact that there's this random time-bomb waiting kind of negates all the nice "ease of use" of list comprehensions.</p>\u000a
p719
sVis_answered
p720
I01
sVview_count
p721
I7363
sVtags
p722
(lp723
Vpython
p724
aVbinding
p725
aVlist-comprehension
p726
asVlast_activity_date
p727
I1448886301
sVanswer_count
p728
I4
sVcreation_date
p729
I1289941260
sVscore
p730
I86
sVlink
p731
Vhttp://stackoverflow.com/questions/4198906/python-list-comprehension-rebind-names-even-after-scope-of-comprehension-is-thi
p732
sVaccepted_answer_id
p733
I4199355
sVowner
p734
(dp735
Vuser_id
p736
I225142
sVprofile_image
p737
Vhttps://www.gravatar.com/avatar/df73716beab01049153b2982fa190372?s=128&d=identicon&r=PG
p738
sVuser_type
p739
Vregistered
p740
sVreputation
p741
I1066
sVlink
p742
Vhttp://stackoverflow.com/users/225142/jabavu-adams
p743
sVaccept_rate
p744
I25
sVdisplay_name
p745
VJabavu Adams
p746
ssVtitle
p747
VPython list comprehension rebind names even after scope of comprehension. Is this right?
p748
sVlast_edit_date
p749
I1295989446
sVquestion_id
p750
I4198906
sa(dp751
Vbody
p752
V<p>I have recently been learning Python and am dipping my hand into building a web-scraper.  It's nothing fancy at all; its only purpose is to get the data off of a betting website and have this data put into Excel.</p>\u000a\u000a<p>Most of the issues are solvable and I'm having a good little mess around. However I'm hitting a massive hurdle over one issue. If a site loads a table of horses and lists current betting prices this information is not in any source file. The clue is that this data is live sometimes, with the numbers being updated obviously from some remote server. The HTML on my PC simply has a hole where their servers are pushing through all the interesting data that I need.</p>\u000a\u000a<p>Now my experience with dynamic web content is low, so this thing is something I'm having trouble getting my head around. </p>\u000a\u000a<p>I think Java or Javascript is a key, this pops up often. </p>\u000a\u000a<p>The scraper is simply a odds comparison engine.  Some sites have APIs but I need this for those that don't. I'm using the scrapy library with Python 2.7</p>\u000a\u000a<p>I do apologize if this question is too open-ended. In short, my question is: how can scrapy be used to scrape this dynamic data so that I can use it?  So that I can scrape this betting odds data in real-time?</p>\u000a\u000a<p>Cheers people :)</p>\u000a
p753
sVis_answered
p754
I01
sVview_count
p755
I66379
sVtags
p756
(lp757
Vjavascript
p758
aVpython
p759
aVajax
p760
aVscreen-scraping
p761
aVscrapy
p762
asVlast_activity_date
p763
I1492969557
sVanswer_count
p764
I7
sVcreation_date
p765
I1324188191
sVscore
p766
I86
sVlink
p767
Vhttp://stackoverflow.com/questions/8550114/can-scrapy-be-used-to-scrape-dynamic-content-from-websites-that-are-using-ajax
p768
sVaccepted_answer_id
p769
I8594831
sVowner
p770
(dp771
Vuser_id
p772
I405763
sVprofile_image
p773
Vhttps://www.gravatar.com/avatar/6b82901f73413a8061f2d0784d7726b8?s=128&d=identicon&r=PG&f=1
p774
sVuser_type
p775
Vregistered
p776
sVreputation
p777
I1415
sVlink
p778
Vhttp://stackoverflow.com/users/405763/joseph
p779
sVaccept_rate
p780
I97
sVdisplay_name
p781
VJoseph
p782
ssVtitle
p783
VCan scrapy be used to scrape dynamic content from websites that are using AJAX?
p784
sVlast_edit_date
p785
I1324190835
sVquestion_id
p786
I8550114
sa(dp787
Vbody
p788
V<p>I'm trying to implement a closure in Python 2.6 and I need to access a nonlocal variable but it seems like this keyword is not available in python 2.x. How should one access nonlocal variables in closures in these versions of python?</p>\u000a
p789
sVis_answered
p790
I01
sVview_count
p791
I20738
sVtags
p792
(lp793
Vpython
p794
aVclosures
p795
aVpython-2.x
p796
aVpython-nonlocal
p797
asVlast_activity_date
p798
I1464712222
sVanswer_count
p799
I10
sVcreation_date
p800
I1278455471
sVscore
p801
I86
sVlink
p802
Vhttp://stackoverflow.com/questions/3190706/nonlocal-keyword-in-python-2-x
p803
sVowner
p804
(dp805
Vuser_id
p806
I385013
sVprofile_image
p807
Vhttps://www.gravatar.com/avatar/cf2e79eb6971da96eb26b3fc5c9514cd?s=128&d=identicon&r=PG
p808
sVuser_type
p809
Vunregistered
p810
sVreputation
p811
I431
sVlink
p812
Vhttp://stackoverflow.com/users/385013/adinsa
p813
sVdisplay_name
p814
Vadinsa
p815
ssVtitle
p816
Vnonlocal keyword in Python 2.x
p817
sVlast_edit_date
p818
I1372685962
sVquestion_id
p819
I3190706
sa(dp820
Vbody
p821
V<p>Is there a way to send a file using POST from a Python script?</p>\u000a
p822
sVis_answered
p823
I01
sVview_count
p824
I148897
sVtags
p825
(lp826
Vpython
p827
aVpost
p828
aVfile-upload
p829
aVhttp-post
p830
asVlast_activity_date
p831
I1490376375
sVanswer_count
p832
I8
sVcreation_date
p833
I1221527784
sVscore
p834
I86
sVlink
p835
Vhttp://stackoverflow.com/questions/68477/send-file-using-post-from-a-python-script
p836
sVowner
p837
(dp838
Vuser_id
p839
I4883
sVprofile_image
p840
Vhttps://www.gravatar.com/avatar/a92525f049e20db8f4ce3d62f3f0bb2b?s=128&d=identicon&r=PG
p841
sVuser_type
p842
Vregistered
p843
sVreputation
p844
I101137
sVlink
p845
Vhttp://stackoverflow.com/users/4883/readonly
p846
sVaccept_rate
p847
I82
sVdisplay_name
p848
VReadonly
p849
ssVtitle
p850
VSend file using POST from a Python script
p851
sVlast_edit_date
p852
I1430123303
sVquestion_id
p853
I68477
sa(dp854
Vbody
p855
V<p>How can I handle KeyboardInterrupt events with python's multiprocessing Pools? Here is a simple example:</p>\u000a\u000a<pre><code>from multiprocessing import Pool\u000afrom time import sleep\u000afrom sys import exit\u000a\u000adef slowly_square(i):\u000a    sleep(1)\u000a    return i*i\u000a\u000adef go():\u000a    pool = Pool(8)\u000a    try:\u000a        results = pool.map(slowly_square, range(40))\u000a    except KeyboardInterrupt:\u000a        # **** THIS PART NEVER EXECUTES. ****\u000a        pool.terminate()\u000a        print "You cancelled the program!"\u000a        sys.exit(1)\u000a    print "\u005cnFinally, here are the results: ", results\u000a\u000aif __name__ == "__main__":\u000a    go()\u000a</code></pre>\u000a\u000a<p>When running the code above, the <code>KeyboardInterrupt</code> gets raised when I press <code>^C</code>, but the process simply hangs at that point and I have to kill it externally.</p>\u000a\u000a<p>I want to be able to press <code>^C</code> at any time and cause all of the processes to exit gracefully.</p>\u000a
p856
sVis_answered
p857
I01
sVview_count
p858
I41561
sVtags
p859
(lp860
Vpython
p861
aVmultiprocessing
p862
aVpool
p863
aVkeyboardinterrupt
p864
asVlast_activity_date
p865
I1494838934
sVanswer_count
p866
I8
sVcreation_date
p867
I1252627175
sVscore
p868
I86
sVlink
p869
Vhttp://stackoverflow.com/questions/1408356/keyboard-interrupts-with-pythons-multiprocessing-pool
p870
sVaccepted_answer_id
p871
I1408476
sVowner
p872
(dp873
Vuser_id
p874
I121112
sVprofile_image
p875
Vhttps://www.gravatar.com/avatar/1225240b0ecd788ba80020c011679591?s=128&d=identicon&r=PG
p876
sVuser_type
p877
Vregistered
p878
sVreputation
p879
I9301
sVlink
p880
Vhttp://stackoverflow.com/users/121112/fragsworth
p881
sVaccept_rate
p882
I84
sVdisplay_name
p883
VFragsworth
p884
ssVtitle
p885
VKeyboard Interrupts with python&#39;s multiprocessing Pool
p886
sVquestion_id
p887
I1408356
sa(dp888
Vbody
p889
V<p>I want to get a string from a user, and then to manipulate it.</p>\u000a\u000a<pre><code>testVar = input("Ask user for something.")\u000a</code></pre>\u000a\u000a<p>Is there a way for testVar to be a string without me having the user type his response in quotes?  i.e. "Hello" vs. Hello</p>\u000a\u000a<p>If the user types in Hello, I get the following error:</p>\u000a\u000a<p>NameError: name 'Hello' is not defined</p>\u000a
p890
sVis_answered
p891
I01
sVprotected_date
p892
I1428125518
sVview_count
p893
I261860
sVtags
p894
(lp895
Vpython
p896
aVstring
p897
asVlast_activity_date
p898
I1485150182
sVaccepted_answer_id
p899
I4960216
sVcreation_date
p900
I1297357234
sVscore
p901
I86
sVlink
p902
Vhttp://stackoverflow.com/questions/4960208/python-2-7-getting-user-input-and-manipulating-as-string-without-quotations
p903
sVanswer_count
p904
I8
sVowner
p905
(dp906
Vuser_id
p907
I592499
sVprofile_image
p908
Vhttps://www.gravatar.com/avatar/e0fab9f98adb5644a2b97a8686014a02?s=128&d=identicon&r=PG&f=1
p909
sVuser_type
p910
Vregistered
p911
sVreputation
p912
I488
sVlink
p913
Vhttp://stackoverflow.com/users/592499/mike-lee
p914
sVaccept_rate
p915
I50
sVdisplay_name
p916
VMike Lee
p917
ssVtitle
p918
VPython 2.7 getting user input and manipulating as string without quotations
p919
sVlast_edit_date
p920
I1451162028
sVquestion_id
p921
I4960208
sa(dp922
Vbody
p923
V<p>What is the best way to retrieve mp3 metadata in python?  I've seen a couple frameworks out there, but I'm unsure as to which would be the best to use.... Any ideas?</p>\u000a
p924
sVis_answered
p925
I01
sVview_count
p926
I65340
sVtags
p927
(lp928
Vpython
p929
aVmp3
p930
aVmetadata
p931
asVlast_activity_date
p932
I1470906338
sVanswer_count
p933
I13
sVcreation_date
p934
I1218554160
sVscore
p935
I86
sVlink
p936
Vhttp://stackoverflow.com/questions/8948/accessing-mp3-meta-data-with-python
p937
sVowner
p938
(dp939
Vuser_id
p940
I145
sVprofile_image
p941
Vhttps://www.gravatar.com/avatar/112fa979b32463e3b54e098d1b3b0324?s=128&d=identicon&r=PG
p942
sVuser_type
p943
Vregistered
p944
sVreputation
p945
I10216
sVlink
p946
Vhttp://stackoverflow.com/users/145/akdom
p947
sVaccept_rate
p948
I33
sVdisplay_name
p949
Vakdom
p950
ssVtitle
p951
VAccessing mp3 Meta-Data with Python
p952
sVlast_edit_date
p953
I1360341182
sVquestion_id
p954
I8948
sa(dp955
Vbody
p956
V<p>I am interested in enabling code folding in Vim for Python code. I have noticed multiple ways to do so.</p>\u000a\u000a<p>Does anyone have a preferred way to do Python code folding in Vim? I.e, </p>\u000a\u000a<ul>\u000a<li>Do you have a particular Vim plugin that you use and like?</li>\u000a<li>Do you use manual folding or do you place markers in comments?</li>\u000a<li>Any other recommended ways to do code folding for Python in Vim?</li>\u000a</ul>\u000a
p957
sVis_answered
p958
I01
sVview_count
p959
I32251
sVtags
p960
(lp961
Vpython
p962
aVvim
p963
aVfolding
p964
asVlast_activity_date
p965
I1448545860
sVanswer_count
p966
I9
sVcreation_date
p967
I1228947045
sVscore
p968
I86
sVlink
p969
Vhttp://stackoverflow.com/questions/357785/what-is-the-recommended-way-to-use-vim-folding-for-python-code
p970
sVaccepted_answer_id
p971
I360634
sVowner
p972
(dp973
Vuser_id
p974
I3045
sVprofile_image
p975
Vhttps://www.gravatar.com/avatar/128510486651f7651644cc30956a5dfe?s=128&d=identicon&r=PG
p976
sVuser_type
p977
Vregistered
p978
sVreputation
p979
I8776
sVlink
p980
Vhttp://stackoverflow.com/users/3045/paul-d-eden
p981
sVaccept_rate
p982
I90
sVdisplay_name
p983
VPaul D. Eden
p984
ssVtitle
p985
VWhat is the recommended way to use Vim folding for Python code
p986
sVlast_edit_date
p987
I1341250149
sVquestion_id
p988
I357785
sa(dp989
Vbody
p990
V<p>I have a Python program that works with dictionaries a lot. I have to make copies of dictionaries thousands of times. I need a copy of both the keys and the associated contents. The copy will be edited and must not be linked to the original (e.g. changes in the copy must not affect the original.)</p>\u000a\u000a<p>Keys are Strings, Values are Integers (0/1).</p>\u000a\u000a<p>I currently use a simple way:</p>\u000a\u000a<pre><code>newDict = oldDict.copy()\u000a</code></pre>\u000a\u000a<p>Profiling my Code shows that the copy operation takes most of the time.</p>\u000a\u000a<p>Are there faster alternatives to the <code>dict.copy()</code> method? What would be fastest?</p>\u000a
p991
sVis_answered
p992
I01
sVview_count
p993
I77108
sVtags
p994
(lp995
Vpython
p996
aVperformance
p997
aVdictionary
p998
aVcopy
p999
asVlast_activity_date
p1000
I1442713987
sVanswer_count
p1001
I5
sVcreation_date
p1002
I1304364322
sVscore
p1003
I86
sVlink
p1004
Vhttp://stackoverflow.com/questions/5861498/fast-way-to-copy-dictionary-in-python
p1005
sVaccepted_answer_id
p1006
I5861694
sVowner
p1007
(dp1008
Vuser_id
p1009
I734994
sVprofile_image
p1010
Vhttps://www.gravatar.com/avatar/0c511ada95a51b253483ed03a9008475?s=128&d=identicon&r=PG
p1011
sVuser_type
p1012
Vunregistered
p1013
sVreputation
p1014
I433
sVlink
p1015
Vhttp://stackoverflow.com/users/734994/joern
p1016
sVdisplay_name
p1017
VJoern
p1018
ssVtitle
p1019
VFast way to copy dictionary in Python
p1020
sVlast_edit_date
p1021
I1375912139
sVquestion_id
p1022
I5861498
sa(dp1023
Vbody
p1024
V<p>I am running PyLint on a Python project. PyLint makes many complaints about being unable to find numpy members. How can I avoid this while avoiding skipping membership checks.</p>\u000a\u000a<p>From the code:</p>\u000a\u000a<pre><code>import numpy as np\u000a\u000aprint np.zeros([1, 4])\u000a</code></pre>\u000a\u000a<p>Which, when ran, I get the expected:</p>\u000a\u000a<blockquote>\u000a  <p>[[ 0.  0.  0.  0.]]</p>\u000a</blockquote>\u000a\u000a<p>However, pylint gives me this error:</p>\u000a\u000a<blockquote>\u000a  <p>E:  3, 6: Module 'numpy' has no 'zeros' member (no-member)</p>\u000a</blockquote>\u000a\u000a<p>For versions, I am using pylint 1.0.0 (astroid 1.0.1, common 0.60.0) and trying to work with numpy 1.8.0 .</p>\u000a
p1025
sVis_answered
p1026
I01
sVview_count
p1027
I22044
sVtags
p1028
(lp1029
Vpython
p1030
aVnumpy
p1031
aVpylint
p1032
asVlast_activity_date
p1033
I1474367159
sVanswer_count
p1034
I14
sVcreation_date
p1035
I1386880032
sVscore
p1036
I86
sVlink
p1037
Vhttp://stackoverflow.com/questions/20553551/how-do-i-get-pylint-to-recognize-numpy-members
p1038
sVowner
p1039
(dp1040
Vuser_id
p1041
I2947012
sVprofile_image
p1042
Vhttps://www.gravatar.com/avatar/a5eb32c01cad1faeb948f2415a45a340?s=128&d=identicon&r=PG
p1043
sVuser_type
p1044
Vregistered
p1045
sVreputation
p1046
I715
sVlink
p1047
Vhttp://stackoverflow.com/users/2947012/alphadelta14
p1048
sVaccept_rate
p1049
I43
sVdisplay_name
p1050
VAlphadelta14
p1051
ssVtitle
p1052
VHow do I get PyLint to recognize numpy members?
p1053
sVlast_edit_date
p1054
I1386880380
sVquestion_id
p1055
I20553551
sa(dp1056
Vbody
p1057
V<p>Consider:</p>\u000a\u000a<pre><code>&gt;&gt;&gt; lst = iter([1,2,3])\u000a&gt;&gt;&gt; next(lst)\u000a1\u000a&gt;&gt;&gt; next(lst)\u000a2\u000a</code></pre>\u000a\u000a<p>So, advancing the iterator is, as expected, handled by mutating that same object. </p>\u000a\u000a<p>This being the case, I would expect:</p>\u000a\u000a<pre><code>a = iter(list(range(10)))\u000afor i in a:\u000a   print(i)\u000a   next(a)\u000a</code></pre>\u000a\u000a<p>to skip every second element: the call to <code>next</code> should advance the iterator once, then the implicit call made by the loop should advance it a second time - and the result of this second call would be assigned to <code>i</code>. </p>\u000a\u000a<p>It doesn't. The loop prints <em>all</em> of the items in the list, without skipping any. </p>\u000a\u000a<p>My first thought was that this might happen because the loop calls <code>iter</code> on what it is passed, and this might give an independent iterator - this isn't the case, as we have <code>iter(a) is a</code>. </p>\u000a\u000a<p>So, why does <code>next</code> not appear to advance the iterator in this case?</p>\u000a
p1058
sVis_answered
p1059
I01
sVview_count
p1060
I88235
sVtags
p1061
(lp1062
Vpython
p1063
aVlist
p1064
aViterator
p1065
asVlast_activity_date
p1066
I1444147622
sVanswer_count
p1067
I5
sVcreation_date
p1068
I1369833466
sVscore
p1069
I86
sVlink
p1070
Vhttp://stackoverflow.com/questions/16814984/python-list-iterator-behavior-and-nextiterator
p1071
sVaccepted_answer_id
p1072
I16815056
sVowner
p1073
(dp1074
Vuser_id
p1075
I779200
sVprofile_image
p1076
Vhttps://www.gravatar.com/avatar/5b39b49e078967924f816af14a536994?s=128&d=identicon&r=PG
p1077
sVuser_type
p1078
Vregistered
p1079
sVreputation
p1080
I20088
sVlink
p1081
Vhttp://stackoverflow.com/users/779200/lvc
p1082
sVaccept_rate
p1083
I88
sVdisplay_name
p1084
Vlvc
p1085
ssVtitle
p1086
VPython list iterator behavior and next(iterator)
p1087
sVlast_edit_date
p1088
I1397689996
sVquestion_id
p1089
I16814984
sa(dp1090
Vbody
p1091
V<p>Is the list of Python reserved words and builtins available in a library?  I want to do something like:</p>\u000a\u000a<pre><code> from x.y import reserved_words_and_builtins\u000a\u000a if x in reserved_words_and_builtins:\u000a     x += '_'\u000a</code></pre>\u000a
p1092
sVis_answered
p1093
I01
sVview_count
p1094
I18787
sVtags
p1095
(lp1096
Vpython
p1097
asVlast_activity_date
p1098
I1487716648
sVanswer_count
p1099
I1
sVcreation_date
p1100
I1396618153
sVscore
p1101
I86
sVlink
p1102
Vhttp://stackoverflow.com/questions/22864221/is-the-list-of-python-reserved-words-and-builtins-available-in-a-library
p1103
sVaccepted_answer_id
p1104
I22864250
sVowner
p1105
(dp1106
Vuser_id
p1107
I99989
sVprofile_image
p1108
Vhttps://i.stack.imgur.com/oLbIt.jpg?s=128&g=1
p1109
sVuser_type
p1110
Vregistered
p1111
sVreputation
p1112
I12012
sVlink
p1113
Vhttp://stackoverflow.com/users/99989/neil-g
p1114
sVaccept_rate
p1115
I94
sVdisplay_name
p1116
VNeil G
p1117
ssVtitle
p1118
VIs the list of Python reserved words and builtins available in a library?
p1119
sVlast_edit_date
p1120
I1426278032
sVquestion_id
p1121
I22864221
sa(dp1122
Vbody
p1123
V<p>While profiling a piece of python code (<code>python 2.6</code> up to <code>3.2</code>), I discovered that the\u000a<code>str</code> method to convert an object (in my case an integer) to a string is almost an order of magnitude slower than using string formatting.</p>\u000a\u000a<p>Here is the benchmark</p>\u000a\u000a<pre><code>&gt;&gt;&gt; from timeit import Timer\u000a&gt;&gt;&gt; Timer('str(100000)').timeit()\u000a0.3145311339386332\u000a&gt;&gt;&gt; Timer('"%s"%100000').timeit()\u000a0.03803517023435887\u000a</code></pre>\u000a\u000a<p>Does anyone know why this is the case?\u000aAm I missing something?</p>\u000a
p1124
sVis_answered
p1125
I01
sVview_count
p1126
I2222
sVtags
p1127
(lp1128
Vpython
p1129
aVstring
p1130
aVperformance
p1131
aVpython-3.x
p1132
aVpython-2.7
p1133
asVlast_activity_date
p1134
I1337168867
sVanswer_count
p1135
I2
sVcreation_date
p1136
I1336639081
sVscore
p1137
I86
sVlink
p1138
Vhttp://stackoverflow.com/questions/10530315/str-performance-in-python
p1139
sVaccepted_answer_id
p1140
I10530415
sVowner
p1141
(dp1142
Vuser_id
p1143
I1318751
sVprofile_image
p1144
Vhttps://www.gravatar.com/avatar/da7e51aeede87801d273539b05f8977e?s=128&d=identicon&r=PG
p1145
sVuser_type
p1146
Vregistered
p1147
sVreputation
p1148
I667
sVlink
p1149
Vhttp://stackoverflow.com/users/1318751/luca-sbardella
p1150
sVdisplay_name
p1151
VLuca Sbardella
p1152
ssVtitle
p1153
Vstr performance in python
p1154
sVlast_edit_date
p1155
I1337168867
sVquestion_id
p1156
I10530315
sa(dp1157
Vbody
p1158
V<p>I'm not asking about Python's scoping rules; I understand generally <em>how</em> scoping works in Python for loops. My question is <em>why</em> the design decisions were made in this way. For example (no pun intended):</p>\u000a\u000a<pre><code>for foo in xrange(10):\u000a    bar = 2\u000aprint(foo, bar)\u000a</code></pre>\u000a\u000a<p>The above will print (9,2). </p>\u000a\u000a<p>This strikes me as weird: 'foo' is really just controlling the loop, and 'bar' was defined inside the loop. I can understand why it might be necessary for 'bar' to be accessible outside the loop (otherwise, for loops would have very limited functionality). What I don't understand is why it is necessary for the control variable to remain in scope after the loop exits. In my experience, it simply clutters the global namespace and makes it harder to track down errors that would be caught by interpreters in other languages.</p>\u000a
p1159
sVis_answered
p1160
I01
sVview_count
p1161
I35528
sVtags
p1162
(lp1163
Vpython
p1164
aVscope
p1165
asVlast_activity_date
p1166
I1396716043
sVanswer_count
p1167
I5
sVcreation_date
p1168
I1283277131
sVscore
p1169
I86
sVlink
p1170
Vhttp://stackoverflow.com/questions/3611760/scoping-in-python-for-loops
p1171
sVaccepted_answer_id
p1172
I3611987
sVowner
p1173
(dp1174
Vuser_id
p1175
I391126
sVprofile_image
p1176
Vhttps://www.gravatar.com/avatar/7f76d9302daa7fb40bab5e712d2af8b6?s=128&d=identicon&r=PG
p1177
sVuser_type
p1178
Vregistered
p1179
sVreputation
p1180
I4636
sVlink
p1181
Vhttp://stackoverflow.com/users/391126/chimeracoder
p1182
sVaccept_rate
p1183
I87
sVdisplay_name
p1184
Vchimeracoder
p1185
ssVtitle
p1186
VScoping in Python &#39;for&#39; loops
p1187
sVquestion_id
p1188
I3611760
sa(dp1189
Vclosed_date
p1190
I1329875827
sVis_answered
p1191
I01
sVclosed_reason
p1192
Vnot constructive
p1193
sVview_count
p1194
I16081
sVtags
p1195
(lp1196
Vpython
p1197
aVmocking
p1198
asVbody
p1199
V<p>What is your single favorite mocking library for Python?</p>\u000a
p1200
sVlast_activity_date
p1201
I1368093602
sVanswer_count
p1202
I7
sVcreation_date
p1203
I1221781067
sVscore
p1204
I86
sVlink
p1205
Vhttp://stackoverflow.com/questions/98053/what-is-your-favorite-python-mocking-library
p1206
sVowner
p1207
(dp1208
Vuser_id
p1209
I4766
sVprofile_image
p1210
Vhttps://www.gravatar.com/avatar/56dbb3799dd6358c3bee3468d0328046?s=128&d=identicon&r=PG
p1211
sVuser_type
p1212
Vregistered
p1213
sVreputation
p1214
I37486
sVlink
p1215
Vhttp://stackoverflow.com/users/4766/daryl-spitzer
p1216
sVaccept_rate
p1217
I96
sVdisplay_name
p1218
VDaryl Spitzer
p1219
ssVtitle
p1220
VWhat is your favorite Python mocking library?
p1221
sVquestion_id
p1222
I98053
sa(dp1223
Vbody
p1224
V<p>In <strong><code>numpy</code></strong> / <strong><code>scipy</code></strong>, is there an <strong>efficient</strong> way to get frequency counts for unique values in an array?</p>\u000a\u000a<p>Something along these lines:</p>\u000a\u000a<pre><code>x = array( [1,1,1,2,2,2,5,25,1,1] )\u000ay = freq_count( x )\u000aprint y\u000a\u000a&gt;&gt; [[1, 5], [2,3], [5,1], [25,1]]\u000a</code></pre>\u000a\u000a<p>( For you, R users out there, I'm basically looking for the <code>table()</code> function )</p>\u000a
p1225
sVis_answered
p1226
I01
sVview_count
p1227
I82992
sVtags
p1228
(lp1229
Vpython
p1230
aVarrays
p1231
aVperformance
p1232
aVnumpy
p1233
asVlast_activity_date
p1234
I1495094205
sVanswer_count
p1235
I12
sVcreation_date
p1236
I1337876118
sVscore
p1237
I85
sVlink
p1238
Vhttp://stackoverflow.com/questions/10741346/numpy-most-efficient-frequency-counts-for-unique-values-in-an-array
p1239
sVaccepted_answer_id
p1240
I10741692
sVowner
p1241
(dp1242
Vuser_id
p1243
I660664
sVprofile_image
p1244
Vhttps://www.gravatar.com/avatar/deb24537f2d27bd7fe6e17788cca7848?s=128&d=identicon&r=PG
p1245
sVuser_type
p1246
Vregistered
p1247
sVreputation
p1248
I4586
sVlink
p1249
Vhttp://stackoverflow.com/users/660664/abe
p1250
sVaccept_rate
p1251
I91
sVdisplay_name
p1252
VAbe
p1253
ssVtitle
p1254
Vnumpy: most efficient frequency counts for unique values in an array
p1255
sVlast_edit_date
p1256
I1438941085
sVquestion_id
p1257
I10741346
sa(dp1258
Vclosed_date
p1259
I1347010469
sVis_answered
p1260
I01
sVclosed_reason
p1261
Vnot constructive
p1262
sVview_count
p1263
I13960
sVtags
p1264
(lp1265
Vpython
p1266
aVruby-on-rails
p1267
aVruby
p1268
aVweb-frameworks
p1269
asVbody
p1270
V<p>Python and Ruby are usually considered to be close cousins (though with quite different historical baggage) with similar expressiveness and power. But some have argued that the immense success of the Rails framework really has a great deal to do with the language it is built on: Ruby itself. So why would Ruby be more suitable for such a framework than Python?</p>\u000a
p1271
sVlast_activity_date
p1272
I1428933650
sVaccepted_answer_id
p1273
I1099367
sVcreation_date
p1274
I1247072124
sVscore
p1275
I85
sVlink
p1276
Vhttp://stackoverflow.com/questions/1099305/why-is-ruby-more-suitable-for-rails-than-python
p1277
sVanswer_count
p1278
I13
sVowner
p1279
(dp1280
Vuser_id
p1281
I134381
sVprofile_image
p1282
Vhttps://www.gravatar.com/avatar/8202cb792bf63a6abdd4092b02801352?s=128&d=identicon&r=PG
p1283
sVuser_type
p1284
Vregistered
p1285
sVreputation
p1286
I1283
sVlink
p1287
Vhttp://stackoverflow.com/users/134381/victor-yan
p1288
sVaccept_rate
p1289
I75
sVdisplay_name
p1290
VVictor Yan
p1291
ssVtitle
p1292
VWhy is Ruby more suitable for Rails than Python?
p1293
sVlast_edit_date
p1294
I1307698806
sVquestion_id
p1295
I1099305
sa(dp1296
Vbody
p1297
V<p>How can i remove all characters except numbers from string?</p>\u000a
p1298
sVis_answered
p1299
I01
sVview_count
p1300
I97982
sVtags
p1301
(lp1302
Vpython
p1303
aVstring
p1304
asVlast_activity_date
p1305
I1472583824
sVanswer_count
p1306
I11
sVcreation_date
p1307
I1253448857
sVscore
p1308
I85
sVlink
p1309
Vhttp://stackoverflow.com/questions/1450897/python-removing-characters-except-digits-from-string
p1310
sVaccepted_answer_id
p1311
I1451407
sVowner
p1312
(dp1313
Vuser_id
p1314
I160386
sVprofile_image
p1315
Vhttps://www.gravatar.com/avatar/b6044f355342bb055fbb03804d9673e3?s=128&d=identicon&r=PG
p1316
sVuser_type
p1317
Vregistered
p1318
sVreputation
p1319
I2165
sVlink
p1320
Vhttp://stackoverflow.com/users/160386/jan-tojnar
p1321
sVaccept_rate
p1322
I85
sVdisplay_name
p1323
VJan Tojnar
p1324
ssVtitle
p1325
VPython: removing characters except digits from string
p1326
sVlast_edit_date
p1327
I1253449476
sVquestion_id
p1328
I1450897
sa(dp1329
Vbody
p1330
V<p>How do I get the probability of a string being similar to another string in Python?</p>\u000a\u000a<p>I want to get a decimal value like:</p>\u000a\u000a<pre><code>0.9 #means 90%\u000a</code></pre>\u000a\u000a<p>etc.</p>\u000a\u000a<p>Preferably with standard Python and library.</p>\u000a\u000a<p>e.g.</p>\u000a\u000a<pre><code>similar("Apple","Appel") #would have a high prob.\u000a\u000asimilar("Apple","Mango") #would have a lower prob.\u000a</code></pre>\u000a
p1331
sVis_answered
p1332
I01
sVview_count
p1333
I42222
sVtags
p1334
(lp1335
Vpython
p1336
aVprobability
p1337
asVlast_activity_date
p1338
I1491861750
sVanswer_count
p1339
I5
sVcreation_date
p1340
I1372577723
sVscore
p1341
I85
sVlink
p1342
Vhttp://stackoverflow.com/questions/17388213/find-the-similarity-percent-between-two-strings
p1343
sVaccepted_answer_id
p1344
I17388505
sVowner
p1345
(dp1346
Vuser_id
p1347
I2433215
sVprofile_image
p1348
Vhttps://www.gravatar.com/avatar/d6a5ecc75e7f531857144f54723bd481?s=128&d=identicon&r=PG
p1349
sVuser_type
p1350
Vregistered
p1351
sVreputation
p1352
I1728
sVlink
p1353
Vhttp://stackoverflow.com/users/2433215/tenstar
p1354
sVaccept_rate
p1355
I96
sVdisplay_name
p1356
Vtenstar
p1357
ssVtitle
p1358
VFind the similarity percent between two strings
p1359
sVlast_edit_date
p1360
I1477153462
sVquestion_id
p1361
I17388213
sa(dp1362
Vbody
p1363
V<p>I have a CSV dumpfile from a Blackberry IPD backup, created using IPDDump.\u000aThe date/time strings in here look something like this\u000a(where <code>EST</code> is an Australian time-zone):</p>\u000a\u000a<pre><code>Tue Jun 22 07:46:22 EST 2010\u000a</code></pre>\u000a\u000a<p>I need to be able to parse this date in Python. At first, I tried to use the <code>strptime()</code> function from datettime.</p>\u000a\u000a<pre><code>&gt;&gt;&gt; datetime.datetime.strptime('Tue Jun 22 12:10:20 2010 EST', '%a %b %d %H:%M:%S %Y %Z')\u000a</code></pre>\u000a\u000a<p>However, for some reason, the <code>datetime</code> object that comes back doesn't seem to have any <code>tzinfo</code> associated with it.</p>\u000a\u000a<p>I did read on <a href="http://www.enricozini.org/2009/debian/using-python-datetime/" rel="noreferrer">this page</a> that apparently <code>datetime.strptime</code> silently discards <code>tzinfo</code>, however, I checked the documentation, and I can't find anything to that effect documented <a href="http://docs.python.org/library/datetime.html" rel="noreferrer">here</a>.</p>\u000a\u000a<p>I have been able to get the date parsed using a third-party Python library, <a href="http://labix.org/python-dateutil" rel="noreferrer">dateutil</a>, however I'm still curious as to how I was using the in-built <code>strptime()</code> incorrectly?  Is there any way to get <code>strptime()</code> to play nicely with timezones?</p>\u000a
p1364
sVis_answered
p1365
I01
sVview_count
p1366
I72277
sVtags
p1367
(lp1368
Vpython
p1369
aVdatetime
p1370
aVtimezone
p1371
asVlast_activity_date
p1372
I1464996647
sVanswer_count
p1373
I3
sVcreation_date
p1374
I1279766528
sVscore
p1375
I85
sVlink
p1376
Vhttp://stackoverflow.com/questions/3305413/python-strptime-and-timezones
p1377
sVaccepted_answer_id
p1378
I3306887
sVowner
p1379
(dp1380
Vuser_id
p1381
I139137
sVprofile_image
p1382
Vhttps://www.gravatar.com/avatar/7c0fa8fb73fe4c951ea79b476007c77d?s=128&d=identicon&r=PG
p1383
sVuser_type
p1384
Vregistered
p1385
sVreputation
p1386
I5319
sVlink
p1387
Vhttp://stackoverflow.com/users/139137/victorhooi
p1388
sVaccept_rate
p1389
I97
sVdisplay_name
p1390
Vvictorhooi
p1391
ssVtitle
p1392
VPython strptime() and timezones?
p1393
sVlast_edit_date
p1394
I1405671842
sVquestion_id
p1395
I3305413
sa(dp1396
Vbody
p1397
V<p>Long story short: <code>pythonw.exe</code> does nothing, <code>python.exe</code> accepts nothing (which one should I use?)</p>\u000a\u000a<p>test.py:</p>\u000a\u000a<pre><code>print "a"\u000a</code></pre>\u000a\u000a<p>CMD window:</p>\u000a\u000a<pre><code>C:\u005cpath&gt;pythonw.exe test.py\u000a&lt;BLANK LINE&gt;\u000aC:\u005cpath&gt;\u000a\u000aC:\u005cpath&gt;python.exe test.py\u000a  File "C:\u005cpath\u005ctest.py", line 7\u000a    print "a"\u000a            ^\u000aSyntaxError: invalid syntax\u000a\u000aC:\u005cpath&gt;\u000a</code></pre>\u000a\u000a<p>Please tell me what I'm doing terrible wrong.</p>\u000a
p1398
sVis_answered
p1399
I01
sVview_count
p1400
I81806
sVtags
p1401
(lp1402
Vpython
p1403
aVpython-3.x
p1404
asVlast_activity_date
p1405
I1477546754
sVanswer_count
p1406
I5
sVcreation_date
p1407
I1331742607
sVscore
p1408
I85
sVlink
p1409
Vhttp://stackoverflow.com/questions/9705982/pythonw-exe-or-python-exe
p1410
sVaccepted_answer_id
p1411
I9706045
sVowner
p1412
(dp1413
Vuser_id
p1414
I945873
sVprofile_image
p1415
Vhttps://www.gravatar.com/avatar/d561be4c73996732e6639b5421abfb97?s=128&d=identicon&r=PG&f=1
p1416
sVuser_type
p1417
Vregistered
p1418
sVreputation
p1419
I2052
sVlink
p1420
Vhttp://stackoverflow.com/users/945873/itdoesntwork
p1421
sVaccept_rate
p1422
I93
sVdisplay_name
p1423
Vitdoesntwork
p1424
ssVtitle
p1425
Vpythonw.exe or python.exe?
p1426
sVlast_edit_date
p1427
I1363121616
sVquestion_id
p1428
I9705982
sa(dp1429
Vclosed_date
p1430
I1329483496
sVis_answered
p1431
I01
sVclosed_reason
p1432
Vnot constructive
p1433
sVview_count
p1434
I32646
sVtitle
p1435
VPython Vs. Ruby for Metaprogramming
p1436
sVtags
p1437
(lp1438
Vpython
p1439
aVruby
p1440
aVlisp
p1441
aVmetaprogramming
p1442
asVbody
p1443
V<p>I'm currently primarily a D programmer and am looking to add another language to my toolbox, preferably one that supports the metaprogramming hacks that just can't be done in a statically compiled language like D.  I've read up on Lisp a little and I would love to find a language that allows some of the cool stuff that Lisp does, but without the strange syntax, etc. of Lisp.  I don't want to start a language flame war, and I'm sure both Ruby and Python have their tradeoffs, so I'll list what's important to me personally.  Please tell me whether Ruby, Python, or some other language would be best for me.</p>\u000a\u000a<p>Important:</p>\u000a\u000a<ol>\u000a<li>Good metaprogramming.  Ability to create classes, methods, functions, etc. at runtime.  Preferably, minimal distinction between code and data, Lisp style.</li>\u000a<li>Nice, clean, sane syntax and consistent, intuitive semantics.  Basically a well thought-out, fun to use, modern language.</li>\u000a<li>Multiple paradigms.  No one paradigm is right for every project, or even every small subproblem within a project.</li>\u000a<li>An interesting language that actually affects the way one thinks about programming.</li>\u000a</ol>\u000a\u000a<p>Somewhat important:</p>\u000a\u000a<ol>\u000a<li>Performance.  It would be nice if performance was decent, but when performance is a real priority, I'll use D instead.</li>\u000a<li>Well-documented.  </li>\u000a</ol>\u000a\u000a<p>Not important:</p>\u000a\u000a<ol>\u000a<li>Community size, library availability, etc.  None of these are characteristics of the language itself, and all can change very quickly.</li>\u000a<li>Job availability.  I am not a full-time, professional programmer.  I am a grad student and programming is tangentially relevant to my research.</li>\u000a<li>Any features that are primarily designed with very large projects worked on by a million code monkeys in mind.</li>\u000a</ol>\u000a
p1444
sVlast_activity_date
p1445
I1484515217
sVaccepted_answer_id
p1446
I144864
sVcreation_date
p1447
I1222555815
sVscore
p1448
I85
sVcommunity_owned_date
p1449
I1307687867
sVanswer_count
p1450
I31
sVowner
p1451
(dp1452
Vuser_id
p1453
I23903
sVprofile_image
p1454
Vhttps://www.gravatar.com/avatar/f29924841336dd32eb9831999c73c203?s=128&d=identicon&r=PG
p1455
sVuser_type
p1456
Vregistered
p1457
sVreputation
p1458
I41420
sVlink
p1459
Vhttp://stackoverflow.com/users/23903/dsimcha
p1460
sVaccept_rate
p1461
I67
sVdisplay_name
p1462
Vdsimcha
p1463
ssVlink
p1464
Vhttp://stackoverflow.com/questions/144661/python-vs-ruby-for-metaprogramming
p1465
sVquestion_id
p1466
I144661
sa(dp1467
Vclosed_date
p1468
I1456685909
sVis_answered
p1469
I01
sVclosed_reason
p1470
Vduplicate
p1471
sVview_count
p1472
I74924
sVtags
p1473
(lp1474
Vpython
p1475
asVbody
p1476
V<p>I am working on Windows. I want to execute a function <em>foo()</em> every 10 seconds.</p>\u000a\u000a<p>How do I do this?</p>\u000a
p1477
sVlast_activity_date
p1478
I1456820798
sVaccepted_answer_id
p1479
I8600301
sVcreation_date
p1480
I1324535222
sVscore
p1481
I85
sVlink
p1482
Vhttp://stackoverflow.com/questions/8600161/executing-periodic-actions-in-python
p1483
sVanswer_count
p1484
I9
sVowner
p1485
(dp1486
Vuser_id
p1487
I204623
sVprofile_image
p1488
Vhttps://www.gravatar.com/avatar/0b3fdff02d89357f6a19a3ea6bec0b8b?s=128&d=identicon&r=PG
p1489
sVuser_type
p1490
Vregistered
p1491
sVreputation
p1492
I8106
sVlink
p1493
Vhttp://stackoverflow.com/users/204623/bruce
p1494
sVaccept_rate
p1495
I85
sVdisplay_name
p1496
VBruce
p1497
ssVtitle
p1498
VExecuting periodic actions in Python
p1499
sVlast_edit_date
p1500
I1368899349
sVquestion_id
p1501
I8600161
sa(dp1502
Vbody
p1503
V<p>How to get the code of the headers through urllib?</p>\u000a
p1504
sVis_answered
p1505
I01
sVview_count
p1506
I68300
sVtags
p1507
(lp1508
Vpython
p1509
aVurllib
p1510
aVhttp-status-codes
p1511
asVlast_activity_date
p1512
I1461777618
sVanswer_count
p1513
I4
sVcreation_date
p1514
I1258072514
sVscore
p1515
I85
sVlink
p1516
Vhttp://stackoverflow.com/questions/1726402/in-python-how-do-i-use-urllib-to-see-if-a-website-is-404-or-200
p1517
sVaccepted_answer_id
p1518
I1726431
sVowner
p1519
(dp1520
Vuser_id
p1521
I179736
sVprofile_image
p1522
Vhttps://www.gravatar.com/avatar/e77327f7ef0c6213525de4dcea19b200?s=128&d=identicon&r=PG
p1523
sVuser_type
p1524
Vregistered
p1525
sVreputation
p1526
I49962
sVlink
p1527
Vhttp://stackoverflow.com/users/179736/timex
p1528
sVaccept_rate
p1529
I82
sVdisplay_name
p1530
VTIMEX
p1531
ssVtitle
p1532
VIn Python, how do I use urllib to see if a website is 404 or 200?
p1533
sVlast_edit_date
p1534
I1258074585
sVquestion_id
p1535
I1726402
sa(dp1536
Vbody
p1537
V<p>You know how in Linux when you try some Sudo stuff it tells you to enter the password and, as you type, nothing is shown in the terminal window (the password is not shown)?</p>\u000a\u000a<p>Is there a way to do that in Python? I'm working on a script that requires so sensitive info and would like for it to be hidden when I'm typing it. </p>\u000a\u000a<p>In other words, I want to get the password from the user without showing the password. </p>\u000a
p1538
sVis_answered
p1539
I01
sVview_count
p1540
I61611
sVtags
p1541
(lp1542
Vpython
p1543
aVcommand-line
p1544
aVpasswords
p1545
aVhidden
p1546
asVlast_activity_date
p1547
I1493537385
sVanswer_count
p1548
I5
sVcreation_date
p1549
I1328738617
sVscore
p1550
I85
sVlink
p1551
Vhttp://stackoverflow.com/questions/9202224/getting-command-line-password-input-in-python
p1552
sVaccepted_answer_id
p1553
I9202236
sVowner
p1554
(dp1555
Vuser_id
p1556
I958083
sVprofile_image
p1557
Vhttps://www.gravatar.com/avatar/b71f337a50d5197ecd23bd7a709b0cbf?s=128&d=identicon&r=PG
p1558
sVuser_type
p1559
Vregistered
p1560
sVreputation
p1561
I1910
sVlink
p1562
Vhttp://stackoverflow.com/users/958083/nacht
p1563
sVaccept_rate
p1564
I86
sVdisplay_name
p1565
VNacht
p1566
ssVtitle
p1567
VGetting command-line password input in Python
p1568
sVlast_edit_date
p1569
I1488058811
sVquestion_id
p1570
I9202224
sa(dp1571
Vbody
p1572
V<p>I need to round a float to be displayed in a UI.  E.g, to one significant figure:</p>\u000a\u000a<p>1234 -> 1000</p>\u000a\u000a<p>0.12 -> 0.1</p>\u000a\u000a<p>0.012 -> 0.01</p>\u000a\u000a<p>0.062 -> 0.06</p>\u000a\u000a<p>6253 -> 6000</p>\u000a\u000a<p>1999 -> 2000</p>\u000a\u000a<p>Is there a nice way to do this using the Python library, or do I have to write it myself?</p>\u000a
p1573
sVis_answered
p1574
I01
sVview_count
p1575
I81548
sVtags
p1576
(lp1577
Vpython
p1578
aVmath
p1579
aVrounding
p1580
asVlast_activity_date
p1581
I1489766502
sVanswer_count
p1582
I7
sVcreation_date
p1583
I1280969284
sVscore
p1584
I85
sVlink
p1585
Vhttp://stackoverflow.com/questions/3410976/how-to-round-a-number-to-significant-figures-in-python
p1586
sVaccepted_answer_id
p1587
I3411435
sVowner
p1588
(dp1589
Vuser_id
p1590
I303927
sVprofile_image
p1591
Vhttps://www.gravatar.com/avatar/eb9bf49a2ebfa39f79cf4b2f43949787?s=128&d=identicon&r=PG
p1592
sVuser_type
p1593
Vregistered
p1594
sVreputation
p1595
I4825
sVlink
p1596
Vhttp://stackoverflow.com/users/303927/peter-graham
p1597
sVaccept_rate
p1598
I73
sVdisplay_name
p1599
VPeter Graham
p1600
ssVtitle
p1601
VHow to round a number to significant figures in Python
p1602
sVlast_edit_date
p1603
I1280975841
sVquestion_id
p1604
I3410976
sa(dp1605
Vbody
p1606
V<p>Per <a href="http://stackoverflow.com/questions/6652819/selenium-firefoxprofile-fails-with-not-found-exception">this previous question</a> I updated Selenium to version 2.0.1\u000aBut now I have another error, even when the profile files exist under <code>/tmp/webdriver-py-profilecopy</code>: </p>\u000a\u000a<pre>\u000a  File "/home/sultan/Repository/Django/monitor/app/request.py", line 236, in perform\u000a    browser = Firefox(profile)\u000a  File "/usr/local/lib/python2.7/dist-packages/selenium/webdriver/firefox/webdriver.py", line 46, in __init__\u000a    self.binary, timeout),\u000a  File "/usr/local/lib/python2.7/dist-packages/selenium/webdriver/firefox/extension_connection.py", line 46, in __init__\u000a    self.binary.launch_browser(self.profile)\u000a  File "/usr/local/lib/python2.7/dist-packages/selenium/webdriver/firefox/firefox_binary.py", line 44, in launch_browser\u000a    self._wait_until_connectable() \u000a  File "/usr/local/lib/python2.7/dist-packages/selenium/webdriver/firefox/firefox_binary.py", line 87, in _wait_until_connectable\u000a    raise WebDriverException("Can't load the profile. Profile Dir : %s" % self.profile.path)\u000aselenium.common.exceptions.WebDriverException: Can't load the profile. Profile Dir : /tmp/webdriver-py-profilecopy\u000a</pre>\u000a\u000a<p>What is wrong? How can I resolve this issue? </p>\u000a
p1607
sVis_answered
p1608
I01
sVview_count
p1609
I59070
sVtags
p1610
(lp1611
Vpython
p1612
aVfirefox
p1613
aVselenium
p1614
aVselenium-webdriver
p1615
aVwebdriver
p1616
asVlast_activity_date
p1617
I1476810076
sVanswer_count
p1618
I9
sVcreation_date
p1619
I1310573236
sVscore
p1620
I85
sVlink
p1621
Vhttp://stackoverflow.com/questions/6682009/selenium-firefoxprofile-exception-cant-load-the-profile
p1622
sVaccepted_answer_id
p1623
I6710264
sVowner
p1624
(dp1625
Vuser_id
p1626
I256465
sVprofile_image
p1627
Vhttps://i.stack.imgur.com/tga4A.jpg?s=128&g=1
p1628
sVuser_type
p1629
Vregistered
p1630
sVreputation
p1631
I2450
sVlink
p1632
Vhttp://stackoverflow.com/users/256465/sultan
p1633
sVaccept_rate
p1634
I93
sVdisplay_name
p1635
Vsultan
p1636
ssVtitle
p1637
VSelenium: FirefoxProfile exception Can&#39;t load the profile
p1638
sVlast_edit_date
p1639
I1423012342
sVquestion_id
p1640
I6682009
sa(dp1641
Vclosed_date
p1642
I1478985453
sVis_answered
p1643
I01
sVclosed_reason
p1644
Vduplicate
p1645
sVview_count
p1646
I119304
sVtags
p1647
(lp1648
Vpython
p1649
aViteration
p1650
aVrange
p1651
asVbody
p1652
V<p>I'm talking about doing something like:</p>\u000a\u000a<pre><code>for(i=n; i&gt;=1; --i) {\u000a   //do something with i\u000a}\u000a</code></pre>\u000a\u000a<p>I can think of some ways to do so in python (creating a list of <code>range(1,n+1)</code> and reverse it, using <code>while</code> and <code>--i</code>, ...) but I wondered if there's a more elegant way to do it. Is there?</p>\u000a\u000a<p>EDIT:\u000aSome suggested I use xrange() instead of range() since range returns a list while xrange returns an iterator. But in Python 3 (which I happen to use) range() returns an iterator and xrange doesn't exist.</p>\u000a
p1653
sVlast_activity_date
p1654
I1478985941
sVaccepted_answer_id
p1655
I3476768
sVcreation_date
p1656
I1281702308
sVscore
p1657
I85
sVlink
p1658
Vhttp://stackoverflow.com/questions/3476732/how-to-loop-backwards-in-python
p1659
sVanswer_count
p1660
I5
sVowner
p1661
(dp1662
Vuser_id
p1663
I110028
sVprofile_image
p1664
Vhttps://www.gravatar.com/avatar/089adf42acb1317826e9c08c3f06d904?s=128&d=identicon&r=PG
p1665
sVuser_type
p1666
Vregistered
p1667
sVreputation
p1668
I18857
sVlink
p1669
Vhttp://stackoverflow.com/users/110028/snakile
p1670
sVaccept_rate
p1671
I86
sVdisplay_name
p1672
Vsnakile
p1673
ssVtitle
p1674
VHow to loop backwards in python?
p1675
sVlast_edit_date
p1676
I1281717436
sVquestion_id
p1677
I3476732
sa(dp1678
Vbody
p1679
V<pre><code>t = e['updated_parsed']\u000adt = datetime.datetime(t[0],t[1],t[2],t[3],t[4],t[5],t[6]\u000aprint dt\u000a&gt;&gt;&gt;2010-01-28 08:39:49.000003\u000a</code></pre>\u000a\u000a<p>How do I turn that into a string?:</p>\u000a\u000a<pre><code>"January 28, 2010"\u000a</code></pre>\u000a
p1680
sVis_answered
p1681
I01
sVview_count
p1682
I131488
sVtags
p1683
(lp1684
Vpython
p1685
aVdatetime
p1686
aVstring-formatting
p1687
asVlast_activity_date
p1688
I1491554311
sVanswer_count
p1689
I4
sVcreation_date
p1690
I1264716507
sVscore
p1691
I85
sVlink
p1692
Vhttp://stackoverflow.com/questions/2158347/how-do-i-turn-a-python-datetime-into-a-string-with-readable-format-date
p1693
sVaccepted_answer_id
p1694
I2158454
sVowner
p1695
(dp1696
Vuser_id
p1697
I179736
sVprofile_image
p1698
Vhttps://www.gravatar.com/avatar/e77327f7ef0c6213525de4dcea19b200?s=128&d=identicon&r=PG
p1699
sVuser_type
p1700
Vregistered
p1701
sVreputation
p1702
I49962
sVlink
p1703
Vhttp://stackoverflow.com/users/179736/timex
p1704
sVaccept_rate
p1705
I82
sVdisplay_name
p1706
VTIMEX
p1707
ssVtitle
p1708
VHow do I turn a python datetime into a string, with readable format date?
p1709
sVlast_edit_date
p1710
I1264717205
sVquestion_id
p1711
I2158347
sa(dp1712
Vbody
p1713
V<p>I am using below referred code to edit a csv using Python. Functions called in the code form upper part of the code. </p>\u000a\u000a<p>Problem: I want the below referred code to start editing the csv from 2nd row, I want it to exclude 1st row which contains headers. Right now it is applying the functions on 1st row only and my header row is getting changed.</p>\u000a\u000a<pre><code>in_file = open("tmob_notcleaned.csv", "rb")\u000areader = csv.reader(in_file)\u000aout_file = open("tmob_cleaned.csv", "wb")\u000awriter = csv.writer(out_file)\u000arow = 1\u000afor row in reader:\u000a    row[13] = handle_color(row[10])[1].replace(" - ","").strip()\u000a    row[10] = handle_color(row[10])[0].replace("-","").replace("(","").replace(")","").strip()\u000a    row[14] = handle_gb(row[10])[1].replace("-","").replace(" ","").replace("GB","").strip()\u000a    row[10] = handle_gb(row[10])[0].strip()\u000a    row[9] = handle_oem(row[10])[1].replace("Blackberry","RIM").replace("TMobile","T-Mobile").strip()\u000a    row[15] = handle_addon(row[10])[1].strip()\u000a    row[10] = handle_addon(row[10])[0].replace(" by","").replace("FREE","").strip()\u000a    writer.writerow(row)\u000ain_file.close()    \u000aout_file.close()\u000a</code></pre>\u000a\u000a<p>I tried to solve this problem by initializing <code>row</code> variable to <code>1</code> but it didn't work.</p>\u000a\u000a<p>Please help me in solving this issue.</p>\u000a
p1714
sVis_answered
p1715
I01
sVview_count
p1716
I93619
sVtags
p1717
(lp1718
Vpython
p1719
aVpython-2.7
p1720
aVcsv
p1721
asVlast_activity_date
p1722
I1488159501
sVanswer_count
p1723
I3
sVcreation_date
p1724
I1357818878
sVscore
p1725
I85
sVlink
p1726
Vhttp://stackoverflow.com/questions/14257373/skip-the-headers-when-editing-a-csv-file-using-python
p1727
sVaccepted_answer_id
p1728
I14257599
sVowner
p1729
(dp1730
Vdisplay_name
p1731
Vuser1915050
p1732
sVuser_type
p1733
Vdoes_not_exist
p1734
ssVtitle
p1735
VSkip the headers when editing a csv file using Python
p1736
sVlast_edit_date
p1737
I1413673651
sVquestion_id
p1738
I14257373
sa(dp1739
Vbody
p1740
V<p>I have a data frame from which I remove some rows. As a result, I get a data frame in which index is something like that: <code>[1,5,6,10,11]</code> and I would like to reset it to <code>[0,1,2,3,4]</code>. How can I do it?</p>\u000a\u000a<p><strong>ADDED</strong></p>\u000a\u000a<p>The following seems to work:</p>\u000a\u000a<pre><code>df = df.reset_index()\u000adel df['index']\u000a</code></pre>\u000a\u000a<p>The following does not work:</p>\u000a\u000a<pre><code>df = df.reindex()\u000a</code></pre>\u000a
p1741
sVis_answered
p1742
I01
sVview_count
p1743
I76807
sVtags
p1744
(lp1745
Vpython
p1746
aVindexing
p1747
aVpandas
p1748
aVdataframe
p1749
asVlast_activity_date
p1750
I1490487028
sVanswer_count
p1751
I1
sVcreation_date
p1752
I1386666775
sVscore
p1753
I85
sVlink
p1754
Vhttp://stackoverflow.com/questions/20490274/how-to-reset-index-in-a-pandas-data-frame
p1755
sVaccepted_answer_id
p1756
I20491748
sVowner
p1757
(dp1758
Vuser_id
p1759
I245549
sVprofile_image
p1760
Vhttps://www.gravatar.com/avatar/eec7e09c7d0731a44e91b403dd0bc347?s=128&d=identicon&r=PG
p1761
sVuser_type
p1762
Vregistered
p1763
sVreputation
p1764
I17231
sVlink
p1765
Vhttp://stackoverflow.com/users/245549/roman
p1766
sVaccept_rate
p1767
I66
sVdisplay_name
p1768
VRoman
p1769
ssVtitle
p1770
VHow to reset index in a pandas data frame?
p1771
sVlast_edit_date
p1772
I1386667579
sVquestion_id
p1773
I20490274
sa(dp1774
Vbody
p1775
V<p>Optparse, the old version just ignores all unrecognised arguments and carries on.  In most situations, this isn't ideal and was changed in argparse.  But there are a few situations where you want to ignore any unrecognised arguments and parse the ones you've specified.</p>\u000a\u000a<p>For example:</p>\u000a\u000a<pre><code>parser = argparse.ArgumentParser()\u000aparser.add_argument('--foo', dest="foo")\u000aparser.parse_args()\u000a\u000a$python myscript.py --foo 1 --bar 2\u000aerror: unrecognized arguments: --bar\u000a</code></pre>\u000a\u000a<p>Is there anyway to overwrite this? </p>\u000a
p1776
sVis_answered
p1777
I01
sVview_count
p1778
I22056
sVtags
p1779
(lp1780
Vpython
p1781
aVargparse
p1782
aVoptparse
p1783
asVlast_activity_date
p1784
I1411361478
sVanswer_count
p1785
I3
sVcreation_date
p1786
I1349868157
sVscore
p1787
I85
sVlink
p1788
Vhttp://stackoverflow.com/questions/12818146/python-argparse-ignore-unrecognised-arguments
p1789
sVaccepted_answer_id
p1790
I12818237
sVowner
p1791
(dp1792
Vuser_id
p1793
I734463
sVprofile_image
p1794
Vhttps://i.stack.imgur.com/efw4Z.jpg?s=128&g=1
p1795
sVuser_type
p1796
Vregistered
p1797
sVreputation
p1798
I4606
sVlink
p1799
Vhttp://stackoverflow.com/users/734463/jdborg
p1800
sVaccept_rate
p1801
I78
sVdisplay_name
p1802
Vjdborg
p1803
ssVtitle
p1804
VPython argparse ignore unrecognised arguments
p1805
sVquestion_id
p1806
I12818146
sa(dp1807
Vbody
p1808
V<p>I've been searching for quite a while with no success. My project isn't using Django, is there a simple way to serialize App Engine models (google.appengine.ext.db.Model) into JSON or do I need to write my own serializer?  </p>\u000a\u000a<p><strong>Model:</strong></p>\u000a\u000a<pre><code>class Photo(db.Model):\u000a    filename = db.StringProperty()\u000a    title = db.StringProperty()\u000a    description = db.StringProperty(multiline=True)\u000a    date_taken = db.DateTimeProperty()\u000a    date_uploaded = db.DateTimeProperty(auto_now_add=True)\u000a    album = db.ReferenceProperty(Album, collection_name='photo')\u000a</code></pre>\u000a
p1809
sVis_answered
p1810
I01
sVview_count
p1811
I33734
sVtags
p1812
(lp1813
Vpython
p1814
aVjson
p1815
aVgoogle-app-engine
p1816
asVlast_activity_date
p1817
I1475088297
sVanswer_count
p1818
I13
sVcreation_date
p1819
I1254920477
sVscore
p1820
I85
sVlink
p1821
Vhttp://stackoverflow.com/questions/1531501/json-serialization-of-google-app-engine-models
p1822
sVaccepted_answer_id
p1823
I1532035
sVowner
p1824
(dp1825
Vuser_id
p1826
I111677
sVprofile_image
p1827
Vhttps://www.gravatar.com/avatar/85dc1365162ed85e6132081551421032?s=128&d=identicon&r=PG
p1828
sVuser_type
p1829
Vregistered
p1830
sVreputation
p1831
I491
sVlink
p1832
Vhttp://stackoverflow.com/users/111677/user111677
p1833
sVdisplay_name
p1834
Vuser111677
p1835
ssVtitle
p1836
VJSON serialization of Google App Engine models
p1837
sVlast_edit_date
p1838
I1475088297
sVquestion_id
p1839
I1531501
sa(dp1840
Vbody
p1841
V<p>The question I'm about to ask seems to be a duplicate of <a href="http://stackoverflow.com/questions/674304/pythons-use-of-new-and-init">Python&#39;s use of __new__ and __init__?</a>, but regardless, it's still unclear to me exactly what the practical difference between <code>__new__</code> and <code>__init__</code> is.</p>\u000a\u000a<p>Before you rush to tell me that <code>__new__</code> is for creating objects and <code>__init__</code> is for initializing objects, let me be clear: <strong>I get that.</strong>  In fact, that distinction is quite natural to me, since I have experience in C++ where we have <a href="http://stackoverflow.com/questions/222557/cs-placement-new">placement new</a>, which similarly separates object allocation from initialization.  </p>\u000a\u000a<p>The <a href="http://docs.python.org/release/3.0.1/extending/newtypes.html" rel="noreferrer">Python C API tutorial</a> explains it like this:</p>\u000a\u000a<blockquote>\u000a  <p>The new member is responsible for\u000a  creating (as opposed to initializing)\u000a  objects of the type. It is exposed in\u000a  Python as the <code>__new__()</code> method. ...\u000a  <strong>One reason to implement a new method is to assure the initial values of\u000a  instance variables</strong>.</p>\u000a</blockquote>\u000a\u000a<p>So, yeah - I <em>get</em> what <code>__new__</code> does, but despite this, I <em>still</em> don't understand why it's useful in Python.  The example given says that <code>__new__</code> might be useful if you want to "assure the initial values of instance variables". Well, isn't that exactly what <code>__init__</code> will do?  </p>\u000a\u000a<p>In the C API tutorial, an example is shown where a new Type (called a "Noddy") is created, and the Type's <code>__new__</code> function is defined.  The Noddy type contains a string member called <code>first</code>, and this string member is initialized to an empty string like so:</p>\u000a\u000a<pre><code>static PyObject * Noddy_new(PyTypeObject *type, PyObject *args, PyObject *kwds)\u000a{\u000a    .....\u000a\u000a    self-&gt;first = PyString_FromString("");\u000a    if (self-&gt;first == NULL)\u000a    {\u000a       Py_DECREF(self);\u000a       return NULL;\u000a    }\u000a\u000a    .....\u000a}\u000a</code></pre>\u000a\u000a<p>Note that without the <code>__new__</code> method defined here, we'd have to use <code>PyType_GenericNew</code>, which simply initializes all of the instance variable members to NULL.  So the only benefit of the <code>__new__</code> method is that the instance variable will start out as an empty string, as opposed to NULL.  <strong>But why is this ever useful, since if we cared about making sure our instance variables are initialized to some default value, we could have just done that in the <code>__init__</code> method?</strong> </p>\u000a
p1842
sVis_answered
p1843
I01
sVview_count
p1844
I18088
sVtags
p1845
(lp1846
Vpython
p1847
aVc
p1848
aVpython-c-api
p1849
asVlast_activity_date
p1850
I1492005299
sVanswer_count
p1851
I5
sVcreation_date
p1852
I1296536859
sVscore
p1853
I85
sVlink
p1854
Vhttp://stackoverflow.com/questions/4859129/python-and-python-c-api-new-versus-init
p1855
sVaccepted_answer_id
p1856
I4859181
sVowner
p1857
(dp1858
Vuser_id
p1859
I469408
sVprofile_image
p1860
Vhttps://www.gravatar.com/avatar/7d338ab538a3892a908027bcb751bce2?s=128&d=identicon&r=PG
p1861
sVuser_type
p1862
Vregistered
p1863
sVreputation
p1864
I8368
sVlink
p1865
Vhttp://stackoverflow.com/users/469408/channel72
p1866
sVaccept_rate
p1867
I77
sVdisplay_name
p1868
VChannel72
p1869
ssVtitle
p1870
VPython (and Python C API): __new__ versus __init__
p1871
sVlast_edit_date
p1872
I1453212273
sVquestion_id
p1873
I4859129
sa(dp1874
Vbody
p1875
V<p>I'm building a support ticket tracking app and have a few models I'd like to create from one page. Tickets belong to a Customer via a ForeignKey. Notes belong to Tickets via a ForeignKey as well. I'd like to have the option of selecting a Customer (that's a whole separate project) OR creating a new Customer, then creating a Ticket and finally creating a Note assigned to the new ticket.</p>\u000a\u000a<p>Since I'm fairly new to Django, I tend to work iteratively, trying out new features each time. I've played with ModelForms but I want to hide some of the fields and do some complex validation. It seems like the level of control I'm looking for either requires formsets or doing everything by hand, complete with a tedious, hand-coded template page, which I'm trying to avoid.</p>\u000a\u000a<p>Is there some lovely feature I'm missing? Does someone have a good reference or example for using formsets? I spent a whole weekend on the API docs for them and I'm still clueless. Is it a design issue if I break down and hand-code everything?</p>\u000a
p1876
sVis_answered
p1877
I01
sVview_count
p1878
I57298
sVtags
p1879
(lp1880
Vpython
p1881
aVdjango
p1882
aVdesign
p1883
aVdjango-forms
p1884
asVlast_activity_date
p1885
I1445256343
sVanswer_count
p1886
I7
sVcreation_date
p1887
I1235134226
sVscore
p1888
I85
sVlink
p1889
Vhttp://stackoverflow.com/questions/569468/django-multiple-models-in-one-template-using-forms
p1890
sVowner
p1891
(dp1892
Vuser_id
p1893
I66422
sVprofile_image
p1894
Vhttps://www.gravatar.com/avatar/e1a0d29880a23a2595eb0270446e2eb9?s=128&d=identicon&r=PG
p1895
sVuser_type
p1896
Vregistered
p1897
sVreputation
p1898
I776
sVlink
p1899
Vhttp://stackoverflow.com/users/66422/neoice
p1900
sVdisplay_name
p1901
Vneoice
p1902
ssVtitle
p1903
VDjango: multiple models in one template using forms
p1904
sVlast_edit_date
p1905
I1426691702
sVquestion_id
p1906
I569468
sa(dp1907
Vbody
p1908
V<p>I need to check if some number of years have been since some date. Currently I've got <code>timedelta</code> from <code>datetime</code> module and I don't know how to convert it to years.</p>\u000a
p1909
sVis_answered
p1910
I01
sVview_count
p1911
I54186
sVtags
p1912
(lp1913
Vpython
p1914
aVdatetime
p1915
aVtimedelta
p1916
asVlast_activity_date
p1917
I1449844001
sVanswer_count
p1918
I14
sVcreation_date
p1919
I1240164040
sVscore
p1920
I85
sVlink
p1921
Vhttp://stackoverflow.com/questions/765797/python-timedelta-in-years
p1922
sVaccepted_answer_id
p1923
I765990
sVowner
p1924
(dp1925
Vuser_id
p1926
I70918
sVprofile_image
p1927
Vhttps://www.gravatar.com/avatar/7dc23c2df4a4c3dc824e443c59684b53?s=128&d=identicon&r=PG
p1928
sVuser_type
p1929
Vregistered
p1930
sVreputation
p1931
I3977
sVlink
p1932
Vhttp://stackoverflow.com/users/70918/migol
p1933
sVaccept_rate
p1934
I93
sVdisplay_name
p1935
VMigol
p1936
ssVtitle
p1937
VPython timedelta in years
p1938
sVlast_edit_date
p1939
I1240177006
sVquestion_id
p1940
I765797
sa(dp1941
Vbody
p1942
V<p>What are the fundamental differences between queues and pipes in <a href="http://docs.python.org/library/multiprocessing.html" rel="noreferrer">Python's multiprocessing package</a>?</p>\u000a\u000a<p>In what scenarios should one choose one over the other?  When is it advantageous to use <code>Pipe()</code>?  When is it advantageous to use <code>Queue()</code>?</p>\u000a
p1943
sVis_answered
p1944
I01
sVview_count
p1945
I31810
sVtags
p1946
(lp1947
Vpython
p1948
aVperformance
p1949
aVqueue
p1950
aVmultiprocessing
p1951
aVpipe
p1952
asVlast_activity_date
p1953
I1417877240
sVanswer_count
p1954
I1
sVcreation_date
p1955
I1323595717
sVscore
p1956
I85
sVlink
p1957
Vhttp://stackoverflow.com/questions/8463008/python-multiprocessing-pipe-vs-queue
p1958
sVaccepted_answer_id
p1959
I8463046
sVowner
p1960
(dp1961
Vuser_id
p1962
I348545
sVprofile_image
p1963
Vhttps://www.gravatar.com/avatar/8c45eeae6f3bdb3e49b50a0b8241f6d4?s=128&d=identicon&r=PG
p1964
sVuser_type
p1965
Vregistered
p1966
sVreputation
p1967
I25566
sVlink
p1968
Vhttp://stackoverflow.com/users/348545/jonathan
p1969
sVaccept_rate
p1970
I67
sVdisplay_name
p1971
VJonathan
p1972
ssVtitle
p1973
VPython multiprocessing - Pipe vs Queue
p1974
sVlast_edit_date
p1975
I1323781375
sVquestion_id
p1976
I8463008
sa(dp1977
Vbody
p1978
V<p>Sometimes I want to just insert some print statements in my code, and see what gets printed out when I exercise it. My usual way to "exercise" it is with existing pytest tests. But when I run these, I don't seem able to see any standard output (at least from within PyCharm, my IDE).</p>\u000a\u000a<p>Is there a simple way to see standard output during a pytest run?</p>\u000a
p1979
sVis_answered
p1980
I01
sVview_count
p1981
I19095
sVtags
p1982
(lp1983
Vpython
p1984
aVpy.test
p1985
asVlast_activity_date
p1986
I1492498180
sVanswer_count
p1987
I4
sVcreation_date
p1988
I1358532878
sVscore
p1989
I85
sVlink
p1990
Vhttp://stackoverflow.com/questions/14405063/how-can-i-see-normal-print-output-created-during-pytest-run
p1991
sVaccepted_answer_id
p1992
I14414325
sVowner
p1993
(dp1994
Vuser_id
p1995
I1715740
sVprofile_image
p1996
Vhttps://www.gravatar.com/avatar/32d5f98d060658886a320fe06f1ffc2c?s=128&d=identicon&r=PG
p1997
sVuser_type
p1998
Vregistered
p1999
sVreputation
p2000
I806
sVlink
p2001
Vhttp://stackoverflow.com/users/1715740/des
p2002
sVaccept_rate
p2003
I69
sVdisplay_name
p2004
VDes
p2005
ssVtitle
p2006
VHow can I see normal print output created during pytest run?
p2007
sVlast_edit_date
p2008
I1467499898
sVquestion_id
p2009
I14405063
sa(dp2010
Vbody
p2011
V<p>A little background:</p>\u000a\u000a<ul>\u000a<li><a href="http://www.python.org/dev/peps/pep-0008/" rel="noreferrer">PEP 8</a> is the <em>Style Guide for Python Code</em>. It contains the conventions all python programmers should follow.</li>\u000a<li><a href="http://pypi.python.org/pypi/pep8" rel="noreferrer">pep8.py</a> is a (very useful) script that checks the code formating of a given python script, according to PEP 8.</li>\u000a<li><a href="http://www.eclipse.org/" rel="noreferrer">Eclipse</a> is a great IDE. With the <a href="http://pydev.sourceforge.net/" rel="noreferrer">Pydev</a> extension, it that can be used to develop Python</li>\u000a</ul>\u000a\u000a<p>I run pep8.py manually when I'm scripting, but with bigger projects I prefer to use Eclipse.\u000aIt would be really useful to integrate pep8.py in Eclipse/Pydev, so it can be run automatically in all the files in the project, and point to the lines containing the warnings.\u000aMaybe there is an obvious way to do it, but I haven't found it yet.</p>\u000a\u000a<p>Question is: <strong>How to integrate pep8.py in Eclipse?</strong></p>\u000a
p2012
sVis_answered
p2013
I01
sVview_count
p2014
I25566
sVtags
p2015
(lp2016
Vpython
p2017
aVeclipse
p2018
aVpydev
p2019
aVpep8
p2020
asVlast_activity_date
p2021
I1475955960
sVanswer_count
p2022
I6
sVcreation_date
p2023
I1230633593
sVscore
p2024
I85
sVlink
p2025
Vhttp://stackoverflow.com/questions/399956/how-to-integrate-pep8-py-in-eclipse
p2026
sVaccepted_answer_id
p2027
I8532188
sVowner
p2028
(dp2029
Vuser_id
p2030
I30300
sVprofile_image
p2031
Vhttps://www.gravatar.com/avatar/1aa15c3f6948e5977fa9c0ebbc923aeb?s=128&d=identicon&r=PG
p2032
sVuser_type
p2033
Vregistered
p2034
sVreputation
p2035
I3425
sVlink
p2036
Vhttp://stackoverflow.com/users/30300/david-arcos
p2037
sVdisplay_name
p2038
VDavid Arcos
p2039
ssVtitle
p2040
VHow to integrate pep8.py in Eclipse?
p2041
sVlast_edit_date
p2042
I1315314967
sVquestion_id
p2043
I399956
sa(dp2044
Vbody
p2045
V<p>Using <code>import numpy as np</code> I've noticed that </p>\u000a\u000a<pre><code>np.tan(np.pi/2)\u000a</code></pre>\u000a\u000a<p>gives the number in the title and not <code>np.inf</code></p>\u000a\u000a<pre><code>16331239353195370.0\u000a</code></pre>\u000a\u000a<p>I'm curious about this number. Is it related to some system machine precision parameter? Could I have calculated it from something? (I'm thinking along the lines of something similar to <code>sys.float_info</code>)</p>\u000a\u000a<p><strong>EDIT:</strong> The same result is indeed reproducible  in other environments such as Java, octace, matlab... The suggested dupe does not explain why, though.</p>\u000a
p2046
sVis_answered
p2047
I01
sVview_count
p2048
I5839
sVtags
p2049
(lp2050
Vpython
p2051
aVnumpy
p2052
aVnumerical-methods
p2053
asVlast_activity_date
p2054
I1468520336
sVanswer_count
p2055
I1
sVcreation_date
p2056
I1468177376
sVscore
p2057
I85
sVlink
p2058
Vhttp://stackoverflow.com/questions/38295501/is-there-special-significance-to-16331239353195370-0
p2059
sVaccepted_answer_id
p2060
I38295695
sVowner
p2061
(dp2062
Vuser_id
p2063
I6510497
sVprofile_image
p2064
Vhttps://i.stack.imgur.com/3go0E.png?s=128&g=1
p2065
sVuser_type
p2066
Vregistered
p2067
sVreputation
p2068
I2371
sVlink
p2069
Vhttp://stackoverflow.com/users/6510497/aguy
p2070
sVaccept_rate
p2071
I86
sVdisplay_name
p2072
VAguy
p2073
ssVtitle
p2074
VIs there special significance to 16331239353195370.0?
p2075
sVlast_edit_date
p2076
I1468348585
sVquestion_id
p2077
I38295501
sa(dp2078
Vbody
p2079
V<p>I'm writing my own container, which needs to give access to a dictionary inside by attribute calls. The typical use of the container would be like this:</p>\u000a\u000a<pre><code>temp_container = DictContainer()\u000adict_container['foo'] = bar\u000a...\u000aprint dict_container.foo\u000a</code></pre>\u000a\u000a<p>I know that it might be stupid to write something like this, but that's the functionality I need to provide. I was thinking about implementing this in a following way:</p>\u000a\u000a<pre><code>def __getattribute__(self, item):\u000a    try:\u000a        return object.__getattribute__(item)\u000a    except AttributeError:\u000a        try:\u000a            return self.dict[item]\u000a        except KeyError:\u000a            print "The object doesn't have such attribute"\u000a</code></pre>\u000a\u000a<p>I'm not sure whether nested try/except blocks are a good practice so another way would be to use <code>hasattr()</code> and <code>has_key()</code>:</p>\u000a\u000a<pre><code>def __getattribute__(self, item):\u000a        if hasattr(self, item):\u000a            return object.__getattribute__(item)\u000a        else:\u000a            if self.dict.has_key(item):\u000a                return self.dict[item]\u000a            else:\u000a                raise AttributeError("some customised error")\u000a</code></pre>\u000a\u000a<p>Or to use one of them and one try catch block like this:</p>\u000a\u000a<pre><code>def __getattribute__(self, item):\u000a    if hasattr(self, item):\u000a        return object.__getattribute__(item)\u000a    else:\u000a        try:\u000a            return self.dict[item]\u000a        except KeyError:\u000a            raise AttributeError("some customised error")\u000a</code></pre>\u000a\u000a<p>Which option is most pythonic and elegant?</p>\u000a
p2080
sVis_answered
p2081
I01
sVview_count
p2082
I58254
sVtags
p2083
(lp2084
Vpython
p2085
asVlast_activity_date
p2086
I1452795308
sVanswer_count
p2087
I8
sVcreation_date
p2088
I1370821050
sVscore
p2089
I85
sVlink
p2090
Vhttp://stackoverflow.com/questions/17015230/are-nested-try-except-blocks-in-python-a-good-programming-practice
p2091
sVaccepted_answer_id
p2092
I17015303
sVowner
p2093
(dp2094
Vuser_id
p2095
I2985269
sVprofile_image
p2096
Vhttps://i.stack.imgur.com/nH4AS.png?s=128&g=1
p2097
sVuser_type
p2098
Vregistered
p2099
sVreputation
p2100
I1396
sVlink
p2101
Vhttp://stackoverflow.com/users/2985269/michal
p2102
sVaccept_rate
p2103
I94
sVdisplay_name
p2104
VMichal
p2105
ssVtitle
p2106
VAre nested try/except blocks in python a good programming practice?
p2107
sVquestion_id
p2108
I17015230
sa(dp2109
Vbody
p2110
V<p>This is probably a trivial question, but how do I parallelize the following loop in python?</p>\u000a\u000a<pre><code># setup output lists\u000aoutput1 = list()\u000aoutput2 = list()\u000aoutput3 = list()\u000a\u000afor j in range(0, 10):\u000a    # calc individual parameter value\u000a    parameter = j * offset\u000a    # call the calculation\u000a    out1, out2, out3 = calc_stuff(parameter = parameter)\u000a\u000a    # put results into correct output list\u000a    output1.append(out1)\u000a    output2.append(out2)\u000a    output3.append(out3)\u000a</code></pre>\u000a\u000a<p>I know how to start single threads in Python but I don't know how to "collect" the results. Therefore my question: What's the easiest way to parallelize this code?</p>\u000a
p2111
sVis_answered
p2112
I01
sVview_count
p2113
I81279
sVtags
p2114
(lp2115
Vpython
p2116
aVparallel-processing
p2117
asVlast_activity_date
p2118
I1494001718
sVanswer_count
p2119
I6
sVcreation_date
p2120
I1332243762
sVscore
p2121
I85
sVlink
p2122
Vhttp://stackoverflow.com/questions/9786102/how-do-i-parallelize-a-simple-python-loop
p2123
sVaccepted_answer_id
p2124
I9786225
sVowner
p2125
(dp2126
Vuser_id
p2127
I561766
sVprofile_image
p2128
Vhttps://www.gravatar.com/avatar/b4bbe3a76ecf9293a11355e144f51c7e?s=128&d=identicon&r=PG
p2129
sVuser_type
p2130
Vregistered
p2131
sVreputation
p2132
I3406
sVlink
p2133
Vhttp://stackoverflow.com/users/561766/memyself
p2134
sVaccept_rate
p2135
I93
sVdisplay_name
p2136
Vmemyself
p2137
ssVtitle
p2138
VHow do I parallelize a simple Python loop?
p2139
sVlast_edit_date
p2140
I1494001692
sVquestion_id
p2141
I9786102
sa(dp2142
Vbody
p2143
V<p>I <a href="https://github.com/mitsuhiko/flask/blob/master/CHANGES" rel="noreferrer">saw</a> that <code>g</code> will move from the request context to the app context in Flask 0.10, which made me confused about the intended use of <code>g</code>.</p>\u000a\u000a<p>My understanding (for Flask 0.9) is that:</p>\u000a\u000a<ul>\u000a<li><code>g</code> lives in the request context, i.e., created afresh when the requests starts, and available until it ends</li>\u000a<li><code>g</code> is intended to be used as a "request blackboard", where I can put stuff relevant for the duration of the request (i.e., set a flag at the beginning of the request and handle it at the end, possibly from a <code>before_request</code>/<code>after_request</code> pair)</li>\u000a<li>in addition to holding request-level-state, <code>g</code> can and should be used for resource management, i.e., holding database connections, etc.</li>\u000a</ul>\u000a\u000a<p>Which of these sentences are no longer true in Flask 0.10? Can someone point me to a resource discussing the <em>reasons</em> for the change? What should I use as a "request blackboard" in Flask 0.10 - should I create my own app/extension specific thread-local proxy and push it to the context stack <code>before_request</code>? What's the point of resource management at the application context, if my application lives for a long while (not like a request) and thus the resources are never freed?</p>\u000a
p2144
sVis_answered
p2145
I01
sVview_count
p2146
I26446
sVtags
p2147
(lp2148
Vpython
p2149
aVflask
p2150
asVlast_activity_date
p2151
I1446005844
sVanswer_count
p2152
I2
sVcreation_date
p2153
I1361864986
sVscore
p2154
I85
sVlink
p2155
Vhttp://stackoverflow.com/questions/15083967/when-should-flask-g-be-used
p2156
sVaccepted_answer_id
p2157
I15101229
sVowner
p2158
(dp2159
Vuser_id
p2160
I459852
sVprofile_image
p2161
Vhttps://www.gravatar.com/avatar/4ec21c1cc745e847fc7547c3e32cd07a?s=128&d=identicon&r=PG
p2162
sVuser_type
p2163
Vregistered
p2164
sVreputation
p2165
I1372
sVlink
p2166
Vhttp://stackoverflow.com/users/459852/yaniv-aknin
p2167
sVaccept_rate
p2168
I100
sVdisplay_name
p2169
VYaniv Aknin
p2170
ssVtitle
p2171
VWhen should Flask.g be used?
p2172
sVquestion_id
p2173
I15083967
sa(dp2174
Vbody
p2175
V<p>I have a fairly large dataset in the form of a dataframe and I was wondering how I would be able to split the dataframe into two random samples (80% and 20%) for training and testing.</p>\u000a\u000a<p>Thanks!</p>\u000a
p2176
sVis_answered
p2177
I01
sVview_count
p2178
I64193
sVtags
p2179
(lp2180
Vpython
p2181
aVpython-2.7
p2182
aVpandas
p2183
aVdataframe
p2184
asVlast_activity_date
p2185
I1494470996
sVanswer_count
p2186
I12
sVcreation_date
p2187
I1402421097
sVscore
p2188
I84
sVlink
p2189
Vhttp://stackoverflow.com/questions/24147278/how-do-i-create-test-and-train-samples-from-one-dataframe-with-pandas
p2190
sVaccepted_answer_id
p2191
I24147363
sVowner
p2192
(dp2193
Vuser_id
p2194
I3712008
sVprofile_image
p2195
Vhttps://www.gravatar.com/avatar/e46058de055485201d2ecdc31b0db79c?s=128&d=identicon&r=PG&f=1
p2196
sVuser_type
p2197
Vregistered
p2198
sVreputation
p2199
I850
sVlink
p2200
Vhttp://stackoverflow.com/users/3712008/tooty44
p2201
sVaccept_rate
p2202
I93
sVdisplay_name
p2203
Vtooty44
p2204
ssVtitle
p2205
VHow do I create test and train samples from one dataframe with pandas?
p2206
sVquestion_id
p2207
I24147278
sa(dp2208
Vbody
p2209
V<p>What is the most idiomatic way to do the following?</p>\u000a\u000a<pre><code>def xstr(s):\u000a    if s is None:\u000a        return ''\u000a    else:\u000a        return s\u000a\u000as = xstr(a) + xstr(b)\u000a</code></pre>\u000a\u000a<p><strong>update:</strong> I'm incorporating Tryptich's suggestion to use str(s), which makes this routine work for other types besides strings.  I'm awfully impressed by Vinay Sajip's lambda suggestion, but I want to keep my code relatively simple.</p>\u000a\u000a<pre><code>def xstr(s):\u000a    if s is None:\u000a        return ''\u000a    else:\u000a        return str(s)\u000a</code></pre>\u000a
p2210
sVis_answered
p2211
I01
sVview_count
p2212
I75507
sVtags
p2213
(lp2214
Vstring
p2215
aVpython
p2216
aVidioms
p2217
asVlast_activity_date
p2218
I1494635957
sVanswer_count
p2219
I14
sVcreation_date
p2220
I1245784649
sVscore
p2221
I84
sVlink
p2222
Vhttp://stackoverflow.com/questions/1034573/python-most-idiomatic-way-to-convert-none-to-empty-string
p2223
sVaccepted_answer_id
p2224
I1034633
sVowner
p2225
(dp2226
Vuser_id
p2227
I116
sVprofile_image
p2228
Vhttps://i.stack.imgur.com/f6flX.jpg?s=128&g=1
p2229
sVuser_type
p2230
Vregistered
p2231
sVreputation
p2232
I140452
sVlink
p2233
Vhttp://stackoverflow.com/users/116/mark-harrison
p2234
sVaccept_rate
p2235
I94
sVdisplay_name
p2236
VMark Harrison
p2237
ssVtitle
p2238
VPython: most idiomatic way to convert None to empty string?
p2239
sVlast_edit_date
p2240
I1248146220
sVquestion_id
p2241
I1034573
sa(dp2242
Vbody
p2243
V<p>Searching the net this seems to be a problem caused by spaces in the Python installation path.</p>\u000a\u000a<p>How do I get <code>pip</code> to work without having to reinstall everything in a path without spaces ?</p>\u000a
p2244
sVis_answered
p2245
I01
sVprotected_date
p2246
I1474531421
sVview_count
p2247
I81002
sVtags
p2248
(lp2249
Vpython
p2250
aVpip
p2251
asVlast_activity_date
p2252
I1489884234
sVaccepted_answer_id
p2253
I26428562
sVcreation_date
p2254
I1404809515
sVscore
p2255
I84
sVlink
p2256
Vhttp://stackoverflow.com/questions/24627525/fatal-error-in-launcher-unable-to-create-process-using-c-program-files-x86
p2257
sVanswer_count
p2258
I17
sVowner
p2259
(dp2260
Vuser_id
p2261
I419404
sVprofile_image
p2262
Vhttps://www.gravatar.com/avatar/1122793935b0345bfbad0390e2d3a7d8?s=128&d=identicon&r=PG
p2263
sVuser_type
p2264
Vregistered
p2265
sVreputation
p2266
I6394
sVlink
p2267
Vhttp://stackoverflow.com/users/419404/archimedix
p2268
sVaccept_rate
p2269
I78
sVdisplay_name
p2270
VArchimedix
p2271
ssVtitle
p2272
VFatal error in launcher: Unable to create process using &quot;&quot;C:\u005cProgram Files (x86)\u005cPython33\u005cpython.exe&quot; &quot;C:\u005cProgram Files (x86)\u005cPython33\u005cpip.exe&quot;&quot;
p2273
sVlast_edit_date
p2274
I1431044136
sVquestion_id
p2275
I24627525
sa(dp2276
Vbody
p2277
V<pre><code>go  = Content.objects.get(name="baby")\u000a# go should be None, since nothing is in the database.\u000a</code></pre>\u000a
p2278
sVis_answered
p2279
I01
sVview_count
p2280
I61347
sVtags
p2281
(lp2282
Vpython
p2283
aVmysql
p2284
aVdatabase
p2285
aVdjango
p2286
asVlast_activity_date
p2287
I1475025862
sVanswer_count
p2288
I14
sVcreation_date
p2289
I1277181522
sVscore
p2290
I84
sVlink
p2291
Vhttp://stackoverflow.com/questions/3090302/in-django-how-do-i-objects-get-but-return-none-when-nothing-is-found
p2292
sVaccepted_answer_id
p2293
I3090342
sVowner
p2294
(dp2295
Vuser_id
p2296
I179736
sVprofile_image
p2297
Vhttps://www.gravatar.com/avatar/e77327f7ef0c6213525de4dcea19b200?s=128&d=identicon&r=PG
p2298
sVuser_type
p2299
Vregistered
p2300
sVreputation
p2301
I49962
sVlink
p2302
Vhttp://stackoverflow.com/users/179736/timex
p2303
sVaccept_rate
p2304
I82
sVdisplay_name
p2305
VTIMEX
p2306
ssVtitle
p2307
VIn Django, how do I objects.get, but return None when nothing is found?
p2308
sVquestion_id
p2309
I3090302
sa(dp2310
Vbody
p2311
V<p>I would like to use an <a href="http://ipython.org/notebook.html" rel="noreferrer">IPython notebook</a> as a way to interactively analyze some genome charts I am making with Biopython's <a href="http://biopython.org/DIST/docs/tutorial/Tutorial.html#sec329" rel="noreferrer"><code>GenomeDiagram</code></a> module. While there is extensive documentation on how to use <code>matplotlib</code> to get graphs inline in IPython notebook, GenomeDiagram uses the ReportLab toolkit which I don't think is supported for inline graphing in IPython. </p>\u000a\u000a<p>I was thinking, however, that a way around this would be to write out the plot/genome diagram to a file and then open the image inline which would have the same result with something like this:</p>\u000a\u000a<pre><code>gd_diagram.write("test.png", "PNG")\u000adisplay(file="test.png")\u000a</code></pre>\u000a\u000a<p>However, I can't figure out how to do this - or know if it's possible. So does anyone know if images can be opened/displayed in IPython?</p>\u000a
p2312
sVis_answered
p2313
I01
sVview_count
p2314
I66859
sVtags
p2315
(lp2316
Vpython
p2317
aVipython
p2318
aVbiopython
p2319
asVlast_activity_date
p2320
I1462485992
sVanswer_count
p2321
I4
sVcreation_date
p2322
I1344377464
sVscore
p2323
I84
sVlink
p2324
Vhttp://stackoverflow.com/questions/11854847/display-an-image-from-a-file-in-an-ipython-notebook
p2325
sVaccepted_answer_id
p2326
I11855133
sVowner
p2327
(dp2328
Vuser_id
p2329
I983191
sVprofile_image
p2330
Vhttps://www.gravatar.com/avatar/e560fcc186a4719ccd501fec19cec6dc?s=128&d=identicon&r=PG
p2331
sVuser_type
p2332
Vregistered
p2333
sVreputation
p2334
I5244
sVlink
p2335
Vhttp://stackoverflow.com/users/983191/zach
p2336
sVaccept_rate
p2337
I100
sVdisplay_name
p2338
Vzach
p2339
ssVtitle
p2340
VDisplay an image from a file in an IPython Notebook
p2341
sVlast_edit_date
p2342
I1389379576
sVquestion_id
p2343
I11854847
sa(dp2344
Vbody
p2345
V<p>Someone suggested I use an ORM for a project I'm designing but I'm having trouble finding information on what it is or how it works. Can anyone give me a brief explanation or a link as to where I can learn more about it?</p>\u000a
p2346
sVis_answered
p2347
I01
sVview_count
p2348
I48903
sVtags
p2349
(lp2350
Vpython
p2351
aVorm
p2352
asVlast_activity_date
p2353
I1492582395
sVanswer_count
p2354
I9
sVcreation_date
p2355
I1250276639
sVscore
p2356
I84
sVlink
p2357
Vhttp://stackoverflow.com/questions/1279613/what-is-an-orm-and-where-can-i-learn-more-about-it
p2358
sVowner
p2359
(dp2360
Vuser_id
p2361
I143596
sVprofile_image
p2362
Vhttps://www.gravatar.com/avatar/c872975d1ea67ae6babfeefe79f4df4b?s=128&d=identicon&r=PG
p2363
sVuser_type
p2364
Vunregistered
p2365
sVreputation
p2366
I3145
sVlink
p2367
Vhttp://stackoverflow.com/users/143596/ryan
p2368
sVaccept_rate
p2369
I26
sVdisplay_name
p2370
VRyan
p2371
ssVtitle
p2372
VWhat is an ORM and where can I learn more about it?
p2373
sVlast_edit_date
p2374
I1250279258
sVquestion_id
p2375
I1279613
sa(dp2376
Vbody
p2377
V<p>I run this snippet twice, in the Ubuntu terminal (encoding set to utf-8), once with <code>./test.py</code> and then with <code>./test.py &gt;out.txt</code>:</p>\u000a\u000a<pre><code>uni = u"\u005cu001A\u005cu0BC3\u005cu1451\u005cU0001D10C"\u000aprint uni\u000a</code></pre>\u000a\u000a<p>Without redirection it prints garbage. With redirection I get a UnicodeDecodeError. Can someone explain why I get the error only in the second case, or even better give a detailed explanation of what's going on behind the curtain in both cases?</p>\u000a
p2378
sVis_answered
p2379
I01
sVview_count
p2380
I21711
sVtags
p2381
(lp2382
Vpython
p2383
aVunicode
p2384
asVlast_activity_date
p2385
I1495130111
sVanswer_count
p2386
I3
sVcreation_date
p2387
I1293535485
sVscore
p2388
I84
sVlink
p2389
Vhttp://stackoverflow.com/questions/4545661/unicodedecodeerror-when-redirecting-to-file
p2390
sVaccepted_answer_id
p2391
I4546129
sVowner
p2392
(dp2393
Vuser_id
p2394
I42645
sVprofile_image
p2395
Vhttps://www.gravatar.com/avatar/3ec4a0461d88ff0e8b15b654194725d7?s=128&d=identicon&r=PG
p2396
sVuser_type
p2397
Vregistered
p2398
sVreputation
p2399
I3860
sVlink
p2400
Vhttp://stackoverflow.com/users/42645/zedoo
p2401
sVaccept_rate
p2402
I76
sVdisplay_name
p2403
Vzedoo
p2404
ssVtitle
p2405
VUnicodeDecodeError when redirecting to file
p2406
sVlast_edit_date
p2407
I1321020589
sVquestion_id
p2408
I4545661
sa(dp2409
Vbody
p2410
V<p>Can\u2019t be hard, but I\u2019m having a mental block.</p>\u000a
p2411
sVis_answered
p2412
I01
sVview_count
p2413
I64904
sVtags
p2414
(lp2415
Vpython
p2416
aVpath
p2417
asVlast_activity_date
p2418
I1460444060
sVanswer_count
p2419
I5
sVcreation_date
p2420
I1272902163
sVscore
p2421
I84
sVlink
p2422
Vhttp://stackoverflow.com/questions/2759323/how-can-i-list-the-contents-of-a-directory-in-python
p2423
sVaccepted_answer_id
p2424
I2759331
sVowner
p2425
(dp2426
Vuser_id
p2427
I20578
sVprofile_image
p2428
Vhttps://i.stack.imgur.com/idUMq.jpg?s=128&g=1
p2429
sVuser_type
p2430
Vregistered
p2431
sVreputation
p2432
I54656
sVlink
p2433
Vhttp://stackoverflow.com/users/20578/paul-d-waite
p2434
sVaccept_rate
p2435
I89
sVdisplay_name
p2436
VPaul D. Waite
p2437
ssVtitle
p2438
VHow can I list the contents of a directory in Python?
p2439
sVlast_edit_date
p2440
I1272902485
sVquestion_id
p2441
I2759323
sa(dp2442
Vbody
p2443
V<p>Is there any way to install setuptools for python 2.6 in Windows without having an .exe installer? </p>\u000a\u000a<p>There isn't one built at the moment, and the maintainer of setuptools has stated that it's probable be a while before he'll get to it. </p>\u000a\u000a<p>Does anyone know of a way to install it anyway?</p>\u000a
p2444
sVis_answered
p2445
I01
sVview_count
p2446
I73207
sVtags
p2447
(lp2448
Vpython
p2449
aVwindows
p2450
aVsetuptools
p2451
asVlast_activity_date
p2452
I1447533181
sVanswer_count
p2453
I14
sVcreation_date
p2454
I1227285884
sVscore
p2455
I84
sVlink
p2456
Vhttp://stackoverflow.com/questions/309412/how-to-setup-setuptools-for-python-2-6-on-windows
p2457
sVaccepted_answer_id
p2458
I309783
sVowner
p2459
(dp2460
Vuser_id
p2461
I349836
sVprofile_image
p2462
Vhttps://www.gravatar.com/avatar/3b342ad4a3bbd870c61d75e83f87481b?s=128&d=identicon&r=PG
p2463
sVuser_type
p2464
Vregistered
p2465
sVreputation
p2466
I3444
sVlink
p2467
Vhttp://stackoverflow.com/users/349836/corvuscorax
p2468
sVaccept_rate
p2469
I88
sVdisplay_name
p2470
Vcorvuscorax
p2471
ssVtitle
p2472
VHow to setup setuptools for python 2.6 on Windows?
p2473
sVquestion_id
p2474
I309412
sa(dp2475
Vbody
p2476
V<p>I would like to read several csv files from a directory into pandas and concatenate them into one big DataFrame. I have not been able to figure it out though. Here is what I have so far:</p>\u000a\u000a<pre><code>import glob\u000aimport pandas as pd\u000a\u000a# get data file names\u000apath =r'C:\u005cDRO\u005cDCL_rawdata_files'\u000afilenames = glob.glob(path + "/*.csv")\u000a\u000adfs = []\u000afor filename in filenames:\u000a    dfs.append(pd.read_csv(filename))\u000a\u000a# Concatenate all data into one DataFrame\u000abig_frame = pd.concat(dfs, ignore_index=True)\u000a</code></pre>\u000a\u000a<p>I guess I need some help within the for loop???</p>\u000a
p2477
sVis_answered
p2478
I01
sVprotected_date
p2479
I1489778378
sVview_count
p2480
I63935
sVtags
p2481
(lp2482
Vpython
p2483
aVcsv
p2484
aVpandas
p2485
aVconcatenation
p2486
asVlast_activity_date
p2487
I1489772037
sVaccepted_answer_id
p2488
I21232849
sVcreation_date
p2489
I1388761246
sVscore
p2490
I84
sVlink
p2491
Vhttp://stackoverflow.com/questions/20906474/import-multiple-csv-files-into-pandas-and-concatenate-into-one-dataframe
p2492
sVanswer_count
p2493
I5
sVowner
p2494
(dp2495
Vuser_id
p2496
I2219369
sVprofile_image
p2497
Vhttps://www.gravatar.com/avatar/d878ea7821cc68ddfd696a3235220439?s=128&d=identicon&r=PG
p2498
sVuser_type
p2499
Vregistered
p2500
sVreputation
p2501
I1805
sVlink
p2502
Vhttp://stackoverflow.com/users/2219369/jonas
p2503
sVaccept_rate
p2504
I81
sVdisplay_name
p2505
Vjonas
p2506
ssVtitle
p2507
VImport multiple csv files into pandas and concatenate into one DataFrame
p2508
sVlast_edit_date
p2509
I1450596328
sVquestion_id
p2510
I20906474
sa(dp2511
Vbody
p2512
V<p>How can I send trace messages to the console (like <code>print</code>) when I'm running my Django app under <code>manage.py runserver</code>, but have those messages sent to a log file when I'm running the app under Apache?</p>\u000a\u000a<p>I reviewed <a href="http://docs.djangoproject.com/en/dev/topics/logging/" rel="noreferrer">Django logging</a> and although I was impressed with its flexibility and configurability for advanced uses, I'm still stumped with how to handle my simple use-case.</p>\u000a
p2513
sVis_answered
p2514
I01
sVview_count
p2515
I74875
sVtags
p2516
(lp2517
Vpython
p2518
aVdjango
p2519
aVlogging
p2520
asVlast_activity_date
p2521
I1486665948
sVanswer_count
p2522
I6
sVcreation_date
p2523
I1293666297
sVscore
p2524
I84
sVlink
p2525
Vhttp://stackoverflow.com/questions/4558879/python-django-log-to-console-under-runserver-log-to-file-under-apache
p2526
sVaccepted_answer_id
p2527
I4558901
sVowner
p2528
(dp2529
Vuser_id
p2530
I126352
sVprofile_image
p2531
Vhttps://www.gravatar.com/avatar/e7cfaec1e51ab0dbd7b05a1b6f9ac20f?s=128&d=identicon&r=PG
p2532
sVuser_type
p2533
Vregistered
p2534
sVreputation
p2535
I31533
sVlink
p2536
Vhttp://stackoverflow.com/users/126352/justin-grant
p2537
sVaccept_rate
p2538
I69
sVdisplay_name
p2539
VJustin Grant
p2540
ssVtitle
p2541
VPython/Django: log to console under runserver, log to file under Apache
p2542
sVlast_edit_date
p2543
I1441217496
sVquestion_id
p2544
I4558879
sa(dp2545
Vbody
p2546
V<p>I'm trying to parse through a csv file and extract the data from only specific columns.</p>\u000a\u000a<p>Example csv:</p>\u000a\u000a<pre class="lang-none prettyprint-override"><code>ID | Name | Address | City | State | Zip | Phone | OPEID | IPEDS |\u000a10 | C... | 130 W.. | Mo.. | AL... | 3.. | 334.. | 01023 | 10063 |\u000a</code></pre>\u000a\u000a<p>I'm trying to capture only specific columns, say <code>ID</code>, <code>Name</code>, <code>Zip</code> and <code>Phone</code>.</p>\u000a\u000a<p>Code I've looked at has led me to believe I can call the specific column by its corresponding number, so ie: <code>Name</code> would correspond to <code>2</code> and iterating through each row using <code>row[2]</code> would produce all the items in column 2. Only it doesn't.</p>\u000a\u000a<p>Here's what I've done so far:</p>\u000a\u000a<pre><code>import sys, argparse, csv\u000afrom settings import *\u000a\u000a# command arguments\u000aparser = argparse.ArgumentParser(description='csv to postgres',\u005c\u000a fromfile_prefix_chars="@" )\u000aparser.add_argument('file', help='csv file to import', action='store')\u000aargs = parser.parse_args()\u000acsv_file = args.file\u000a\u000a# open csv file\u000awith open(csv_file, 'rb') as csvfile:\u000a\u000a    # get number of columns\u000a    for line in csvfile.readlines():\u000a        array = line.split(',')\u000a        first_item = array[0]\u000a\u000a    num_columns = len(array)\u000a    csvfile.seek(0)\u000a\u000a    reader = csv.reader(csvfile, delimiter=' ')\u000a        included_cols = [1, 2, 6, 7]\u000a\u000a    for row in reader:\u000a            content = list(row[i] for i in included_cols)\u000a            print content\u000a</code></pre>\u000a\u000a<p>and I'm expecting that this will print out only the specific columns I want for each row except it doesn't, I get the last column only.</p>\u000a
p2547
sVis_answered
p2548
I01
sVview_count
p2549
I202254
sVtags
p2550
(lp2551
Vpython
p2552
aVcsv
p2553
asVlast_activity_date
p2554
I1494856363
sVanswer_count
p2555
I6
sVcreation_date
p2556
I1368324637
sVscore
p2557
I84
sVlink
p2558
Vhttp://stackoverflow.com/questions/16503560/read-specific-columns-from-a-csv-file-with-csv-module
p2559
sVaccepted_answer_id
p2560
I16503807
sVowner
p2561
(dp2562
Vuser_id
p2563
I938865
sVprofile_image
p2564
Vhttps://www.gravatar.com/avatar/1e4573ab3fd0525a69961ecb2fa9b623?s=128&d=identicon&r=PG
p2565
sVuser_type
p2566
Vregistered
p2567
sVreputation
p2568
I1165
sVlink
p2569
Vhttp://stackoverflow.com/users/938865/frankv
p2570
sVaccept_rate
p2571
I86
sVdisplay_name
p2572
VfrankV
p2573
ssVtitle
p2574
VRead specific columns from a csv file with csv module?
p2575
sVlast_edit_date
p2576
I1481055374
sVquestion_id
p2577
I16503560
sa(dp2578
Vbody
p2579
V<p>I need a rolling window (aka sliding window) iterable over a sequence/iterator/generator.  Default Python iteration can be considered a special case, where the window length is 1.  I'm currently using the following code.  Does anyone have a more Pythonic, less verbose, or more efficient method for doing this?</p>\u000a\u000a<pre><code>def rolling_window(seq, window_size):\u000a    it = iter(seq)\u000a    win = [it.next() for cnt in xrange(window_size)] # First window\u000a    yield win\u000a    for e in it: # Subsequent windows\u000a        win[:-1] = win[1:]\u000a        win[-1] = e\u000a        yield win\u000a\u000aif __name__=="__main__":\u000a    for w in rolling_window(xrange(6), 3):\u000a        print w\u000a\u000a"""Example output:\u000a\u000a   [0, 1, 2]\u000a   [1, 2, 3]\u000a   [2, 3, 4]\u000a   [3, 4, 5]\u000a"""\u000a</code></pre>\u000a
p2580
sVis_answered
p2581
I01
sVview_count
p2582
I31637
sVtags
p2583
(lp2584
Vpython
p2585
aValgorithm
p2586
asVlast_activity_date
p2587
I1490310784
sVanswer_count
p2588
I15
sVcreation_date
p2589
I1311630118
sVscore
p2590
I84
sVlink
p2591
Vhttp://stackoverflow.com/questions/6822725/rolling-or-sliding-window-iterator-in-python
p2592
sVaccepted_answer_id
p2593
I6822773
sVowner
p2594
(dp2595
Vuser_id
p2596
I448970
sVprofile_image
p2597
Vhttps://www.gravatar.com/avatar/34aa676138dd0f336faf78cb0b06f0e9?s=128&d=identicon&r=PG
p2598
sVuser_type
p2599
Vregistered
p2600
sVreputation
p2601
I1972
sVlink
p2602
Vhttp://stackoverflow.com/users/448970/david-b
p2603
sVaccept_rate
p2604
I90
sVdisplay_name
p2605
VDavid B.
p2606
ssVtitle
p2607
VRolling or sliding window iterator in Python
p2608
sVlast_edit_date
p2609
I1398595941
sVquestion_id
p2610
I6822725
sa(dp2611
Vbody
p2612
V<p>I'm still learning python and I have a doubt:</p>\u000a\u000a<p>In python 2.6.x I usually declare encoding in the file header like this (as in <a href="http://www.python.org/dev/peps/pep-0263/" rel="noreferrer">PEP 0263</a>)</p>\u000a\u000a<pre><code># -*- coding: utf-8 -*-\u000a</code></pre>\u000a\u000a<p>After that, my strings are written as usual:</p>\u000a\u000a<pre><code>a = "A normal string without declared Unicode"\u000a</code></pre>\u000a\u000a<p>But everytime I see a python project code, the encoding is not declared at the header. Instead, it is declared at every string like this:</p>\u000a\u000a<pre><code>a = u"A string with declared Unicode"\u000a</code></pre>\u000a\u000a<p>What's the difference? What's the purpose of this? I know Python 2.6.x sets ASCII encoding by default, but it can be overriden by the header declaration, so what's the point of per string declaration?</p>\u000a\u000a<p><strong>Addendum:</strong> Seems that I've mixed up file encoding with string encoding. Thanks for explaining it :)</p>\u000a
p2613
sVis_answered
p2614
I01
sVview_count
p2615
I90271
sVtags
p2616
(lp2617
Vpython
p2618
aVencoding
p2619
aVutf-8
p2620
asVlast_activity_date
p2621
I1357785236
sVanswer_count
p2622
I4
sVcreation_date
p2623
I1278127694
sVscore
p2624
I84
sVlink
p2625
Vhttp://stackoverflow.com/questions/3170211/why-declare-unicode-by-string-in-python
p2626
sVaccepted_answer_id
p2627
I3170331
sVowner
p2628
(dp2629
Vuser_id
p2630
I270293
sVprofile_image
p2631
Vhttps://www.gravatar.com/avatar/52cc55ddfda4136cee02aa9bb158a0c3?s=128&d=identicon&r=PG
p2632
sVuser_type
p2633
Vregistered
p2634
sVreputation
p2635
I2705
sVlink
p2636
Vhttp://stackoverflow.com/users/270293/oscar-carballal
p2637
sVaccept_rate
p2638
I98
sVdisplay_name
p2639
VOscar Carballal
p2640
ssVtitle
p2641
VWhy declare unicode by string in python?
p2642
sVlast_edit_date
p2643
I1278131951
sVquestion_id
p2644
I3170211
sa(dp2645
Vbody
p2646
V<p>Having an <code>iterator</code> object, is there something faster, better or more correct than a list comprehension to get a list of the objects returned by the iterator?</p>\u000a\u000a<pre><code>user_list = [user for user in user_iterator]\u000a</code></pre>\u000a
p2647
sVis_answered
p2648
I01
sVview_count
p2649
I34292
sVtags
p2650
(lp2651
Vpython
p2652
aVcode-review
p2653
aVlist-comprehension
p2654
asVlast_activity_date
p2655
I1285440079
sVanswer_count
p2656
I1
sVcreation_date
p2657
I1285361126
sVscore
p2658
I84
sVlink
p2659
Vhttp://stackoverflow.com/questions/3790848/fastest-way-to-convert-an-iterator-to-a-list
p2660
sVaccepted_answer_id
p2661
I3790862
sVowner
p2662
(dp2663
Vuser_id
p2664
I130929
sVprofile_image
p2665
Vhttps://www.gravatar.com/avatar/0db359dc9dcb63067f6d7c8ad856e019?s=128&d=identicon&r=PG
p2666
sVuser_type
p2667
Vregistered
p2668
sVreputation
p2669
I37239
sVlink
p2670
Vhttp://stackoverflow.com/users/130929/systempuntoout
p2671
sVaccept_rate
p2672
I93
sVdisplay_name
p2673
Vsystempuntoout
p2674
ssVtitle
p2675
VFastest way to convert an iterator to a list
p2676
sVquestion_id
p2677
I3790848
sa(dp2678
Vbody
p2679
V<p>The program is supposed to take in two name and if they are the same length it check if they are the same word, if it's the same word it will print <em>"The names are the same"</em> if they are the same length but of different letters it will print <em>"The names are different but the same length"</em> The part I'm having a problem with is at the bottom 4 or lines when I run it it says:</p>\u000a\u000a<pre><code>#!/usr/bin/env python\u000a# Enter your code for "What's In (The Length Of) A Name?" here.\u000aname1 = input("Enter name 1: ")\u000aname2 = input("Enter name 2: ")\u000alen(name1)\u000alen(name2)\u000aif len(name1) == len(name2):\u000a    if name1 == name2:\u000a        print ("The names are the same")\u000a    else:\u000a        print ("The names are different, but are the same length")\u000a    if len(name1) &gt; len(name2):\u000a        print ("'{0}' is longer than '{1}'"% name1, name2)\u000a    elif len(name1) &lt; len(name2):\u000a        print ("'{0}'is longer than '{1}'"% name2, name1)\u000a</code></pre>\u000a\u000a<p>When I run this code it displays</p>\u000a\u000a<pre><code>Traceback (most recent call last):\u000a  File "program.py", line 13, in &lt;module&gt;\u000a    print ("'{0}' is longer than '{1}'"% name1, name2)\u000aTypeError: not all arguments converted during string formatting\u000a</code></pre>\u000a\u000a<p>Any suggestions are highly appreciated.</p>\u000a
p2680
sVis_answered
p2681
I01
sVview_count
p2682
I190276
sVtags
p2683
(lp2684
Vpython
p2685
aVstring
p2686
aVpython-3.x
p2687
aVtypeerror
p2688
aVoutput-formatting
p2689
asVlast_activity_date
p2690
I1472122579
sVanswer_count
p2691
I4
sVcreation_date
p2692
I1375690557
sVscore
p2693
I84
sVlink
p2694
Vhttp://stackoverflow.com/questions/18053500/typeerror-not-all-arguments-converted-during-string-formatting-python
p2695
sVowner
p2696
(dp2697
Vuser_id
p2698
I2652300
sVprofile_image
p2699
Vhttps://www.gravatar.com/avatar/5a43ba50d21b72255e57995345407b26?s=128&d=identicon&r=PG
p2700
sVuser_type
p2701
Vregistered
p2702
sVreputation
p2703
I427
sVlink
p2704
Vhttp://stackoverflow.com/users/2652300/user2652300
p2705
sVdisplay_name
p2706
Vuser2652300
p2707
ssVtitle
p2708
VTypeError: not all arguments converted during string formatting python
p2709
sVlast_edit_date
p2710
I1472122579
sVquestion_id
p2711
I18053500
sa(dp2712
Vbody
p2713
V<p>I found this in the Python <a href="http://docs.python.org/2/library/stdtypes.html?highlight=file%20flush#file.flush">documentation for File Objects</a>:</p>\u000a\u000a<blockquote>\u000a  <p>flush() does not necessarily write the file\u2019s data to disk. Use flush() followed by os.fsync() to ensure this behavior.</p>\u000a</blockquote>\u000a\u000a<p>So my question is: what exactly is Python's <code>flush</code> doing? I thought that it forces to write data to the disk, but now I see that it doesn't. Why? </p>\u000a
p2714
sVis_answered
p2715
I01
sVview_count
p2716
I57558
sVtags
p2717
(lp2718
Vpython
p2719
aVio
p2720
aVoutput-buffering
p2721
aVfsync
p2722
asVlast_activity_date
p2723
I1486789200
sVanswer_count
p2724
I3
sVcreation_date
p2725
I1313785943
sVscore
p2726
I84
sVlink
p2727
Vhttp://stackoverflow.com/questions/7127075/what-exactly-the-pythons-file-flush-is-doing
p2728
sVaccepted_answer_id
p2729
I7127162
sVowner
p2730
(dp2731
Vuser_id
p2732
I881124
sVprofile_image
p2733
Vhttps://www.gravatar.com/avatar/9e995424dad19020c6c1f142eaac19d4?s=128&d=identicon&r=PG
p2734
sVuser_type
p2735
Vunregistered
p2736
sVreputation
p2737
I722
sVlink
p2738
Vhttp://stackoverflow.com/users/881124/geek
p2739
sVaccept_rate
p2740
I95
sVdisplay_name
p2741
Vgeek
p2742
ssVtitle
p2743
Vwhat exactly the python&#39;s file.flush() is doing?
p2744
sVlast_edit_date
p2745
I1436548191
sVquestion_id
p2746
I7127075
sa(dp2747
Vbody
p2748
V<p>I have a generator function like the following:</p>\u000a\u000a<pre><code>def myfunct():\u000a  ...\u000a  yield result\u000a</code></pre>\u000a\u000a<p>The usual way to call this function would be:</p>\u000a\u000a<pre><code>for r in myfunct():\u000a  dostuff(r)\u000a</code></pre>\u000a\u000a<p>My question, is there a way to get just one element from the generator whenever I like?\u000aFor example, I'd like to do something like:</p>\u000a\u000a<pre><code>while True:\u000a  ...\u000a  if something:\u000a      my_element = pick_just_one_element(myfunct())\u000a      dostuff(my_element)\u000a  ...\u000a</code></pre>\u000a
p2749
sVis_answered
p2750
I01
sVview_count
p2751
I43234
sVtags
p2752
(lp2753
Vpython
p2754
aViterator
p2755
aVgenerator
p2756
aVpython-2.x
p2757
asVlast_activity_date
p2758
I1476877201
sVanswer_count
p2759
I5
sVcreation_date
p2760
I1295474128
sVscore
p2761
I84
sVlink
p2762
Vhttp://stackoverflow.com/questions/4741243/how-to-pick-just-one-item-from-a-generator-in-python
p2763
sVaccepted_answer_id
p2764
I4741269
sVowner
p2765
(dp2766
Vuser_id
p2767
I515334
sVprofile_image
p2768
Vhttps://www.gravatar.com/avatar/0a32ec0902b536b04256ef481fd46b6c?s=128&d=identicon&r=PG
p2769
sVuser_type
p2770
Vregistered
p2771
sVreputation
p2772
I914
sVlink
p2773
Vhttp://stackoverflow.com/users/515334/alexandros
p2774
sVaccept_rate
p2775
I62
sVdisplay_name
p2776
VAlexandros
p2777
ssVtitle
p2778
Vhow to pick just one item from a generator (in python)?
p2779
sVlast_edit_date
p2780
I1418384531
sVquestion_id
p2781
I4741243
sa(dp2782
Vbody
p2783
V<p>Copying a shuffled <code>range(10**6)</code> list ten times takes me about 0.18 seconds: (these are five runs)</p>\u000a\u000a<pre><code>0.175597017661\u000a0.173731403198\u000a0.178601711594\u000a0.180330912952\u000a0.180811964451\u000a</code></pre>\u000a\u000a<p>Copying the unshuffled list ten times takes me about 0.05 seconds:</p>\u000a\u000a<pre><code>0.058402235973\u000a0.0505464636856\u000a0.0509734306934\u000a0.0526022752744\u000a0.0513324916184\u000a</code></pre>\u000a\u000a<p>Here's my testing code:</p>\u000a\u000a<pre><code>from timeit import timeit\u000aimport random\u000a\u000aa = range(10**6)\u000arandom.shuffle(a)    # Remove this for the second test.\u000aa = list(a)          # Just an attempt to "normalize" the list.\u000afor _ in range(5):\u000a    print timeit(lambda: list(a), number=10)\u000a</code></pre>\u000a\u000a<p>I also tried copying with <code>a[:]</code>, the results were similar (i.e., big speed difference)</p>\u000a\u000a<p>Why the big speed difference? I know and understand the speed difference in the famous <a href="http://stackoverflow.com/q/11227809/1672429">Why is it faster to process a sorted array than an unsorted array?</a> example, but here my processing has no decisions. It's just blindly copying the references inside the list, no?</p>\u000a\u000a<p>I'm using Python 2.7.12 on Windows 10.</p>\u000a\u000a<p><strong>Edit:</strong> Tried Python 3.5.2 as well now, the results were almost the same (shuffled consistently around 0.17 seconds, unshuffled consistently around 0.05 seconds). Here's the code for that:</p>\u000a\u000a<pre><code>a = list(range(10**6))\u000arandom.shuffle(a)\u000aa = list(a)\u000afor _ in range(5):\u000a    print(timeit(lambda: list(a), number=10))\u000a</code></pre>\u000a
p2784
sVis_answered
p2785
I01
sVview_count
p2786
I5840
sVtags
p2787
(lp2788
Vpython
p2789
aVpython-internals
p2790
asVlast_activity_date
p2791
I1486595106
sVanswer_count
p2792
I3
sVcreation_date
p2793
I1486540127
sVscore
p2794
I84
sVlink
p2795
Vhttp://stackoverflow.com/questions/42107442/why-is-copying-a-shuffled-list-much-slower
p2796
sVaccepted_answer_id
p2797
I42108043
sVowner
p2798
(dp2799
Vuser_id
p2800
I1672429
sVprofile_image
p2801
Vhttps://www.gravatar.com/avatar/0815eb7d4e9dd58022d51ba2011b9c0a?s=128&d=identicon&r=PG
p2802
sVuser_type
p2803
Vregistered
p2804
sVreputation
p2805
I11459
sVlink
p2806
Vhttp://stackoverflow.com/users/1672429/stefan-pochmann
p2807
sVaccept_rate
p2808
I78
sVdisplay_name
p2809
VStefan Pochmann
p2810
ssVtitle
p2811
VWhy is copying a shuffled list much slower?
p2812
sVlast_edit_date
p2813
I1486560699
sVquestion_id
p2814
I42107442
sa(dp2815
Vbody
p2816
V<p><code>repr()</code>: evaluatable string representation of an object (can "eval()"\u000ait, meaning it is a string representation that evaluates to a Python\u000aobject)</p>\u000a\u000a<p>In other words:</p>\u000a\u000a<pre><code>&gt;&gt;&gt; x = 'foo'\u000a&gt;&gt;&gt; repr(x)\u000a"'foo'"\u000a</code></pre>\u000a\u000a<p>Questions:</p>\u000a\u000a<ol>\u000a<li>Why do I get the double quotes  when I do <code>repr(x)</code>? (I don't get them\u000awhen I do <code>str(x)</code>)</li>\u000a<li>Why do I get <code>'foo'</code> when I do <code>eval("'foo'")</code> and not x which is the\u000aobject?</li>\u000a</ol>\u000a
p2817
sVis_answered
p2818
I01
sVview_count
p2819
I101586
sVtags
p2820
(lp2821
Vpython
p2822
aVrepr
p2823
asVlast_activity_date
p2824
I1492159456
sVanswer_count
p2825
I4
sVcreation_date
p2826
I1318766875
sVscore
p2827
I84
sVlink
p2828
Vhttp://stackoverflow.com/questions/7784148/understanding-repr-function-in-python
p2829
sVaccepted_answer_id
p2830
I7784214
sVowner
p2831
(dp2832
Vuser_id
p2833
I799882
sVprofile_image
p2834
Vhttps://www.gravatar.com/avatar/f004c61dd3ba1529d0a3f2662eb24cf5?s=128&d=identicon&r=PG
p2835
sVuser_type
p2836
Vregistered
p2837
sVreputation
p2838
I773
sVlink
p2839
Vhttp://stackoverflow.com/users/799882/0101amt
p2840
sVaccept_rate
p2841
I100
sVdisplay_name
p2842
V0101amt
p2843
ssVtitle
p2844
VUnderstanding repr( ) function in Python
p2845
sVlast_edit_date
p2846
I1459947680
sVquestion_id
p2847
I7784148
sa(dp2848
Vclosed_date
p2849
I1408568950
sVis_answered
p2850
I01
sVclosed_reason
p2851
Vduplicate
p2852
sVview_count
p2853
I34249
sVtags
p2854
(lp2855
Vpython
p2856
aVpython-import
p2857
asVbody
p2858
V<p>What are the pros and cons of importing a Python module and/or function inside of a function, with respect to efficiency of speed and of memory?</p>\u000a\u000a<p>Does it re-import every time the function is run, or perhaps just once at the beginning whether or not the function is run?</p>\u000a
p2859
sVlast_activity_date
p2860
I1431012763
sVaccepted_answer_id
p2861
I3095124
sVcreation_date
p2862
I1277223883
sVscore
p2863
I84
sVlink
p2864
Vhttp://stackoverflow.com/questions/3095071/in-python-what-happens-when-you-import-inside-of-a-function
p2865
sVanswer_count
p2866
I6
sVowner
p2867
(dp2868
Vuser_id
p2869
I329344
sVprofile_image
p2870
Vhttps://www.gravatar.com/avatar/60b4fb5d941efcae4974775a7ad9d269?s=128&d=identicon&r=PG
p2871
sVuser_type
p2872
Vregistered
p2873
sVreputation
p2874
I1361
sVlink
p2875
Vhttp://stackoverflow.com/users/329344/tim-mcjilton
p2876
sVaccept_rate
p2877
I100
sVdisplay_name
p2878
VTim McJilton
p2879
ssVtitle
p2880
VIn Python, what happens when you import inside of a function?
p2881
sVlast_edit_date
p2882
I1431012763
sVquestion_id
p2883
I3095071
sa(dp2884
Vbody
p2885
V<p>How do I make <code>setup.py</code> include a file that isn't part of the code? (Specifically, it's a license file, but it could be any other thing.)</p>\u000a\u000a<p>I want to be able to control the location of the file. In the original source folder, the file is in the root of the package. (i.e. on the same level as the topmost <code>__init__.py</code>.) I want it to stay exactly there when the package is installed, regardless of operating system. How  do I do that?</p>\u000a
p2886
sVis_answered
p2887
I01
sVview_count
p2888
I51049
sVtags
p2889
(lp2890
Vpython
p2891
aVdistutils
p2892
asVlast_activity_date
p2893
I1440678443
sVanswer_count
p2894
I6
sVcreation_date
p2895
I1256295897
sVscore
p2896
I84
sVlink
p2897
Vhttp://stackoverflow.com/questions/1612733/including-non-python-files-with-setup-py
p2898
sVaccepted_answer_id
p2899
I1857436
sVowner
p2900
(dp2901
Vuser_id
p2902
I76701
sVprofile_image
p2903
Vhttps://www.gravatar.com/avatar/d24c45635a5171615a7cdb936f36daad?s=128&d=identicon&r=PG
p2904
sVuser_type
p2905
Vregistered
p2906
sVreputation
p2907
I19145
sVlink
p2908
Vhttp://stackoverflow.com/users/76701/ram-rachum
p2909
sVaccept_rate
p2910
I72
sVdisplay_name
p2911
VRam Rachum
p2912
ssVtitle
p2913
VIncluding non-Python files with setup.py
p2914
sVlast_edit_date
p2915
I1256299059
sVquestion_id
p2916
I1612733
sa(dp2917
Vclosed_date
p2918
I1401296119
sVis_answered
p2919
I01
sVclosed_reason
p2920
Vduplicate
p2921
sVview_count
p2922
I93942
sVtags
p2923
(lp2924
Vpython
p2925
aVfile
p2926
asVbody
p2927
V<p>I have noticed <code>.pyc</code> files spontaneously being generated when some <code>.py</code> file of the same name gets run. What is the difference between <code>.py</code> and <code>.pyc</code> files? </p>\u000a\u000a<p>Also, I find that having <code>.pyc</code> files lying around clutters up space. Should one delete <code>.pyc</code> files? Or is there a benefit and/or necessity to having them around?</p>\u000a\u000a<p>UPDATE: Here are 2 answered questions that are related to my question</p>\u000a\u000a<p><a href="http://stackoverflow.com/questions/2998215/if-python-is-interpreted-what-are-pyc-files">http://stackoverflow.com/questions/2998215/if-python-is-interpreted-what-are-pyc-files</a></p>\u000a\u000a<p><a href="http://stackoverflow.com/questions/3878479/python-pyc-files-main-file-not-compiled">http://stackoverflow.com/questions/3878479/python-pyc-files-main-file-not-compiled</a></p>\u000a\u000a<p><strong>This Question is not a Duplicate</strong></p>\u000a\u000a<p><em>Reason 1: Because I am asking what the difference between these two files are. The question S.Lott found named 'If Python is interpreted, what are .pyc files?' is not asking what the difference between .py and .pyc files are. It is asking what .pyc files are.</em></p>\u000a\u000a<p><em>Reason 2: Because my secondary questions 'Should one delete <code>.pyc</code> files? Or is there a benefit and/or necessity to having them around?' provide even more information on .pyc files and how one should handle them.</em> </p>\u000a\u000a<p><em>Reason 3: Because when a beginner Python programmer like myself wants to find out <strong>What is the difference between .py and .pyc files?</strong> , they will have no problem finding out the answer as they will be guided directly to my question. This helps reduce search time since the question is right to the point.</em></p>\u000a
p2928
sVlast_activity_date
p2929
I1344901684
sVanswer_count
p2930
I3
sVcreation_date
p2931
I1286915027
sVscore
p2932
I84
sVlink
p2933
Vhttp://stackoverflow.com/questions/3918689/what-is-the-difference-between-py-and-pyc-files
p2934
sVowner
p2935
(dp2936
Vdisplay_name
p2937
Vpylonicon
p2938
sVuser_type
p2939
Vdoes_not_exist
p2940
ssVtitle
p2941
VWhat is the difference between .py and .pyc files?
p2942
sVlast_edit_date
p2943
I1287274551
sVquestion_id
p2944
I3918689
sa(dp2945
Vbody
p2946
V<p>What is the difference between <code>ndarray</code> and <code>array</code> in Numpy? And where can I find the implementations in the numpy source code?</p>\u000a
p2947
sVis_answered
p2948
I01
sVview_count
p2949
I21693
sVtags
p2950
(lp2951
Vpython
p2952
aVarrays
p2953
aVnumpy
p2954
aVmultidimensional-array
p2955
asVlast_activity_date
p2956
I1490803448
sVanswer_count
p2957
I2
sVcreation_date
p2958
I1365424915
sVscore
p2959
I84
sVlink
p2960
Vhttp://stackoverflow.com/questions/15879315/what-is-the-difference-between-ndarray-and-array-in-numpy
p2961
sVaccepted_answer_id
p2962
I15879527
sVowner
p2963
(dp2964
Vuser_id
p2965
I2050944
sVprofile_image
p2966
Vhttps://www.gravatar.com/avatar/f446f070ff934a4ed7c38650948d1324?s=128&d=identicon&r=PG
p2967
sVuser_type
p2968
Vregistered
p2969
sVreputation
p2970
I605
sVlink
p2971
Vhttp://stackoverflow.com/users/2050944/flxb
p2972
sVdisplay_name
p2973
Vflxb
p2974
ssVtitle
p2975
VWhat is the difference between ndarray and array in numpy?
p2976
sVlast_edit_date
p2977
I1490803448
sVquestion_id
p2978
I15879315
sa(dp2979
Vbody
p2980
V<p>I can write something myself by finding zero-crossings of the first derivative or something, but it seems like a common-enough function to be included in standard libraries.  Anyone know of one?</p>\u000a\u000a<p>My particular application is a 2D array, but usually it would be used for finding peaks in FFTs, etc.</p>\u000a\u000a<p>Specifically, in these kinds of problems, there are multiple strong peaks, and then lots of smaller "peaks" that are just caused by noise that should be ignored.  These are just examples; not my actual data:</p>\u000a\u000a<p>1-dimensional peaks:</p>\u000a\u000a<p><a href="https://i.stack.imgur.com/eJvFQ.jpg" rel="noreferrer"><img src="https://i.stack.imgur.com/eJvFQ.jpg" alt="FFT output with peaks"></a></p>\u000a\u000a<p>2-dimensional peaks:</p>\u000a\u000a<p><img src="https://i.stack.imgur.com/MBh1r.png" alt="Radon transform output with circled peak"></p>\u000a\u000a<p>The peak-finding algorithm would find the location of these peaks (not just their values), and ideally would find the true inter-sample peak, not just the index with maximum value, probably using <a href="https://ccrma.stanford.edu/~jos/sasp/Quadratic_Peak_Interpolation.html" rel="noreferrer">quadratic interpolation</a> or something.</p>\u000a\u000a<p>Typically you only care about a few strong peaks, so they'd either be chosen because they're above a certain threshold, or because they're the first <em>n</em> peaks of an ordered list, ranked by amplitude.</p>\u000a\u000a<p>As I said, I know how to write something like this myself.  I'm just asking if there's a pre-existing function or package that's known to work well.</p>\u000a\u000a<p><strong>Update:</strong></p>\u000a\u000a<p>I <a href="http://gist.github.com/250860" rel="noreferrer">translated a MATLAB script</a> and it works decently for the 1-D case, but could be better.</p>\u000a\u000a<p><strong>Updated update:</strong></p>\u000a\u000a<p>sixtenbe <a href="https://gist.github.com/1178136" rel="noreferrer">created a better version</a> for the 1-D case.</p>\u000a
p2981
sVis_answered
p2982
I01
sVview_count
p2983
I57236
sVtags
p2984
(lp2985
Vpython
p2986
aVscipy
p2987
aVfft
p2988
aVhough-transform
p2989
asVlast_activity_date
p2990
I1483958872
sVanswer_count
p2991
I7
sVcreation_date
p2992
I1257918888
sVscore
p2993
I84
sVlink
p2994
Vhttp://stackoverflow.com/questions/1713335/peak-finding-algorithm-for-python-scipy
p2995
sVaccepted_answer_id
p2996
I1720766
sVowner
p2997
(dp2998
Vuser_id
p2999
I125507
sVprofile_image
p3000
Vhttps://www.gravatar.com/avatar/2a59853d36056b7a088f33c96e3a1619?s=128&d=identicon&r=PG
p3001
sVuser_type
p3002
Vregistered
p3003
sVreputation
p3004
I7566
sVlink
p3005
Vhttp://stackoverflow.com/users/125507/endolith
p3006
sVaccept_rate
p3007
I69
sVdisplay_name
p3008
Vendolith
p3009
ssVtitle
p3010
VPeak-finding algorithm for Python/SciPy
p3011
sVlast_edit_date
p3012
I1459276880
sVquestion_id
p3013
I1713335
sa(dp3014
Vbody
p3015
V<p>I've looked at the <a href="http://en.wikipedia.org/wiki/Pickle_%28Python%29" rel="noreferrer">pickle</a> documentation, but I don't understand where pickle is useful.</p>\u000a\u000a<p>What are some common use-cases for pickle?</p>\u000a
p3016
sVis_answered
p3017
I01
sVview_count
p3018
I10478
sVtags
p3019
(lp3020
Vpython
p3021
aVserialization
p3022
aVpickle
p3023
aVuse-case
p3024
asVlast_activity_date
p3025
I1492185105
sVanswer_count
p3026
I8
sVcreation_date
p3027
I1281345346
sVscore
p3028
I84
sVlink
p3029
Vhttp://stackoverflow.com/questions/3438675/common-use-cases-for-pickle-in-python
p3030
sVaccepted_answer_id
p3031
I3439921
sVowner
p3032
(dp3033
Vuser_id
p3034
I225262
sVprofile_image
p3035
Vhttps://www.gravatar.com/avatar/10f7602ff38f6486cb1580052746fc05?s=128&d=identicon&r=PG
p3036
sVuser_type
p3037
Vregistered
p3038
sVreputation
p3039
I10776
sVlink
p3040
Vhttp://stackoverflow.com/users/225262/satoru
p3041
sVaccept_rate
p3042
I63
sVdisplay_name
p3043
Vsatoru
p3044
ssVtitle
p3045
VCommon use-cases for pickle in Python
p3046
sVlast_edit_date
p3047
I1400463889
sVquestion_id
p3048
I3438675
sa(dp3049
Vbody
p3050
V<p>I'm trying to install new python environment on my shared hosting. I follow the steps written in <a href="http://stackoverflow.com/questions/1534210/use-different-python-version-with-virtualenv">this post</a>:</p>\u000a\u000a<pre><code>mkdir ~/src\u000awget http://www.python.org/ftp/python/2.7.1/Python-2.7.1.tgz\u000atar -zxvf Python-2.7.1.tar.gz\u000acd Python-2.7.1\u000amkdir ~/.localpython\u000a./configure --prefix=/home/&lt;user&gt;/.localpython\u000amake\u000amake install\u000a</code></pre>\u000a\u000a<p>After coming to "./configure --prefix=/home//.localpython" command I get the following output:</p>\u000a\u000a<pre><code>checking for --enable-universalsdk... no\u000achecking for --with-universal-archs... 32-bit\u000achecking MACHDEP... linux3\u000achecking EXTRAPLATDIR... \u000achecking machine type as reported by uname -m... x86_64\u000achecking for --without-gcc... no\u000achecking for gcc... no\u000achecking for cc... no\u000achecking for cl.exe... no\u000aconfigure: error: in `/home3/mikos89/Python-2.7.1':\u000aconfigure: error: no acceptable C compiler found in $PATH\u000aSee `config.log' for more details.\u000a</code></pre>\u000a\u000a<p>How can this problem be solved? I've been trying to find a solution for 3 hours but still stuck in one place.</p>\u000a\u000a<p><strong>UPDATE</strong></p>\u000a\u000a<p>Hostgator does not allow gcc on their shared accounts: <a href="http://support.hostgator.com/articles/pre-sales-questions/compatible-technologies">http://support.hostgator.com/articles/pre-sales-questions/compatible-technologies</a></p>\u000a\u000a<p>If you don't have a server, I highly recommend digitalocean, which is a great, inexpensive vps service. If you find it helpful you can sign up through <a href="https://www.digitalocean.com/?refcode=6b9bf24dceab">this link</a> which will pay a bit of my bill :)</p>\u000a
p3051
sVis_answered
p3052
I01
sVview_count
p3053
I174404
sVtags
p3054
(lp3055
Vpython
p3056
aVcompiler-errors
p3057
aVvirtualenv
p3058
asVlast_activity_date
p3059
I1482380291
sVanswer_count
p3060
I7
sVcreation_date
p3061
I1383752299
sVscore
p3062
I83
sVlink
p3063
Vhttp://stackoverflow.com/questions/19816275/no-acceptable-c-compiler-found-in-path-when-installing-python
p3064
sVowner
p3065
(dp3066
Vuser_id
p3067
I1003338
sVprofile_image
p3068
Vhttps://www.gravatar.com/avatar/6888fb9c508783eafaa91a50c5b38c89?s=128&d=identicon&r=PG
p3069
sVuser_type
p3070
Vregistered
p3071
sVreputation
p3072
I670
sVlink
p3073
Vhttp://stackoverflow.com/users/1003338/mik-ro
p3074
sVaccept_rate
p3075
I83
sVdisplay_name
p3076
Vmik.ro
p3077
ssVtitle
p3078
Vno acceptable C compiler found in $PATH when installing python
p3079
sVlast_edit_date
p3080
I1432217551
sVquestion_id
p3081
I19816275
sa(dp3082
Vbody
p3083
V<p>Is there any Django function which will let me get an object form the database, or None if nothing matches?</p>\u000a\u000a<p>Right now I'm using something like:</p>\u000a\u000a<pre><code>foo = Foo.objects.filter(bar=baz)\u000afoo = len(foo) &gt; 0 and foo.get() or None\u000a</code></pre>\u000a\u000a<p>But that's not very clear, and it's messy to have everywhere.</p>\u000a
p3084
sVis_answered
p3085
I01
sVview_count
p3086
I38386
sVtags
p3087
(lp3088
Vpython
p3089
aVdjango
p3090
asVlast_activity_date
p3091
I1489674182
sVanswer_count
p3092
I8
sVcreation_date
p3093
I1254521733
sVscore
p3094
I83
sVlink
p3095
Vhttp://stackoverflow.com/questions/1512059/django-get-an-object-form-the-db-or-none-if-nothing-matches
p3096
sVaccepted_answer_id
p3097
I17938407
sVowner
p3098
(dp3099
Vuser_id
p3100
I71522
sVprofile_image
p3101
Vhttps://www.gravatar.com/avatar/f0e286ba0482e57904e89e753a4b36e6?s=128&d=identicon&r=PG
p3102
sVuser_type
p3103
Vregistered
p3104
sVreputation
p3105
I60395
sVlink
p3106
Vhttp://stackoverflow.com/users/71522/david-wolever
p3107
sVaccept_rate
p3108
I62
sVdisplay_name
p3109
VDavid Wolever
p3110
ssVtitle
p3111
VDjango: Get an object form the DB, or &#39;None&#39; if nothing matches
p3112
sVquestion_id
p3113
I1512059
sa(dp3114
Vbody
p3115
V<p>How can I download a webpage with a user agent other than the default one on urllib2.urlopen?</p>\u000a
p3116
sVis_answered
p3117
I01
sVview_count
p3118
I106200
sVtags
p3119
(lp3120
Vpython
p3121
aVurllib2
p3122
aVuser-agent
p3123
asVlast_activity_date
p3124
I1493364366
sVanswer_count
p3125
I8
sVcreation_date
p3126
I1241008356
sVscore
p3127
I83
sVlink
p3128
Vhttp://stackoverflow.com/questions/802134/changing-user-agent-on-urllib2-urlopen
p3129
sVaccepted_answer_id
p3130
I802146
sVowner
p3131
(dp3132
Vdisplay_name
p3133
Vdas
p3134
sVuser_type
p3135
Vdoes_not_exist
p3136
ssVtitle
p3137
VChanging user agent on urllib2.urlopen
p3138
sVquestion_id
p3139
I802134
sa(dp3140
Vbody
p3141
V<p>I need to add two subplots to a figure. One subplot needs to be about three times as wide as the second (same height). I accomplished this using <code>GridSpec</code> and the <code>colspan</code> argument but I would like to do this using <code>figure</code> so I can save to PDF. I can adjust the first figure using the <code>figsize</code> argument in the constructor, but how do I change the size of the second plot?</p>\u000a
p3142
sVis_answered
p3143
I01
sVview_count
p3144
I85951
sVtags
p3145
(lp3146
Vpython
p3147
aVplot
p3148
aVmatplotlib
p3149
aVfigure
p3150
asVlast_activity_date
p3151
I1482225702
sVanswer_count
p3152
I4
sVcreation_date
p3153
I1335809342
sVscore
p3154
I83
sVlink
p3155
Vhttp://stackoverflow.com/questions/10388462/matplotlib-different-size-subplots
p3156
sVaccepted_answer_id
p3157
I10411424
sVowner
p3158
(dp3159
Vuser_id
p3160
I687739
sVprofile_image
p3161
Vhttps://www.gravatar.com/avatar/0f8509ebd65dc536971efa17a619aa08?s=128&d=identicon&r=PG
p3162
sVuser_type
p3163
Vregistered
p3164
sVreputation
p3165
I2879
sVlink
p3166
Vhttp://stackoverflow.com/users/687739/jason-strimpel
p3167
sVaccept_rate
p3168
I77
sVdisplay_name
p3169
VJason Strimpel
p3170
ssVtitle
p3171
VMatplotlib different size subplots
p3172
sVlast_edit_date
p3173
I1482225702
sVquestion_id
p3174
I10388462
sa(dp3175
Vbody
p3176
V<p>Here are the commands I am running:</p>\u000a\u000a<pre><code>$ python setup.py bdist_wheel\u000ausage: setup.py [global_opts] cmd1 [cmd1_opts] [cmd2 [cmd2_opts] ...]\u000a   or: setup.py --help [cmd1 cmd2 ...]\u000a   or: setup.py --help-commands\u000a   or: setup.py cmd --help\u000a\u000aerror: invalid command 'bdist_wheel'\u000a\u000a$ pip --version\u000apip 1.5.6 from /usr/local/lib/python3.4/site-packages (python 3.4)\u000a\u000a$ python -c "import setuptools; print(setuptools.__version__)"\u000a2.1\u000a\u000a$ python --version\u000aPython 3.4.1\u000a\u000a$ which python\u000a/usr/local/bin/python\u000a</code></pre>\u000a\u000a<p>Also, I am running a mac with homebrewed python</p>\u000a\u000a<p>Here is my setup.py script:\u000a<a href="https://gist.github.com/cloudformdesign/4791c46fe7cd52eb61cd" rel="noreferrer">https://gist.github.com/cloudformdesign/4791c46fe7cd52eb61cd</a></p>\u000a\u000a<p>I'm going absolutely crazy -- I can't figure out why this wouldn't be working.</p>\u000a
p3177
sVis_answered
p3178
I01
sVview_count
p3179
I33482
sVtags
p3180
(lp3181
Vpython
p3182
aVpip
p3183
aVsetuptools
p3184
aVpython-wheel
p3185
asVlast_activity_date
p3186
I1475154616
sVanswer_count
p3187
I5
sVcreation_date
p3188
I1414706532
sVscore
p3189
I83
sVlink
p3190
Vhttp://stackoverflow.com/questions/26664102/why-can-i-not-create-a-wheel-in-python
p3191
sVaccepted_answer_id
p3192
I26664184
sVowner
p3193
(dp3194
Vuser_id
p3195
I1036670
sVprofile_image
p3196
Vhttps://i.stack.imgur.com/8d2dr.jpg?s=128&g=1
p3197
sVuser_type
p3198
Vregistered
p3199
sVreputation
p3200
I1123
sVlink
p3201
Vhttp://stackoverflow.com/users/1036670/vitiral
p3202
sVaccept_rate
p3203
I86
sVdisplay_name
p3204
Vvitiral
p3205
ssVtitle
p3206
VWhy can I not create a wheel in python?
p3207
sVlast_edit_date
p3208
I1458954190
sVquestion_id
p3209
I26664102
sa(dp3210
Vbody
p3211
V<p>I have a model that looks like this:</p>\u000a\u000a<pre><code>class Category(models.Model):\u000a    name = models.CharField(max_length=60)\u000a\u000aclass Item(models.Model):\u000a    name = models.CharField(max_length=60)\u000a    category = models.ForeignKey(Category)\u000a</code></pre>\u000a\u000a<p>I want select count (just the count) of items for each category, so in SQL it would be as simple as this:</p>\u000a\u000a<pre><code>select category_id, count(id) from item group by category_id\u000a</code></pre>\u000a\u000a<p>Is there an equivalent of doing this "the Django way"? Or is plain SQL the only option? I am familiar with the <em>count( )</em> method in Django, however I don't see how <em>group by</em> would fit there.</p>\u000a
p3212
sVis_answered
p3213
I01
sVview_count
p3214
I58076
sVtags
p3215
(lp3216
Vpython
p3217
aVdjango
p3218
asVlast_activity_date
p3219
I1277053493
sVanswer_count
p3220
I4
sVcreation_date
p3221
I1227982768
sVscore
p3222
I83
sVlink
p3223
Vhttp://stackoverflow.com/questions/327807/django-equivalent-for-count-and-group-by
p3224
sVaccepted_answer_id
p3225
I1317837
sVowner
p3226
(dp3227
Vuser_id
p3228
I26592
sVprofile_image
p3229
Vhttps://i.stack.imgur.com/WEIsF.png?s=128&g=1
p3230
sVuser_type
p3231
Vregistered
p3232
sVreputation
p3233
I9113
sVlink
p3234
Vhttp://stackoverflow.com/users/26592/umnik700
p3235
sVaccept_rate
p3236
I95
sVdisplay_name
p3237
Vumnik700
p3238
ssVtitle
p3239
VDjango equivalent for count and group by
p3240
sVlast_edit_date
p3241
I1227992413
sVquestion_id
p3242
I327807
sa(dp3243
Vbody
p3244
V<p>Python provides a nice method for getting length of an eager iterable, <code>len(x)</code> that is. But I couldn't find anything similar for lazy iterables represented by generator comprehensions and functions. Of course, it is not hard to write something like:</p>\u000a\u000a<pre><code>def iterlen(x):\u000a  n = 0\u000a  try:\u000a    while True:\u000a      next(x)\u000a      n += 1\u000a  except StopIteration: pass\u000a  return n\u000a</code></pre>\u000a\u000a<p>But I can't get rid of a feeling that I'm reimplementing a bicycle.</p>\u000a\u000a<p>(While I was typing the function, a thought struck my mind: maybe there really is no such function, because it "destroys" its argument. Not an issue for my case, though).</p>\u000a\u000a<p>P.S.: concerning the first answers - yes, something like <code>len(list(x))</code> would work too, but that drastically increases the usage of memory.</p>\u000a\u000a<p>P.P.S.: re-checked... Disregard the P.S., seems I made a mistake while trying that, it works fine. Sorry for the trouble.</p>\u000a
p3245
sVis_answered
p3246
I01
sVview_count
p3247
I30925
sVtags
p3248
(lp3249
Vpython
p3250
aVgenerator
p3251
aViterable
p3252
asVlast_activity_date
p3253
I1493792143
sVanswer_count
p3254
I9
sVcreation_date
p3255
I1230231018
sVscore
p3256
I83
sVlink
p3257
Vhttp://stackoverflow.com/questions/393053/length-of-generator-output
p3258
sVaccepted_answer_id
p3259
I393059
sVowner
p3260
(dp3261
Vdisplay_name
p3262
VMaxim
p3263
sVuser_type
p3264
Vdoes_not_exist
p3265
ssVtitle
p3266
VLength of generator output
p3267
sVlast_edit_date
p3268
I1230232371
sVquestion_id
p3269
I393053
sa(dp3270
Vbody
p3271
V<p>Say we have a list of numbers from zero to 1000. Is there a pythonic/efficient way to produce a list of the first and every subsequent 10th item? ie. [0, 10, 20, 30 ...]</p>\u000a\u000a<p>Yes I can do this using a for loop but I'm wondering if there is a neater way to do this, perhaps even in one line?</p>\u000a
p3272
sVis_answered
p3273
I01
sVview_count
p3274
I74063
sVtags
p3275
(lp3276
Vlist
p3277
aVpython
p3278
asVlast_activity_date
p3279
I1470416481
sVanswer_count
p3280
I9
sVcreation_date
p3281
I1252564349
sVscore
p3282
I83
sVlink
p3283
Vhttp://stackoverflow.com/questions/1403674/pythonic-way-to-return-list-of-every-nth-item-in-a-larger-list
p3284
sVaccepted_answer_id
p3285
I1403693
sVowner
p3286
(dp3287
Vuser_id
p3288
I170416
sVprofile_image
p3289
Vhttps://www.gravatar.com/avatar/2cb7c37b7709e80c997af4a798265e5f?s=128&d=identicon&r=PG
p3290
sVuser_type
p3291
Vunregistered
p3292
sVreputation
p3293
I457
sVlink
p3294
Vhttp://stackoverflow.com/users/170416/p-brown
p3295
sVaccept_rate
p3296
I75
sVdisplay_name
p3297
Vp.brown
p3298
ssVtitle
p3299
VPythonic way to return list of every n&#39;th item in a larger list
p3300
sVlast_edit_date
p3301
I1252592299
sVquestion_id
p3302
I1403674
sa(dp3303
Vbody
p3304
V<p>I am very new to Python and trying to <code>&gt; pip install linkchecker</code> on Windows 7. Some notes:</p>\u000a\u000a<ul>\u000a<li>pip install is failing no matter the package. For example, <code>&gt; pip install scrapy</code> also results in the SSL error.</li>\u000a<li>Vanilla install of Python 3.4.1 included pip 1.5.6. The first thing I tried to do was install linkchecker. Python 2.7 was already installed, it came with ArcGIS. <code>python</code> and <code>pip</code> were not available from the command line until I installed 3.4.1.</li>\u000a<li><code>&gt; pip search linkchecker</code> works. Perhaps that is because pip search does not verify the site's SSL certificate.</li>\u000a<li>I am in a company network but we do not go through a proxy to reach the Internet.</li>\u000a<li>Each company computer (including mine) has a Trusted Root Certificate Authority that is used for various reasons including enabling monitoring TLS traffic to <a href="https://google.com">https://google.com</a>. Not sure if that has anything to do with it.</li>\u000a</ul>\u000a\u000a<p>Here are the contents of my <strong>pip.log</strong> after running <code>pip install linkchecker</code>:</p>\u000a\u000a<pre><code>Downloading/unpacking linkchecker\u000a  Getting page https://pypi.python.org/simple/linkchecker/\u000a  Could not fetch URL https://pypi.python.org/simple/linkchecker/: connection error: [SSL: CERTIFICATE_VERIFY_FAILED] certificate verify failed (_ssl.c:598)\u000a  Will skip URL https://pypi.python.org/simple/linkchecker/ when looking for download links for linkchecker\u000a  Getting page https://pypi.python.org/simple/\u000a  Could not fetch URL https://pypi.python.org/simple/: connection error: HTTPSConnectionPool(host='pypi.python.org', port=443): Max retries exceeded with url: /simple/ (Caused by &lt;class 'http.client.CannotSendRequest'&gt;: Request-sent)\u000a  Will skip URL https://pypi.python.org/simple/ when looking for download links for linkchecker\u000a  Cannot fetch index base URL https://pypi.python.org/simple/\u000a  URLs to search for versions for linkchecker:\u000a  * https://pypi.python.org/simple/linkchecker/\u000a  Getting page https://pypi.python.org/simple/linkchecker/\u000a  Could not fetch URL https://pypi.python.org/simple/linkchecker/: connection error: [SSL: CERTIFICATE_VERIFY_FAILED] certificate verify failed (_ssl.c:598)\u000a  Will skip URL https://pypi.python.org/simple/linkchecker/ when looking for download links for linkchecker\u000a  Could not find any downloads that satisfy the requirement linkchecker\u000aCleaning up...\u000a  Removing temporary dir C:\u005cUsers\u005cjcook\u005cAppData\u005cLocal\u005cTemp\u005cpip_build_jcook...\u000aNo distributions at all found for linkchecker\u000aException information:\u000aTraceback (most recent call last):\u000a  File "C:\u005cPython34\u005clib\u005csite-packages\u005cpip\u005cbasecommand.py", line 122, in main\u000a    status = self.run(options, args)\u000a  File "C:\u005cPython34\u005clib\u005csite-packages\u005cpip\u005ccommands\u005cinstall.py", line 278, in run\u000a    requirement_set.prepare_files(finder, force_root_egg_info=self.bundle, bundle=self.bundle)\u000a  File "C:\u005cPython34\u005clib\u005csite-packages\u005cpip\u005creq.py", line 1177, in prepare_files\u000a    url = finder.find_requirement(req_to_install, upgrade=self.upgrade)\u000a  File "C:\u005cPython34\u005clib\u005csite-packages\u005cpip\u005cindex.py", line 277, in find_requirement\u000a    raise DistributionNotFound('No distributions at all found for %s' % req)\u000apip.exceptions.DistributionNotFound: No distributions at all found for linkchecker\u000a</code></pre>\u000a
p3305
sVis_answered
p3306
I01
sVview_count
p3307
I107067
sVtags
p3308
(lp3309
Vpython
p3310
aVwindows
p3311
aVssl
p3312
aVpip
p3313
asVlast_activity_date
p3314
I1495029453
sVanswer_count
p3315
I14
sVcreation_date
p3316
I1411413920
sVscore
p3317
I83
sVlink
p3318
Vhttp://stackoverflow.com/questions/25981703/pip-install-fails-with-connection-error-ssl-certificate-verify-failed-certi
p3319
sVowner
p3320
(dp3321
Vuser_id
p3322
I1945957
sVprofile_image
p3323
Vhttps://www.gravatar.com/avatar/2b691806f42e351ccd9f0505b5f41719?s=128&d=identicon&r=PG
p3324
sVuser_type
p3325
Vregistered
p3326
sVreputation
p3327
I7298
sVlink
p3328
Vhttp://stackoverflow.com/users/1945957/jeremy-cook
p3329
sVaccept_rate
p3330
I69
sVdisplay_name
p3331
VJeremy Cook
p3332
ssVtitle
p3333
Vpip install fails with &quot;connection error: [SSL: CERTIFICATE_VERIFY_FAILED] certificate verify failed (_ssl.c:598)&quot;
p3334
sVlast_edit_date
p3335
I1412348659
sVquestion_id
p3336
I25981703
sa(dp3337
Vbody
p3338
V<p>What I'm trying to do would look like this in the command line:</p>\u000a\u000a<pre><code>&gt;&gt;&gt; import mymodule\u000a&gt;&gt;&gt; names = dir(mymodule)\u000a</code></pre>\u000a\u000a<p>How can I get a reference to all the names defined in <code>mymodule</code> from within <code>mymodule</code> itself?</p>\u000a\u000a<p>Something like this:</p>\u000a\u000a<pre><code># mymodule.py\u000anames = dir(__thismodule__)\u000a</code></pre>\u000a
p3339
sVis_answered
p3340
I01
sVview_count
p3341
I50598
sVtags
p3342
(lp3343
Vpython
p3344
asVlast_activity_date
p3345
I1393336643
sVanswer_count
p3346
I3
sVcreation_date
p3347
I1244886303
sVscore
p3348
I83
sVlink
p3349
Vhttp://stackoverflow.com/questions/990422/how-to-get-a-reference-to-current-modules-attributes-in-python
p3350
sVaccepted_answer_id
p3351
I990450
sVowner
p3352
(dp3353
Vuser_id
p3354
I1670
sVprofile_image
p3355
Vhttps://www.gravatar.com/avatar/dbb8cf725e3ad4466d5047ab112518a1?s=128&d=identicon&r=PG
p3356
sVuser_type
p3357
Vregistered
p3358
sVreputation
p3359
I3692
sVlink
p3360
Vhttp://stackoverflow.com/users/1670/guillermooo
p3361
sVaccept_rate
p3362
I88
sVdisplay_name
p3363
Vguillermooo
p3364
ssVtitle
p3365
VHow to get a reference to current module&#39;s attributes in Python
p3366
sVlast_edit_date
p3367
I1244887669
sVquestion_id
p3368
I990422
sasVquota_max
p3369
I300
sVquota_remaining
p3370
I215
s.