(dp0
Vhas_more
p1
I01
sVitems
p2
(lp3
(dp4
Vbody
p5
V<p>In <code>django.utils.functional.py</code>:</p>\u000a\u000a<pre><code>for t in type(res).mro():#&lt;-----this\u000a    if t in self.__dispatch:\u000a        return self.__dispatch[t][funcname](res, *args, **kw)\u000a</code></pre>\u000a\u000a<p>I don't understand mro.<br>\u000aWhat does <code>mro()</code> do?<br>\u000aWhat does mro mean?</p>\u000a
p6
sVis_answered
p7
I01
sVview_count
p8
I25782
sVtags
p9
(lp10
Vpython
p11
asVlast_activity_date
p12
I1489482244
sVanswer_count
p13
I3
sVcreation_date
p14
I1262747056
sVscore
p15
I83
sVlink
p16
Vhttp://stackoverflow.com/questions/2010692/what-does-mro-do-in-python
p17
sVaccepted_answer_id
p18
I2010732
sVowner
p19
(dp20
Vuser_id
p21
I234322
sVprofile_image
p22
Vhttps://www.gravatar.com/avatar/474edaacceec677e0919b16f8cb8b67e?s=128&d=identicon&r=PG
p23
sVuser_type
p24
Vregistered
p25
sVreputation
p26
I12659
sVlink
p27
Vhttp://stackoverflow.com/users/234322/zjm1126
p28
sVaccept_rate
p29
I78
sVdisplay_name
p30
Vzjm1126
p31
ssVtitle
p32
VWhat does &quot;mro()&quot; do in Python?
p33
sVlast_edit_date
p34
I1489482244
sVquestion_id
p35
I2010692
sa(dp36
Vclosed_date
p37
I1375752439
sVis_answered
p38
I01
sVclosed_reason
p39
Vduplicate
p40
sVview_count
p41
I19113
sVtags
p42
(lp43
Vpython
p44
aVargparse
p45
asVbody
p46
V<p>I think this must be easy but I do not get it.</p>\u000a\u000a<p>Assume I have the following arparse parser:</p>\u000a\u000a<pre><code>import argparse\u000a\u000aparser = argparse.ArgumentParser( version='pyargparsetest 1.0' )\u000asubparsers = parser.add_subparsers(help='commands')\u000a\u000a# all\u000aall_parser = subparsers.add_parser('all', help='process all apps')\u000a\u000a# app\u000aapp_parser = subparsers.add_parser('app', help='process a single app')\u000aapp_parser.add_argument('appname', action='store', help='name of app to process')\u000a</code></pre>\u000a\u000a<p>How can I identify, which subparser was used?\u000acalling:</p>\u000a\u000a<pre><code>print parser.parse_args(["all"])\u000a</code></pre>\u000a\u000a<p>gives me an empty namespace:</p>\u000a\u000a<pre><code>Namespace()\u000a</code></pre>\u000a
p47
sVlast_activity_date
p48
I1473723131
sVaccepted_answer_id
p49
I8250143
sVcreation_date
p50
I1322087632
sVscore
p51
I83
sVlink
p52
Vhttp://stackoverflow.com/questions/8250010/argparse-identify-which-subparser-was-used
p53
sVanswer_count
p54
I2
sVowner
p55
(dp56
Vuser_id
p57
I1062880
sVprofile_image
p58
Vhttps://www.gravatar.com/avatar/e03d7c027476f2e969b54ecb7622d8cb?s=128&d=identicon&r=PG
p59
sVuser_type
p60
Vregistered
p61
sVreputation
p62
I418
sVlink
p63
Vhttp://stackoverflow.com/users/1062880/user1062880
p64
sVdisplay_name
p65
Vuser1062880
p66
ssVtitle
p67
Vargparse: identify which subparser was used
p68
sVlast_edit_date
p69
I1322088702
sVquestion_id
p70
I8250010
sa(dp71
Vbody
p72
V<p>I have a shell that runs CentOS.</p>\u000a\u000a<p>For a project I'm doing, I need python 2.5+, but centOS is pretty dependent on 2.4.</p>\u000a\u000a<p>From what I've read, a number of things will break if you upgrade to 2.5.</p>\u000a\u000a<p>I want to install 2.5 separately from 2.4, but I'm not sure how to do it. So far I've downloaded the source tarball, untarred it, and did a <code>./configure --prefix=/opt</code> which is where I want it to end up. Can I now just <code>make, make install</code> ? Or is there more?</p>\u000a
p73
sVis_answered
p74
I01
sVview_count
p75
I163064
sVtags
p76
(lp77
Vpython
p78
aVcentos
p79
aVrpath
p80
asVlast_activity_date
p81
I1488820287
sVanswer_count
p82
I14
sVcreation_date
p83
I1253699584
sVscore
p84
I83
sVlink
p85
Vhttp://stackoverflow.com/questions/1465036/install-python-2-6-in-centos
p86
sVowner
p87
(dp88
Vuser_id
p89
I168500
sVprofile_image
p90
Vhttps://www.gravatar.com/avatar/31bbd7e6390d99a362e22bd094a25540?s=128&d=identicon&r=PG
p91
sVuser_type
p92
Vunregistered
p93
sVreputation
p94
I6446
sVlink
p95
Vhttp://stackoverflow.com/users/168500/tehryan
p96
sVaccept_rate
p97
I38
sVdisplay_name
p98
Vtehryan
p99
ssVtitle
p100
VInstall python 2.6 in CentOS
p101
sVlast_edit_date
p102
I1314765882
sVquestion_id
p103
I1465036
sa(dp104
Vbody
p105
V<p>I need to be able to switch back and forth between Python 2 and 3. How do I do that using Homebrew as I don't want to mess with path and get into trouble.\u000aRight now I have 2.7 installed through Homebrew.</p>\u000a
p106
sVis_answered
p107
I01
sVview_count
p108
I30225
sVtags
p109
(lp110
Vpython
p111
aVhomebrew
p112
asVlast_activity_date
p113
I1490625685
sVanswer_count
p114
I3
sVcreation_date
p115
I1378541482
sVscore
p116
I83
sVlink
p117
Vhttp://stackoverflow.com/questions/18671253/how-can-i-use-homebrew-to-install-both-python-2-and-3-on-mac
p118
sVaccepted_answer_id
p119
I18671336
sVowner
p120
(dp121
Vuser_id
p122
I667527
sVprofile_image
p123
Vhttps://www.gravatar.com/avatar/99afda265254a07fa1755c54c64d5a29?s=128&d=identicon&r=PG&f=1
p124
sVuser_type
p125
Vregistered
p126
sVreputation
p127
I847
sVlink
p128
Vhttp://stackoverflow.com/users/667527/mostafamv
p129
sVaccept_rate
p130
I75
sVdisplay_name
p131
VMostafaMV
p132
ssVtitle
p133
VHow can I use Homebrew to install both Python 2 and 3 on Mac?
p134
sVlast_edit_date
p135
I1448896936
sVquestion_id
p136
I18671253
sa(dp137
Vbody
p138
V<p>I'm trying to reload a module I have already imported in Python 3. I know that you only need to import once and executing the <code>import</code> command again won't do anything. </p>\u000a\u000a<p>Executing <code>reload(foo)</code> is giving this error:</p>\u000a\u000a<pre><code>Traceback (most recent call last):\u000a    File "(stdin)", line 1, in (module)\u000a    ...\u000aNameError: name 'reload' is not defined\u000a</code></pre>\u000a\u000a<p>What does the error mean?</p>\u000a
p139
sVis_answered
p140
I01
sVview_count
p141
I46183
sVtags
p142
(lp143
Vpython
p144
aVpython-3.x
p145
asVlast_activity_date
p146
I1476830681
sVanswer_count
p147
I5
sVcreation_date
p148
I1244346915
sVscore
p149
I83
sVlink
p150
Vhttp://stackoverflow.com/questions/961162/reloading-module-giving-nameerror-name-reload-is-not-defined
p151
sVowner
p152
(dp153
Vuser_id
p154
I115717
sVprofile_image
p155
Vhttps://www.gravatar.com/avatar/ec1fd10d3a569148e6fceda8a15ac311?s=128&d=identicon&r=PG
p156
sVuser_type
p157
Vregistered
p158
sVreputation
p159
I2343
sVlink
p160
Vhttp://stackoverflow.com/users/115717/lonnie-price
p161
sVaccept_rate
p162
I60
sVdisplay_name
p163
VLonnie Price
p164
ssVtitle
p165
VReloading module giving NameError: name &#39;reload&#39; is not defined
p166
sVlast_edit_date
p167
I1452977438
sVquestion_id
p168
I961162
sa(dp169
Vbody
p170
V<p>To launch programs from my Python-scripts, I'm using the following method:</p>\u000a\u000a<pre><code>def execute(command):\u000a    process = subprocess.Popen(command, shell=True, stdout=subprocess.PIPE, stderr=subprocess.STDOUT)\u000a    output = process.communicate()[0]\u000a    exitCode = process.returncode\u000a\u000a    if (exitCode == 0):\u000a        return output\u000a    else:\u000a        raise ProcessException(command, exitCode, output)\u000a</code></pre>\u000a\u000a<p>So when i launch a process like <code>Process.execute("mvn clean install")</code>, my program waits until the the process is finished, and only then i get the complete output of my program. This is annoying if i'm running a process that takes a while to finish.</p>\u000a\u000a<p>Can i let my program write the process output line by line, by polling the process output before it finishes in a loop or something?</p>\u000a\u000a<p>*<em>[EDIT]\u000aSorry i didn't search very well before posting this question. Threading is actually the key. Found an example here which shows how to do it: *</em>\u000a<a href="http://stackoverflow.com/questions/984941/python-subprocess-popen-from-a-thread">Python Subprocess.Popen from a thread</a></p>\u000a
p171
sVis_answered
p172
I01
sVview_count
p173
I67779
sVtags
p174
(lp175
Vpython
p176
aVsubprocess
p177
asVlast_activity_date
p178
I1488358219
sVanswer_count
p179
I6
sVcreation_date
p180
I1292083410
sVscore
p181
I83
sVlink
p182
Vhttp://stackoverflow.com/questions/4417546/constantly-print-subprocess-output-while-process-is-running
p183
sVaccepted_answer_id
p184
I4418193
sVowner
p185
(dp186
Vuser_id
p187
I319905
sVprofile_image
p188
Vhttps://www.gravatar.com/avatar/f93326f7ee4c9d10bce766d45a024038?s=128&d=identicon&r=PG
p189
sVuser_type
p190
Vregistered
p191
sVreputation
p192
I7455
sVlink
p193
Vhttp://stackoverflow.com/users/319905/ifischer
p194
sVaccept_rate
p195
I85
sVdisplay_name
p196
Vifischer
p197
ssVtitle
p198
VConstantly print Subprocess output while process is running
p199
sVlast_edit_date
p200
I1350295872
sVquestion_id
p201
I4417546
sa(dp202
Vbody
p203
V<p>Let's take:</p>\u000a\u000a<pre><code>l = [[1,2,3],[4,5,6],[7,8,9]]\u000a</code></pre>\u000a\u000a<p>The result I'm looking for is</p>\u000a\u000a<pre><code>r = [[1,4,7],[2,5,8],[3,6,9]]\u000a</code></pre>\u000a\u000a<p>and not</p>\u000a\u000a<pre><code>r = [(1,4,7),(2,5,8),(3,6,9)]\u000a</code></pre>\u000a\u000a<p>Much appreciated</p>\u000a
p204
sVis_answered
p205
I01
sVview_count
p206
I53566
sVtags
p207
(lp208
Vpython
p209
aVlist
p210
aVtranspose
p211
asVlast_activity_date
p212
I1479411468
sVanswer_count
p213
I8
sVcreation_date
p214
I1308948884
sVscore
p215
I83
sVlink
p216
Vhttp://stackoverflow.com/questions/6473679/transpose-list-of-lists
p217
sVaccepted_answer_id
p218
I6473724
sVowner
p219
(dp220
Vuser_id
p221
I478525
sVprofile_image
p222
Vhttps://www.gravatar.com/avatar/7f06dba5965530157d9b5bb0758e2edd?s=128&d=identicon&r=PG
p223
sVuser_type
p224
Vregistered
p225
sVreputation
p226
I1587
sVlink
p227
Vhttp://stackoverflow.com/users/478525/titus
p228
sVaccept_rate
p229
I82
sVdisplay_name
p230
Vtitus
p231
ssVtitle
p232
VTranspose list of lists
p233
sVlast_edit_date
p234
I1479411468
sVquestion_id
p235
I6473679
sa(dp236
Vbody
p237
V<p>I have got a python script which is creating an ODBC connection. The ODBC connection is generated with a connection string. In this connection string I have to include the username and password for this connection.  </p>\u000a\u000a<p>Is there an easy way to obscure this password in the file (just that nobody can read the password when I'm editing the file) ? </p>\u000a
p238
sVis_answered
p239
I01
sVview_count
p240
I90963
sVtags
p241
(lp242
Vpython
p243
aVsecurity
p244
asVlast_activity_date
p245
I1493669347
sVanswer_count
p246
I13
sVcreation_date
p247
I1222871837
sVscore
p248
I83
sVlink
p249
Vhttp://stackoverflow.com/questions/157938/hiding-a-password-in-a-python-script-insecure-obfuscation-only
p250
sVaccepted_answer_id
p251
I157975
sVowner
p252
(dp253
Vuser_id
p254
I3056
sVprofile_image
p255
Vhttps://i.stack.imgur.com/vNtC1.jpg?s=128&g=1
p256
sVuser_type
p257
Vregistered
p258
sVreputation
p259
I6138
sVlink
p260
Vhttp://stackoverflow.com/users/3056/bernhardrusch
p261
sVaccept_rate
p262
I93
sVdisplay_name
p263
Vbernhardrusch
p264
ssVtitle
p265
VHiding a password in a python script (insecure obfuscation only)
p266
sVlast_edit_date
p267
I1493669347
sVquestion_id
p268
I157938
sa(dp269
Vbody
p270
V<p>I came across some code with a line similar to</p>\u000a\u000a<pre><code>x[x&lt;2]=0\u000a</code></pre>\u000a\u000a<p>Playing around with variations, I am still stuck on what this syntax does.</p>\u000a\u000a<p>Examples:</p>\u000a\u000a<pre><code>&gt;&gt;&gt; x = [1,2,3,4,5]\u000a&gt;&gt;&gt; x[x&lt;2]\u000a1\u000a&gt;&gt;&gt; x[x&lt;3]\u000a1\u000a&gt;&gt;&gt; x[x&gt;2]\u000a2\u000a&gt;&gt;&gt; x[x&lt;2]=0\u000a&gt;&gt;&gt; x\u000a[0, 2, 3, 4, 5]\u000a</code></pre>\u000a
p271
sVis_answered
p272
I01
sVview_count
p273
I8834
sVtags
p274
(lp275
Vpython
p276
aVpython-2.7
p277
aVnumpy
p278
asVlast_activity_date
p279
I1461155492
sVanswer_count
p280
I5
sVcreation_date
p281
I1460561235
sVscore
p282
I83
sVlink
p283
Vhttp://stackoverflow.com/questions/36603042/what-does-xx-2-0-mean-in-python
p284
sVaccepted_answer_id
p285
I36603274
sVowner
p286
(dp287
Vuser_id
p288
I6107054
sVprofile_image
p289
Vhttps://www.gravatar.com/avatar/5d3d2798d6e68fa3d2b0c3af524d9345?s=128&d=identicon&r=PG&f=1
p290
sVuser_type
p291
Vregistered
p292
sVreputation
p293
I1025
sVlink
p294
Vhttp://stackoverflow.com/users/6107054/aberger
p295
sVaccept_rate
p296
I78
sVdisplay_name
p297
Vaberger
p298
ssVtitle
p299
VWhat does x[x &lt; 2] = 0 mean in Python?
p300
sVlast_edit_date
p301
I1460660894
sVquestion_id
p302
I36603042
sa(dp303
Vbody
p304
V<p>How do I connect to Gmail and determine which messages have attachments?  I then want to download each attachment, printing out the Subject: and From: for each message as I process it.</p>\u000a
p305
sVis_answered
p306
I01
sVview_count
p307
I53875
sVtags
p308
(lp309
Vjava
p310
aVpython
p311
aVperl
p312
aVgmail
p313
asVlast_activity_date
p314
I1478417350
sVanswer_count
p315
I13
sVcreation_date
p316
I1228708669
sVscore
p317
I83
sVlink
p318
Vhttp://stackoverflow.com/questions/348630/how-can-i-download-all-emails-with-attachments-from-gmail
p319
sVaccepted_answer_id
p320
I642988
sVowner
p321
(dp322
Vdisplay_name
p323
Vanon
p324
sVuser_type
p325
Vdoes_not_exist
p326
ssVtitle
p327
VHow can I download all emails with attachments from Gmail?
p328
sVlast_edit_date
p329
I1362719492
sVquestion_id
p330
I348630
sa(dp331
Vbody
p332
V<p>I am creating a GUI frontend for the Eve Online API in Python.</p>\u000a\u000a<p>I have successfully pulled the XML data from their server.</p>\u000a\u000a<p>I am trying to grab the value from a node called "name":</p>\u000a\u000a<pre><code>from xml.dom.minidom import parse\u000adom = parse("C:\u005c\u005ceve.xml")\u000aname = dom.getElementsByTagName('name')\u000aprint name\u000a</code></pre>\u000a\u000a<p>This seems to find the node, but the output is below:</p>\u000a\u000a<pre><code>[&lt;DOM Element: name at 0x11e6d28&gt;]\u000a</code></pre>\u000a\u000a<p>How could I get it to print the value of the node?</p>\u000a
p333
sVis_answered
p334
I01
sVview_count
p335
I97966
sVtags
p336
(lp337
Vpython
p338
aVdom
p339
aVminidom
p340
asVlast_activity_date
p341
I1469016918
sVanswer_count
p342
I8
sVcreation_date
p343
I1227621422
sVscore
p344
I83
sVlink
p345
Vhttp://stackoverflow.com/questions/317413/get-element-value-with-minidom-with-python
p346
sVaccepted_answer_id
p347
I317421
sVowner
p348
(dp349
Vuser_id
p350
I30786
sVprofile_image
p351
Vhttps://www.gravatar.com/avatar/6b97922752019cbec317916d927bae26?s=128&d=identicon&r=PG
p352
sVuser_type
p353
Vregistered
p354
sVreputation
p355
I6234
sVlink
p356
Vhttp://stackoverflow.com/users/30786/railsson
p357
sVaccept_rate
p358
I100
sVdisplay_name
p359
VRailsSon
p360
ssVtitle
p361
VGet Element value with minidom with Python
p362
sVlast_edit_date
p363
I1457954240
sVquestion_id
p364
I317413
sa(dp365
Vbody
p366
V<p>I have a small python project that has the following structure - </p>\u000a\u000a<pre><code>Project \u000a -- pkg01\u000a   -- test01.py\u000a -- pkg02\u000a   -- test02.py\u000a -- logging.conf\u000a</code></pre>\u000a\u000a<p>I plan to use the default logging module to print messages to stdout and a log file.\u000aTo use the logging module, some initialization is required - </p>\u000a\u000a<pre><code>import logging.config\u000a\u000alogging.config.fileConfig('logging.conf')\u000alogr = logging.getLogger('pyApp')\u000a\u000alogr.info('testing')\u000a</code></pre>\u000a\u000a<p>At present, i perform this initialization in every module before i start logging messages. Is it possible to perform this initialization only once in one place such that the same settings are reused by logging all over the project?</p>\u000a
p367
sVis_answered
p368
I01
sVview_count
p369
I53340
sVtags
p370
(lp371
Vpython
p372
aVlogging
p373
aVconfig
p374
asVlast_activity_date
p375
I1492097836
sVanswer_count
p376
I7
sVcreation_date
p377
I1364715549
sVscore
p378
I83
sVlink
p379
Vhttp://stackoverflow.com/questions/15727420/using-python-logging-in-multiple-modules
p380
sVaccepted_answer_id
p381
I15735146
sVowner
p382
(dp383
Vuser_id
p384
I1186878
sVprofile_image
p385
Vhttps://www.gravatar.com/avatar/b19193d231f59f12214ed84a22a0f311?s=128&d=identicon&r=PG
p386
sVuser_type
p387
Vregistered
p388
sVreputation
p389
I1768
sVlink
p390
Vhttp://stackoverflow.com/users/1186878/quest-monger
p391
sVaccept_rate
p392
I98
sVdisplay_name
p393
VQuest Monger
p394
ssVtitle
p395
VUsing Python logging in multiple modules
p396
sVlast_edit_date
p397
I1492097836
sVquestion_id
p398
I15727420
sa(dp399
Vbody
p400
V<p>I am trying to run statsd/graphite which uses django 1.6.</p>\u000a\u000a<p>While accessing graphite URL, I get django module error</p>\u000a\u000a<blockquote>\u000a  <p>File "/opt/graphite/webapp/graphite/urls.py", line 15, in \u000a       from django.conf.urls.defaults import *\u000a      ImportError: No module named defaults</p>\u000a</blockquote>\u000a\u000a<p>However, I do not find <strong>defaults</strong> django package inside <code>/Library/Python/2.7/site-packages/django/conf/urls/</code></p>\u000a\u000a<p>Please help fixing this issue.</p>\u000a
p401
sVis_answered
p402
I01
sVview_count
p403
I62999
sVtags
p404
(lp405
Vpython
p406
aVdjango
p407
aVgraphite
p408
aVdjango-1.6
p409
asVlast_activity_date
p410
I1463135383
sVanswer_count
p411
I2
sVcreation_date
p412
I1384371170
sVscore
p413
I83
sVlink
p414
Vhttp://stackoverflow.com/questions/19962736/django-import-error-no-module-named-django-conf-urls-defaults
p415
sVaccepted_answer_id
p416
I19962822
sVowner
p417
(dp418
Vuser_id
p419
I2384694
sVprofile_image
p420
Vhttps://www.gravatar.com/avatar/c5be8769657b6733334a3fa19efc2293?s=128&d=identicon&r=PG
p421
sVuser_type
p422
Vregistered
p423
sVreputation
p424
I1824
sVlink
p425
Vhttp://stackoverflow.com/users/2384694/user2384694
p426
sVaccept_rate
p427
I63
sVdisplay_name
p428
Vuser2384694
p429
ssVtitle
p430
VDjango import error - no module named django.conf.urls.defaults
p431
sVlast_edit_date
p432
I1425125829
sVquestion_id
p433
I19962736
sa(dp434
Vbody
p435
V<p>Consider the following:</p>\u000a\u000a<pre><code>@property\u000adef name(self):\u000a\u000a    if not hasattr(self, '_name'):\u000a\u000a        # expensive calculation\u000a        self._name = 1 + 1\u000a\u000a    return self._name\u000a</code></pre>\u000a\u000a<p>I'm new, but I think the caching could be factored out into a decorator. Only I didn't find one like it ;)</p>\u000a\u000a<p>PS the real calculation doesn't depend on mutable values</p>\u000a
p436
sVis_answered
p437
I01
sVview_count
p438
I41546
sVtags
p439
(lp440
Vpython
p441
aVcaching
p442
aVdecorator
p443
asVlast_activity_date
p444
I1468773698
sVanswer_count
p445
I11
sVcreation_date
p446
I1241280940
sVscore
p447
I83
sVlink
p448
Vhttp://stackoverflow.com/questions/815110/is-there-a-decorator-to-simply-cache-function-return-values
p449
sVowner
p450
(dp451
Vuser_id
p452
I87112
sVprofile_image
p453
Vhttps://www.gravatar.com/avatar/d8d1659b196fe8cbd800006a8d6d74e2?s=128&d=identicon&r=PG
p454
sVuser_type
p455
Vregistered
p456
sVreputation
p457
I1523
sVlink
p458
Vhttp://stackoverflow.com/users/87112/tobias
p459
sVaccept_rate
p460
I69
sVdisplay_name
p461
VTobias
p462
ssVtitle
p463
VIs there a decorator to simply cache function return values?
p464
sVquestion_id
p465
I815110
sa(dp466
Vbody
p467
V<p>I have Python classes, of which I need only one instance at runtime, so it would be sufficient to have the attributes only once per class and not per instance. If there would be more than one instance (which won't happen), all instance should have the same configuration. I wonder which of the following options would be better or more "idiomatic" Python.</p>\u000a\u000a<p>Class variables:</p>\u000a\u000a<pre><code>class MyController(Controller):\u000a\u000a  path = "something/"\u000a  children = [AController, BController]\u000a\u000a  def action(self, request):\u000a    pass\u000a</code></pre>\u000a\u000a<p>Instance variables:</p>\u000a\u000a<pre><code>class MyController(Controller):\u000a\u000a  def __init__(self):\u000a    self.path = "something/"\u000a    self.children = [AController, BController]\u000a\u000a  def action(self, request):\u000a    pass\u000a</code></pre>\u000a
p468
sVis_answered
p469
I01
sVview_count
p470
I64468
sVtags
p471
(lp472
Vpython
p473
aVclass
p474
aVvariables
p475
aVstatic
p476
aVmember
p477
asVlast_activity_date
p478
I1487389035
sVanswer_count
p479
I3
sVcreation_date
p480
I1272294869
sVscore
p481
I83
sVlink
p482
Vhttp://stackoverflow.com/questions/2714573/instance-variables-vs-class-variables-in-python
p483
sVaccepted_answer_id
p484
I2714590
sVowner
p485
(dp486
Vuser_id
p487
I238134
sVprofile_image
p488
Vhttps://www.gravatar.com/avatar/d80ce5271185447eb06b360959acd71f?s=128&d=identicon&r=PG
p489
sVuser_type
p490
Vregistered
p491
sVreputation
p492
I28672
sVlink
p493
Vhttp://stackoverflow.com/users/238134/deamon
p494
sVaccept_rate
p495
I72
sVdisplay_name
p496
Vdeamon
p497
ssVtitle
p498
VInstance variables vs. class variables in Python
p499
sVlast_edit_date
p500
I1487389035
sVquestion_id
p501
I2714573
sa(dp502
Vbody
p503
V<p>I have a multi-threading Python program, and a utility function, writeLog(message), that writes out a timestamp followed by the message. Unfortunately, the resultant log file gives no indication of which thread is generating which message. </p>\u000a\u000a<p>I would like writeLog() to be able to add something to the message to identify which thread is calling it. Obviously I could just make the threads pass this information in, but that would be a lot more work. Is there some thread equivalent of os.getpid() that I could use?</p>\u000a
p504
sVis_answered
p505
I01
sVview_count
p506
I88137
sVtags
p507
(lp508
Vpython
p509
aVmultithreading
p510
asVlast_activity_date
p511
I1492954129
sVanswer_count
p512
I5
sVcreation_date
p513
I1243501464
sVscore
p514
I83
sVlink
p515
Vhttp://stackoverflow.com/questions/919897/how-to-find-a-thread-id-in-python
p516
sVaccepted_answer_id
p517
I919928
sVowner
p518
(dp519
Vuser_id
p520
I11677
sVprofile_image
p521
Vhttps://i.stack.imgur.com/jSSjL.jpg?s=128&g=1
p522
sVuser_type
p523
Vregistered
p524
sVreputation
p525
I5937
sVlink
p526
Vhttp://stackoverflow.com/users/11677/charles-anderson
p527
sVaccept_rate
p528
I94
sVdisplay_name
p529
VCharles Anderson
p530
ssVtitle
p531
VHow to find a thread id in Python
p532
sVquestion_id
p533
I919897
sa(dp534
Vbody
p535
V<p>Say, I have two absolute paths. I need to check if the location referring to by one of the paths is a descendant of the other. If true, I need to find out the relative path of the descendant from the ancestor. What's a good way to implement this in Python? Any library that I can benefit from?</p>\u000a
p536
sVis_answered
p537
I01
sVview_count
p538
I36025
sVtags
p539
(lp540
Vpython
p541
asVlast_activity_date
p542
I1494858732
sVanswer_count
p543
I5
sVcreation_date
p544
I1314989562
sVscore
p545
I83
sVlink
p546
Vhttp://stackoverflow.com/questions/7287996/python-get-relative-path-from-comparing-two-absolute-paths
p547
sVaccepted_answer_id
p548
I7288019
sVowner
p549
(dp550
Vuser_id
p551
I338961
sVprofile_image
p552
Vhttps://www.gravatar.com/avatar/4ea49235f56ca5b4132b51ba55f14340?s=128&d=identicon&r=PG
p553
sVuser_type
p554
Vregistered
p555
sVreputation
p556
I7365
sVlink
p557
Vhttp://stackoverflow.com/users/338961/tamakisquare
p558
sVaccept_rate
p559
I84
sVdisplay_name
p560
Vtamakisquare
p561
ssVtitle
p562
VPython: Get relative path from comparing two absolute paths
p563
sVlast_edit_date
p564
I1470310911
sVquestion_id
p565
I7287996
sa(dp566
Vbody
p567
V<p>I know I can link Flask with Apache or other web servers. But, I was thinking of running Flask as a standalone server serving multiple clients simultaneously.</p>\u000a\u000a<p>Is this possible? Do I have to handle spawning multiple threads and managing them?</p>\u000a
p568
sVis_answered
p569
I01
sVview_count
p570
I58371
sVtags
p571
(lp572
Vpython
p573
aVflask
p574
asVlast_activity_date
p575
I1360765914
sVanswer_count
p576
I2
sVcreation_date
p577
I1360593252
sVscore
p578
I83
sVlink
p579
Vhttp://stackoverflow.com/questions/14814201/can-i-serve-multiple-clients-using-just-flask-app-run-as-standalone
p580
sVaccepted_answer_id
p581
I14823968
sVowner
p582
(dp583
Vuser_id
p584
I1729773
sVprofile_image
p585
Vhttps://i.stack.imgur.com/F768X.gif?s=128&g=1
p586
sVuser_type
p587
Vregistered
p588
sVreputation
p589
I15433
sVlink
p590
Vhttp://stackoverflow.com/users/1729773/atoztoa
p591
sVaccept_rate
p592
I62
sVdisplay_name
p593
VATOzTOA
p594
ssVtitle
p595
VCan I serve multiple clients using just Flask app.run() as standalone?
p596
sVlast_edit_date
p597
I1360599275
sVquestion_id
p598
I14814201
sa(dp599
Vbody
p600
V<p>I have a data file containing timestamps like "1331856000000". Unfortunately, I don't have a lot of documentation for the format, so I'm not sure how the timestamp is formatted. I've tried Python's standard <code>datetime.fromordinal()</code> and <code>datetime.fromtimestamp()</code> and a few others, but nothing matches. I'm pretty sure that particular number corresponds to the current date (e.g. 2012-3-16), but not much more.</p>\u000a\u000a<p>How do I convert this number to a <code>datetime</code>?</p>\u000a
p601
sVis_answered
p602
I01
sVview_count
p603
I85113
sVtags
p604
(lp605
Vpython
p606
aVdatetime
p607
aVtimestamp
p608
asVlast_activity_date
p609
I1477326719
sVanswer_count
p610
I1
sVcreation_date
p611
I1331933502
sVscore
p612
I83
sVlink
p613
Vhttp://stackoverflow.com/questions/9744775/how-to-convert-integer-timestamp-to-python-datetime
p614
sVaccepted_answer_id
p615
I9744811
sVowner
p616
(dp617
Vuser_id
p618
I247542
sVprofile_image
p619
Vhttps://www.gravatar.com/avatar/c125f576c3a08c0c1d4330bc565ae28c?s=128&d=identicon&r=PG
p620
sVuser_type
p621
Vregistered
p622
sVreputation
p623
I18408
sVlink
p624
Vhttp://stackoverflow.com/users/247542/cerin
p625
sVaccept_rate
p626
I62
sVdisplay_name
p627
VCerin
p628
ssVtitle
p629
VHow to convert integer timestamp to Python datetime
p630
sVlast_edit_date
p631
I1477326719
sVquestion_id
p632
I9744775
sa(dp633
Vbody
p634
V<p>According to the <a href="http://docs.python.org/library/os.path.html" rel="noreferrer">official documentation</a>, <code>os.path</code> is a module. Thus, what is the preferred way of importing it?</p>\u000a\u000a<pre><code># Should I always import it explicitly?\u000aimport os.path\u000a</code></pre>\u000a\u000a<p>Or...</p>\u000a\u000a<pre><code># Is importing os enough?\u000aimport os\u000a</code></pre>\u000a\u000a<p>Please DON'T answer "importing <code>os</code> works for me". I know, it works for me too right now (as of Python 2.6). What I want to know is any official recommendation about this issue. So, if you answer this question, please <strong>post your references</strong>.</p>\u000a
p635
sVis_answered
p636
I01
sVview_count
p637
I56037
sVtags
p638
(lp639
Vpython
p640
aVcoding-style
p641
aVpython-import
p642
asVlast_activity_date
p643
I1469529690
sVanswer_count
p644
I6
sVcreation_date
p645
I1272396386
sVscore
p646
I83
sVlink
p647
Vhttp://stackoverflow.com/questions/2724348/should-i-use-import-os-path-or-import-os
p648
sVaccepted_answer_id
p649
I2725195
sVowner
p650
(dp651
Vuser_id
p652
I124946
sVprofile_image
p653
Vhttps://www.gravatar.com/avatar/5048ffde7ab92aeeedf45959f6d13c24?s=128&d=identicon&r=PG
p654
sVuser_type
p655
Vregistered
p656
sVreputation
p657
I16699
sVlink
p658
Vhttp://stackoverflow.com/users/124946/denilson-s%c3%a1-maia
p659
sVaccept_rate
p660
I79
sVdisplay_name
p661
VDenilson S&#225; Maia
p662
ssVtitle
p663
VShould I use `import os.path` or `import os`?
p664
sVlast_edit_date
p665
I1361805034
sVquestion_id
p666
I2724348
sa(dp667
Vbody
p668
V<p>How to send a <code>multipart/form-data</code> with requests in python? How to send a file, I understand, but how to send the form data by this method can not understand.</p>\u000a
p669
sVis_answered
p670
I01
sVview_count
p671
I72593
sVtags
p672
(lp673
Vpython
p674
aVpython-2.7
p675
aVmultipartform-data
p676
aVpython-requests
p677
asVlast_activity_date
p678
I1491586502
sVanswer_count
p679
I3
sVcreation_date
p680
I1347442402
sVscore
p681
I83
sVlink
p682
Vhttp://stackoverflow.com/questions/12385179/how-to-send-a-multipart-form-data-with-requests-in-python
p683
sVowner
p684
(dp685
Vuser_id
p686
I1665263
sVprofile_image
p687
Vhttps://i.stack.imgur.com/H3nUc.gif?s=128&g=1
p688
sVuser_type
p689
Vregistered
p690
sVreputation
p691
I569
sVlink
p692
Vhttp://stackoverflow.com/users/1665263/agrynchuk
p693
sVaccept_rate
p694
I15
sVdisplay_name
p695
Vagrynchuk
p696
ssVtitle
p697
VHow to send a &quot;multipart/form-data&quot; with requests in python?
p698
sVlast_edit_date
p699
I1432742659
sVquestion_id
p700
I12385179
sa(dp701
Vbody
p702
V<p>I have recently updated my model, added a BooleanField to it however when I do <code>python manage.py syncdb</code>, it doesn't add the new field to the database for the model. How can I fix this ?</p>\u000a
p703
sVis_answered
p704
I01
sVview_count
p705
I47137
sVtags
p706
(lp707
Vpython
p708
aVdjango
p709
aVdjango-models
p710
asVlast_activity_date
p711
I1463122085
sVanswer_count
p712
I7
sVcreation_date
p713
I1256198692
sVscore
p714
I83
sVlink
p715
Vhttp://stackoverflow.com/questions/1605662/django-syncdb-and-an-updated-model
p716
sVaccepted_answer_id
p717
I1605673
sVowner
p718
(dp719
Vuser_id
p720
I151937
sVprofile_image
p721
Vhttps://www.gravatar.com/avatar/eb149575d3dcbd3aca84cc4d9d689474?s=128&d=identicon&r=PG
p722
sVuser_type
p723
Vregistered
p724
sVreputation
p725
I12947
sVlink
p726
Vhttp://stackoverflow.com/users/151937/hellnar
p727
sVaccept_rate
p728
I80
sVdisplay_name
p729
VHellnar
p730
ssVtitle
p731
Vdjango syncdb and an updated model
p732
sVquestion_id
p733
I1605662
sa(dp734
Vbody
p735
V<p>Ok, so I've read both <a href="http://www.python.org/dev/peps/pep-0008/" rel="noreferrer">PEP 8</a> and <a href="http://www.python.org/dev/peps/pep-0257/" rel="noreferrer">PEP 257</a>, and I've written lots of docstrings for functions and classes, but I'm a little unsure about what should go in a module docstring.  I figured, at a minimum, it should document the functions and classes that the module exports, but I've also seen a few modules that list author names, copyright information, etc.  Does anyone have an example of how a good python docstring should be structured?</p>\u000a
p736
sVis_answered
p737
I01
sVview_count
p738
I43726
sVtags
p739
(lp740
Vpython
p741
aVdocumentation
p742
aVmodule
p743
asVlast_activity_date
p744
I1391267290
sVanswer_count
p745
I2
sVcreation_date
p746
I1270076674
sVscore
p747
I83
sVlink
p748
Vhttp://stackoverflow.com/questions/2557110/what-to-put-in-a-python-module-docstring
p749
sVaccepted_answer_id
p750
I2557196
sVowner
p751
(dp752
Vdisplay_name
p753
Vuser297250
p754
sVuser_type
p755
Vdoes_not_exist
p756
ssVtitle
p757
VWhat to put in a python module docstring?
p758
sVquestion_id
p759
I2557110
sa(dp760
Vbody
p761
V<p>Imagine a python script that will take long time to run, and what will happen if I modify it while it's running? Will the result be different?</p>\u000a
p762
sVis_answered
p763
I01
sVview_count
p764
I13083
sVtags
p765
(lp766
Vpython
p767
asVlast_activity_date
p768
I1300096099
sVanswer_count
p769
I1
sVcreation_date
p770
I1300096025
sVscore
p771
I83
sVlink
p772
Vhttp://stackoverflow.com/questions/5296977/what-will-happen-if-i-modify-a-python-script-while-its-running
p773
sVaccepted_answer_id
p774
I5296992
sVowner
p775
(dp776
Vuser_id
p777
I325241
sVprofile_image
p778
Vhttps://www.gravatar.com/avatar/c4304a7108b702fabbaac8484393c18b?s=128&d=identicon&r=PG
p779
sVuser_type
p780
Vregistered
p781
sVreputation
p782
I11196
sVlink
p783
Vhttp://stackoverflow.com/users/325241/wong2
p784
sVaccept_rate
p785
I73
sVdisplay_name
p786
Vwong2
p787
ssVtitle
p788
VWhat will happen if I modify a Python script while it&#39;s running?
p789
sVquestion_id
p790
I5296977
sa(dp791
Vbody
p792
V<p>When researching Google App Engine (GAE), it's clear that using Django is wildly popular for developing in Python on GAE.  I've been scouring the web to find information on the costs and benefits of using Django, to find out <em>why</em> it's so popular.  While I've been able to find a wide variety of sources on <em>how</em> to run Django on GAE and the various methods of doing so, I haven't found any comparative analysis on <em>why</em> Django is preferable to using the webapp framework provided by Google.</p>\u000a\u000a<p>To be clear, it's immediately apparent why using Django on GAE is useful for developers with an existing skillset in Django (a majority of Python web developers, no doubt) or existing code in Django (where using GAE is more of a porting exercise).  My team, however, is evaluating GAE for use on an all-new project and our existing experience is with TurboGears, not Django.</p>\u000a\u000a<p>It's been quite difficult to determine why Django is beneficial to a development team when the BigTable libraries have replaced Django's ORM, sessions and authentication are necessarily changed, and Django's templating (if desirable) is available without using the entire Django stack.</p>\u000a\u000a<p>Finally, it's clear that using Django does have the advantage of providing an "exit strategy" if we later wanted to move away from GAE and need a platform to target for the exodus.</p>\u000a\u000a<p>I'd be extremely appreciative for help in pointing out <em>why</em> using Django is better than using webapp on GAE.  I'm also completely inexperienced with Django, so elaboration on smaller features and/or conveniences that work on GAE are also valuable to me.</p>\u000a
p793
sVis_answered
p794
I01
sVview_count
p795
I20364
sVtags
p796
(lp797
Vpython
p798
aVdjango
p799
aVgoogle-app-engine
p800
asVlast_activity_date
p801
I1482052584
sVanswer_count
p802
I8
sVcreation_date
p803
I1261285425
sVscore
p804
I83
sVlink
p805
Vhttp://stackoverflow.com/questions/1934914/why-use-django-on-google-app-engine
p806
sVaccepted_answer_id
p807
I1935686
sVowner
p808
(dp809
Vuser_id
p810
I167630
sVprofile_image
p811
Vhttps://www.gravatar.com/avatar/e2bd19f18550ef3b74f73180dc965e24?s=128&d=identicon&r=PG
p812
sVuser_type
p813
Vregistered
p814
sVreputation
p815
I3073
sVlink
p816
Vhttp://stackoverflow.com/users/167630/travis-bradshaw
p817
sVdisplay_name
p818
VTravis Bradshaw
p819
ssVtitle
p820
VWhy use Django on Google App Engine?
p821
sVlast_edit_date
p822
I1482052584
sVquestion_id
p823
I1934914
sa(dp824
Vbody
p825
V<p>So it's a new millennium; Apple has waved their hand; it's now legal to include a Python interpreter in an iPhone (App Store) app.</p>\u000a\u000a<p>How does one go about doing this? All the existing discussion (unsurprisingly) refers to jailbreaking. (Older question: <a href="http://stackoverflow.com/questions/43315/can-i-write-native-iphone-apps-using-python">Can I write native iPhone apps using Python</a>)</p>\u000a\u000a<p>My goal here isn't to write a PyObjC app, but to write a regular ObjC app that runs Python as an embedded library. The Python code will then call back to native Cocoa code. It's the "control logic is Python code" pattern.</p>\u000a\u000a<p>Is there a guide to getting Python built in XCode, so that my iPhone app can link it? Preferably a stripped-down Python, since I won't need 90% of the standard library.</p>\u000a\u000a<p>I can probably figure out the threading and Python-extension API; I've done that on MacOS. But only using command-line compilers, not XCode.</p>\u000a
p826
sVis_answered
p827
I01
sVview_count
p828
I40874
sVtags
p829
(lp830
Viphone
p831
aVpython
p832
aVxcode
p833
asVlast_activity_date
p834
I1339555324
sVanswer_count
p835
I3
sVcreation_date
p836
I1284220955
sVscore
p837
I83
sVlink
p838
Vhttp://stackoverflow.com/questions/3691655/embedding-python-in-an-iphone-app
p839
sVowner
p840
(dp841
Vuser_id
p842
I445148
sVprofile_image
p843
Vhttps://i.stack.imgur.com/IiKlB.png?s=128&g=1
p844
sVuser_type
p845
Vregistered
p846
sVreputation
p847
I591
sVlink
p848
Vhttp://stackoverflow.com/users/445148/andrew-plotkin
p849
sVdisplay_name
p850
VAndrew Plotkin
p851
ssVtitle
p852
VEmbedding Python in an iPhone app
p853
sVquestion_id
p854
I3691655
sa(dp855
Vbody
p856
V<p>What is the best way to remove an item from a dictionary when the item's key is unknown?  Here's a simple approach:</p>\u000a\u000a<pre><code>for key, item in some_dict.items():\u000a    if item is item_to_remove:\u000a        del some_dict[key]\u000a</code></pre>\u000a\u000a<p>Are there better ways?  Is there anything wrong with mutating (deleting items) from the dictionary while iterating it?</p>\u000a
p857
sVis_answered
p858
I01
sVview_count
p859
I158196
sVtags
p860
(lp861
Vpython
p862
aVdictionary
p863
asVlast_activity_date
p864
I1469019180
sVanswer_count
p865
I8
sVcreation_date
p866
I1301204827
sVscore
p867
I82
sVlink
p868
Vhttp://stackoverflow.com/questions/5447494/best-way-to-remove-an-item-from-a-python-dictionary
p869
sVaccepted_answer_id
p870
I5447509
sVowner
p871
(dp872
Vuser_id
p873
I565879
sVprofile_image
p874
Vhttps://www.gravatar.com/avatar/de9dab7c27809643dc51c5193d58429c?s=128&d=identicon&r=PG
p875
sVuser_type
p876
Vregistered
p877
sVreputation
p878
I2967
sVlink
p879
Vhttp://stackoverflow.com/users/565879/buttons840
p880
sVaccept_rate
p881
I82
sVdisplay_name
p882
VButtons840
p883
ssVtitle
p884
VBest way to remove an item from a Python dictionary?
p885
sVlast_edit_date
p886
I1469019180
sVquestion_id
p887
I5447494
sa(dp888
Vbody
p889
V<p>How do you execute raw SQL in SQLAlchemy?</p>\u000a\u000a<p>I have a python web app that runs on flask and interfaces to the database through SQLAlchemy. </p>\u000a\u000a<p>I need a way to run the raw SQL. The query involves multiple table joins along with Inline views. </p>\u000a\u000a<p>I've tried:</p>\u000a\u000a<pre><code>connection = db.session.connection()\u000aconnection.execute( &lt;sql here&gt; )\u000a</code></pre>\u000a\u000a<p>But I keep getting gateway errors.</p>\u000a
p890
sVis_answered
p891
I01
sVview_count
p892
I95136
sVtags
p893
(lp894
Vpython
p895
aVsql
p896
aVsqlalchemy
p897
aVflask
p898
aVflask-sqlalchemy
p899
asVlast_activity_date
p900
I1486155511
sVanswer_count
p901
I6
sVcreation_date
p902
I1375277982
sVscore
p903
I82
sVlink
p904
Vhttp://stackoverflow.com/questions/17972020/how-to-execute-raw-sql-in-sqlalchemy-flask-app
p905
sVaccepted_answer_id
p906
I17987782
sVowner
p907
(dp908
Vuser_id
p909
I1848523
sVprofile_image
p910
Vhttps://www.gravatar.com/avatar/08214190c29df715cbee9593043ccc72?s=128&d=identicon&r=PG
p911
sVuser_type
p912
Vregistered
p913
sVreputation
p914
I505
sVlink
p915
Vhttp://stackoverflow.com/users/1848523/starwing123
p916
sVdisplay_name
p917
Vstarwing123
p918
ssVtitle
p919
VHow to execute raw SQL in SQLAlchemy-flask app
p920
sVlast_edit_date
p921
I1414595867
sVquestion_id
p922
I17972020
sa(dp923
Vbody
p924
V<p>For the tuple, <code>t = ((1, 'a'),(2, 'b'))</code>\u000a<code>dict(t)</code> returns <code>{1: 'a', 2: 'b'}</code></p>\u000a\u000a<p>Is there a good way to get <code>{'a': 1, 'b': 2}</code> (keys and vals swapped)?</p>\u000a\u000a<p>I'm wanting to be able to return 1 given 'a' or 2 given 'b', perhaps converting to a dict is not the best way.</p>\u000a
p925
sVis_answered
p926
I01
sVview_count
p927
I79789
sVtags
p928
(lp929
Vpython
p930
aVdictionary
p931
aVtuples
p932
asVlast_activity_date
p933
I1488357864
sVanswer_count
p934
I6
sVcreation_date
p935
I1285290244
sVscore
p936
I82
sVlink
p937
Vhttp://stackoverflow.com/questions/3783530/python-tuple-to-dict
p938
sVaccepted_answer_id
p939
I3783546
sVowner
p940
(dp941
Vuser_id
p942
I246265
sVprofile_image
p943
Vhttps://www.gravatar.com/avatar/e05650b90009fb149828f033e55a2e57?s=128&d=identicon&r=PG
p944
sVuser_type
p945
Vregistered
p946
sVreputation
p947
I4578
sVlink
p948
Vhttp://stackoverflow.com/users/246265/jake
p949
sVaccept_rate
p950
I80
sVdisplay_name
p951
VJake
p952
ssVtitle
p953
Vpython tuple to dict
p954
sVquestion_id
p955
I3783530
sa(dp956
Vbody
p957
V<p>when i try django restarting its showing message :</p>\u000a\u000a<p>this port is already running....</p>\u000a\u000a<p>this problem specially on ubunut 10.x not all OS.how I might achieve this on the current system that I am working on? \u000a can you suggest me?</p>\u000a
p958
sVis_answered
p959
I01
sVview_count
p960
I61267
sVtags
p961
(lp962
Vpython
p963
aVdjango
p964
asVlast_activity_date
p965
I1453117902
sVanswer_count
p966
I4
sVcreation_date
p967
I1385546443
sVscore
p968
I82
sVlink
p969
Vhttp://stackoverflow.com/questions/20239232/error-that-port-is-already-in-use
p970
sVaccepted_answer_id
p971
I20240445
sVowner
p972
(dp973
Vuser_id
p974
I3016773
sVprofile_image
p975
Vhttps://i.stack.imgur.com/ybXYA.jpg?s=128&g=1
p976
sVuser_type
p977
Vregistered
p978
sVreputation
p979
I748
sVlink
p980
Vhttp://stackoverflow.com/users/3016773/ashish-kumar-saxena
p981
sVaccept_rate
p982
I45
sVdisplay_name
p983
VAshish Kumar Saxena
p984
ssVtitle
p985
VError: That port is already in use.
p986
sVquestion_id
p987
I20239232
sa(dp988
Vbody
p989
V<p>When using os.system() it's often necessary to escape filenames and other arguments passed as parameters to commands.  How can I do this?  Preferably something that would work on multiple operating systems/shells but in particular for bash.</p>\u000a\u000a<p>I'm currently doing the following, but am sure there must be a library function for this, or at least a more elegant/robust/efficient option:</p>\u000a\u000a<pre><code>def sh_escape(s):\u000a   return s.replace("(","\u005c\u005c(").replace(")","\u005c\u005c)").replace(" ","\u005c\u005c ")\u000a\u000aos.system("cat %s | grep something | sort &gt; %s" \u000a          % (sh_escape(in_filename), \u000a             sh_escape(out_filename)))\u000a</code></pre>\u000a\u000a<p><em>Edit:</em> I've accepted the simple answer of using quotes, don't know why I didn't think of that; I guess because I came from Windows where ' and " behave a little differently.</p>\u000a\u000a<p>Regarding security, I understand the concern, but, in this case, I'm interested in a quick and easy solution which os.system() provides, and the source of the strings is either not user-generated or at least entered by a trusted user (me).</p>\u000a
p990
sVis_answered
p991
I01
sVview_count
p992
I63796
sVtags
p993
(lp994
Vpython
p995
aVshell
p996
aVescaping
p997
asVlast_activity_date
p998
I1479209939
sVanswer_count
p999
I10
sVcreation_date
p1000
I1220088444
sVscore
p1001
I82
sVlink
p1002
Vhttp://stackoverflow.com/questions/35817/how-to-escape-os-system-calls-in-python
p1003
sVaccepted_answer_id
p1004
I35857
sVowner
p1005
(dp1006
Vuser_id
p1007
I3715
sVprofile_image
p1008
Vhttps://www.gravatar.com/avatar/80249086b1bd0d24c2307fe787b55e91?s=128&d=identicon&r=PG
p1009
sVuser_type
p1010
Vregistered
p1011
sVreputation
p1012
I14349
sVlink
p1013
Vhttp://stackoverflow.com/users/3715/tom
p1014
sVaccept_rate
p1015
I67
sVdisplay_name
p1016
VTom
p1017
ssVtitle
p1018
VHow to escape os.system() calls in Python?
p1019
sVlast_edit_date
p1020
I1286137465
sVquestion_id
p1021
I35817
sa(dp1022
Vbody
p1023
V<p>I'm writing a Django Middleware class that I want to execute only once at startup, to initialise some other arbritary code. I've followed the very nice solution posted by sdolan <a href="http://stackoverflow.com/questions/3495964/in-django-how-do-i-call-the-subcommand-syncdb-from-the-initialization-script">here</a>, but the "Hello" message is output to the terminal <em>twice</em>. E.g.</p>\u000a\u000a<pre><code>from django.core.exceptions import MiddlewareNotUsed\u000afrom django.conf import settings\u000a\u000aclass StartupMiddleware(object):\u000a    def __init__(self):\u000a        print "Hello world"\u000a        raise MiddlewareNotUsed('Startup complete')\u000a</code></pre>\u000a\u000a<p>and in my Django settings file, I've got the class included in the <code>MIDDLEWARE_CLASSES</code> list.</p>\u000a\u000a<p>But when I run Django using runserver and request a page, I get in the terminal</p>\u000a\u000a<pre><code>Django version 1.3, using settings 'config.server'\u000aDevelopment server is running at http://127.0.0.1:8000/\u000aQuit the server with CONTROL-C.\u000aHello world\u000a[22/Jul/2011 15:54:36] "GET / HTTP/1.1" 200 698\u000aHello world\u000a[22/Jul/2011 15:54:36] "GET /static/css/base.css HTTP/1.1" 200 0\u000a</code></pre>\u000a\u000a<p>Any ideas why "Hello world" is printed twice? Thanks.</p>\u000a
p1024
sVis_answered
p1025
I01
sVview_count
p1026
I28886
sVtags
p1027
(lp1028
Vpython
p1029
aVdjango
p1030
asVlast_activity_date
p1031
I1468854324
sVanswer_count
p1032
I4
sVcreation_date
p1033
I1311346810
sVscore
p1034
I82
sVlink
p1035
Vhttp://stackoverflow.com/questions/6791911/execute-code-when-django-starts-once-only
p1036
sVaccepted_answer_id
p1037
I6792076
sVowner
p1038
(dp1039
Vuser_id
p1040
I387265
sVprofile_image
p1041
Vhttps://www.gravatar.com/avatar/0cf5573d1e811eda76878d2de8697426?s=128&d=identicon&r=PG
p1042
sVuser_type
p1043
Vregistered
p1044
sVreputation
p1045
I470
sVlink
p1046
Vhttp://stackoverflow.com/users/387265/bob-94
p1047
sVaccept_rate
p1048
I50
sVdisplay_name
p1049
VBob_94
p1050
ssVtitle
p1051
VExecute code when Django starts ONCE only?
p1052
sVquestion_id
p1053
I6791911
sa(dp1054
Vbody
p1055
V<p>I have data, in which I want to find number of NaN, so that if it is less than some threshold, I will drop this columns. I looked, but didn't able to find any function for this. there is count_values(), but it would be slow for me, because most of values are distinct and I want count of NaN only.</p>\u000a
p1056
sVis_answered
p1057
I01
sVview_count
p1058
I63837
sVtags
p1059
(lp1060
Vpython
p1061
aVpandas
p1062
asVlast_activity_date
p1063
I1494440026
sVanswer_count
p1064
I8
sVcreation_date
p1065
I1412802019
sVscore
p1066
I82
sVlink
p1067
Vhttp://stackoverflow.com/questions/26266362/how-to-count-the-nan-values-in-the-column-in-panda-data-frame
p1068
sVowner
p1069
(dp1070
Vuser_id
p1071
I3799307
sVprofile_image
p1072
Vhttps://www.gravatar.com/avatar/e0f861d0082a4676354bcef798278e76?s=128&d=identicon&r=PG&f=1
p1073
sVuser_type
p1074
Vregistered
p1075
sVreputation
p1076
I411
sVlink
p1077
Vhttp://stackoverflow.com/users/3799307/user3799307
p1078
sVdisplay_name
p1079
Vuser3799307
p1080
ssVtitle
p1081
VHow to count the Nan values in the column in Panda Data frame
p1082
sVquestion_id
p1083
I26266362
sa(dp1084
Vbody
p1085
V<p>I'm having troubles with installing packages in Python 3.</p>\u000a\u000a<p>I have always installed packages with <code>setup.py install</code> command. But now when I try to install ansicolors package I get:</p>\u000a\u000a<blockquote>\u000a  <p>importerror "No Module named Setuptools"</p>\u000a</blockquote>\u000a\u000a<p>I have no idea what to do because I haven't have Setuptools never and still I have installed many packages with <code>setup.py install</code> command without setuptools and now I should get setuptools.</p>\u000a\u000a<p>I can't even install setuptools because I have python 3.3 and setuptools doesn't support python 3. </p>\u000a\u000a<p>Why my install command doesn't work anymore?</p>\u000a
p1086
sVis_answered
p1087
I01
sVview_count
p1088
I178702
sVtags
p1089
(lp1090
Vpython
p1091
aVmodule
p1092
aVpackage
p1093
aVsetup.py
p1094
aVpython-3.3
p1095
asVlast_activity_date
p1096
I1474290680
sVanswer_count
p1097
I7
sVcreation_date
p1098
I1358698825
sVscore
p1099
I82
sVlink
p1100
Vhttp://stackoverflow.com/questions/14426491/python-3-importerror-no-module-named-setuptools
p1101
sVaccepted_answer_id
p1102
I14426553
sVowner
p1103
(dp1104
Vuser_id
p1105
I1994934
sVprofile_image
p1106
Vhttps://www.gravatar.com/avatar/12b527ea2a667189574af3d1b4fb700e?s=128&d=identicon&r=PG
p1107
sVuser_type
p1108
Vregistered
p1109
sVreputation
p1110
I413
sVlink
p1111
Vhttp://stackoverflow.com/users/1994934/user1994934
p1112
sVdisplay_name
p1113
Vuser1994934
p1114
ssVtitle
p1115
VPython 3: ImportError &quot;No Module named Setuptools&quot;
p1116
sVlast_edit_date
p1117
I1474290680
sVquestion_id
p1118
I14426491
sa(dp1119
Vbody
p1120
V<p>I use Python and NumPy and have some problems with "transpose":</p>\u000a\u000a<pre><code>a=array([5,4])\u000aprint a\u000aprint a.T\u000a</code></pre>\u000a\u000a<p>Invoking <code>a.T</code> is not transposing the array.  If <code>a</code> is for example <code>[[],[]]</code> then it transposes correctly, but I need the transpose of <code>[...,...,...]</code>.</p>\u000a
p1121
sVis_answered
p1122
I01
sVview_count
p1123
I147618
sVtags
p1124
(lp1125
Vpython
p1126
aVnumpy
p1127
aVtranspose
p1128
asVlast_activity_date
p1129
I1493394176
sVanswer_count
p1130
I12
sVcreation_date
p1131
I1305051870
sVscore
p1132
I82
sVlink
p1133
Vhttp://stackoverflow.com/questions/5954603/transposing-a-numpy-array
p1134
sVaccepted_answer_id
p1135
I5954747
sVowner
p1136
(dp1137
Vuser_id
p1138
I530877
sVprofile_image
p1139
Vhttps://www.gravatar.com/avatar/e4fab2570e971243dc76578e0f04727a?s=128&d=identicon&r=PG
p1140
sVuser_type
p1141
Vregistered
p1142
sVreputation
p1143
I768
sVlink
p1144
Vhttp://stackoverflow.com/users/530877/thaking
p1145
sVaccept_rate
p1146
I84
sVdisplay_name
p1147
Vthaking
p1148
ssVtitle
p1149
VTransposing a NumPy array
p1150
sVlast_edit_date
p1151
I1447017706
sVquestion_id
p1152
I5954603
sa(dp1153
Vbody
p1154
V<p>Can you add new statements (like <code>print</code>, <code>raise</code>, <code>with</code>) to Python's syntax?</p>\u000a\u000a<p>Say, to allow..</p>\u000a\u000a<pre><code>mystatement "Something"\u000a</code></pre>\u000a\u000a<p>Or,</p>\u000a\u000a<pre><code>new_if True:\u000a    print "example"\u000a</code></pre>\u000a\u000a<p>Not so much if you <em>should</em>, but rather if it's possible (short of modifying the python interpreters code)</p>\u000a
p1155
sVis_answered
p1156
I01
sVview_count
p1157
I15032
sVtags
p1158
(lp1159
Vpython
p1160
aVsyntax
p1161
asVlast_activity_date
p1162
I1435714463
sVanswer_count
p1163
I13
sVcreation_date
p1164
I1224326841
sVscore
p1165
I82
sVlink
p1166
Vhttp://stackoverflow.com/questions/214881/can-you-add-new-statements-to-pythons-syntax
p1167
sVaccepted_answer_id
p1168
I9108164
sVowner
p1169
(dp1170
Vuser_id
p1171
I745
sVprofile_image
p1172
Vhttps://www.gravatar.com/avatar/edf857d71f672d8f411ef6b8376316b8?s=128&d=identicon&r=PG
p1173
sVuser_type
p1174
Vregistered
p1175
sVreputation
p1176
I100294
sVlink
p1177
Vhttp://stackoverflow.com/users/745/dbr
p1178
sVaccept_rate
p1179
I90
sVdisplay_name
p1180
Vdbr
p1181
ssVtitle
p1182
VCan you add new statements to Python&#39;s syntax?
p1183
sVquestion_id
p1184
I214881
sa(dp1185
Vbody
p1186
V<blockquote>\u000a  <p><strong>Possible Duplicate:</strong><br>\u000a  <a href="http://stackoverflow.com/questions/6987702/basic-indexing-recurrences-of-a-substring-within-a-string-python">Basic indexing recurrences of a substring within a string (python)</a>  </p>\u000a</blockquote>\u000a\u000a\u000a\u000a<p>How can I count the number of times a given substring is present within a string in Python?</p>\u000a\u000a<p>For example:</p>\u000a\u000a<pre><code>&gt;&gt;&gt; 'foo bar foo'.numberOfOccurrences('foo')\u000a2\u000a</code></pre>\u000a
p1187
sVis_answered
p1188
I01
sVview_count
p1189
I92328
sVtags
p1190
(lp1191
Vpython
p1192
aVstring
p1193
asVlast_activity_date
p1194
I1494467614
sVanswer_count
p1195
I9
sVcreation_date
p1196
I1326825753
sVscore
p1197
I82
sVlink
p1198
Vhttp://stackoverflow.com/questions/8899905/count-number-of-occurrences-of-a-given-substring-in-a-string
p1199
sVowner
p1200
(dp1201
Vuser_id
p1202
I1018828
sVprofile_image
p1203
Vhttps://www.gravatar.com/avatar/d2ca61dcbef2ddcc7118c1296129378d?s=128&d=identicon&r=PG&f=1
p1204
sVuser_type
p1205
Vregistered
p1206
sVreputation
p1207
I562
sVlink
p1208
Vhttp://stackoverflow.com/users/1018828/santosh
p1209
sVaccept_rate
p1210
I67
sVdisplay_name
p1211
Vsantosh
p1212
ssVtitle
p1213
VCount number of occurrences of a given substring in a string
p1214
sVlast_edit_date
p1215
I1412377856
sVquestion_id
p1216
I8899905
sa(dp1217
Vbody
p1218
V<p>I'm using python's <code>ftplib</code> to write a small FTP client, but some of the functions in the package don't return string output, but print to <code>stdout</code>. I want to redirect <code>stdout</code> to an object which I'll be able to read the output from.</p>\u000a\u000a<p>I know <code>stdout</code> can be redirected into any regular file with:</p>\u000a\u000a<pre><code>stdout = open("file", "a")\u000a</code></pre>\u000a\u000a<p>But I prefer a method that doesn't uses the local drive.</p>\u000a\u000a<p>I'm looking for something like the <code>BufferedReader</code> in Java that can be used to wrap a buffer into a stream.</p>\u000a
p1219
sVis_answered
p1220
I01
sVview_count
p1221
I66859
sVtags
p1222
(lp1223
Vpython
p1224
aVstream
p1225
aVstdout
p1226
aVredirect
p1227
asVlast_activity_date
p1228
I1491748865
sVanswer_count
p1229
I7
sVcreation_date
p1230
I1249220870
sVscore
p1231
I82
sVlink
p1232
Vhttp://stackoverflow.com/questions/1218933/can-i-redirect-the-stdout-in-python-into-some-sort-of-string-buffer
p1233
sVaccepted_answer_id
p1234
I1218951
sVowner
p1235
(dp1236
Vuser_id
p1237
I113094
sVprofile_image
p1238
Vhttps://www.gravatar.com/avatar/9a98371f66879d7878ccae3fa5420095?s=128&d=identicon&r=PG
p1239
sVuser_type
p1240
Vregistered
p1241
sVreputation
p1242
I1057
sVlink
p1243
Vhttp://stackoverflow.com/users/113094/avihu-turzion
p1244
sVaccept_rate
p1245
I100
sVdisplay_name
p1246
VAvihu Turzion
p1247
ssVtitle
p1248
VCan I redirect the stdout in python into some sort of string buffer?
p1249
sVlast_edit_date
p1250
I1258441984
sVquestion_id
p1251
I1218933
sa(dp1252
Vbody
p1253
V<p>Is there any efficient mass string concatenation method in Python (like <em>StringBuilder</em> in C# or <em>StringBuffer</em> in Java)? I found following methods <a href="http://skymind.com/~ocrow/python_string/" rel="noreferrer">here</a>:</p>\u000a\u000a<ul>\u000a<li>Simple concatenation using <code>+</code></li>\u000a<li>Using string list and <code>join</code> method</li>\u000a<li>Using <code>UserString</code> from <code>MutableString</code> module</li>\u000a<li>Using character array and the <code>array</code> module </li>\u000a<li>Using <code>cStringIO</code> from <code>StringIO</code> module</li>\u000a</ul>\u000a\u000a<p>But what do you experts use or suggest, and why? </p>\u000a\u000a<p>[<a href="http://stackoverflow.com/questions/1349311/python-string-join-is-faster-than-but-whats-wrong-here">A related question here</a>]</p>\u000a
p1254
sVis_answered
p1255
I01
sVview_count
p1256
I61399
sVtags
p1257
(lp1258
Vpython
p1259
aVstring
p1260
asVlast_activity_date
p1261
I1489093730
sVanswer_count
p1262
I11
sVcreation_date
p1263
I1250970821
sVscore
p1264
I82
sVlink
p1265
Vhttp://stackoverflow.com/questions/1316887/what-is-the-most-efficient-string-concatenation-method-in-python
p1266
sVaccepted_answer_id
p1267
I1316959
sVowner
p1268
(dp1269
Vuser_id
p1270
I152349
sVprofile_image
p1271
Vhttps://www.gravatar.com/avatar/c2863987c82dd78af5b99135a71df4fb?s=128&d=identicon&r=PG
p1272
sVuser_type
p1273
Vregistered
p1274
sVreputation
p1275
I8982
sVlink
p1276
Vhttp://stackoverflow.com/users/152349/mshsayem
p1277
sVaccept_rate
p1278
I74
sVdisplay_name
p1279
Vmshsayem
p1280
ssVtitle
p1281
VWhat is the most efficient string concatenation method in python?
p1282
sVlast_edit_date
p1283
I1453974166
sVquestion_id
p1284
I1316887
sa(dp1285
Vbody
p1286
V<p>When I define a task to run on several remote servers, if the task runs on server one and exits with an error, Fabric will stop and abort the task. But I want to make fabric ignore the error and run the task on the next server. How can I make it do this?</p>\u000a\u000a<p>For example:</p>\u000a\u000a<pre><code>$ fab site1_service_gw\u000a[site1rpt1] Executing task 'site1_service_gw'\u000a\u000a[site1fep1] run: echo 'Nm123!@#' | sudo -S route\u000a[site1fep1] err:\u000a[site1fep1] err: We trust you have received the usual lecture from the local System\u000a[site1fep1] err: Administrator. It usually boils down to these three things:\u000a[site1fep1] err:\u000a[site1fep1] err:     #1) Respect the privacy of others.\u000a[site1fep1] err:     #2) Think before you type.\u000a[site1fep1] err:     #3) With great power comes great responsibility.\u000a[site1fep1] err: root's password:\u000a[site1fep1] err: sudo: route: command not found\u000a\u000aFatal error: run() encountered an error (return code 1) while executing 'echo 'Nm123!@#' | sudo -S route '\u000a\u000aAborting.\u000a</code></pre>\u000a
p1287
sVis_answered
p1288
I01
sVview_count
p1289
I39376
sVtags
p1290
(lp1291
Vpython
p1292
aVfabric
p1293
asVlast_activity_date
p1294
I1474295133
sVanswer_count
p1295
I6
sVcreation_date
p1296
I1286399512
sVscore
p1297
I82
sVlink
p1298
Vhttp://stackoverflow.com/questions/3876936/how-to-continue-a-task-when-fabric-receives-an-error
p1299
sVaccepted_answer_id
p1300
I3877312
sVowner
p1301
(dp1302
Vuser_id
p1303
I222559
sVprofile_image
p1304
Vhttps://www.gravatar.com/avatar/b0e727180a039eee905ce85bac112af5?s=128&d=identicon&r=PG
p1305
sVuser_type
p1306
Vregistered
p1307
sVreputation
p1308
I798
sVlink
p1309
Vhttp://stackoverflow.com/users/222559/mingo
p1310
sVaccept_rate
p1311
I47
sVdisplay_name
p1312
VMingo
p1313
ssVtitle
p1314
VHow to continue a task when Fabric receives an error
p1315
sVlast_edit_date
p1316
I1382642511
sVquestion_id
p1317
I3876936
sa(dp1318
Vbody
p1319
V<p>I'm looking for an HTML Parser module for Python that can help me get the tags in the form of Python lists/dictionaries/objects.</p>\u000a\u000a<p>If I have a document of the form:</p>\u000a\u000a<pre><code>&lt;html&gt;\u000a&lt;head&gt;Heading&lt;/head&gt;\u000a&lt;body attr1='val1'&gt;\u000a    &lt;div class='container'&gt;\u000a        &lt;div id='class'&gt;Something here&lt;/div&gt;\u000a        &lt;div&gt;Something else&lt;/div&gt;\u000a    &lt;/div&gt;\u000a&lt;/body&gt;\u000a&lt;/html&gt;\u000a</code></pre>\u000a\u000a<p>then it should give me a way to access the nested tags via the name or id of the HTML tag so that I can basically ask it to get me the content/text in the <code>div</code> tag with <code>class='container'</code> contained within the <code>body</code> tag, or something similar.</p>\u000a\u000a<p>If you've used Firefox's "Inspect element" feature (view HTML) you would know that it gives you all the tags in a nice nested manner like a tree.</p>\u000a\u000a<p>I'd prefer a built-in module but that might be asking a little too much.</p>\u000a\u000a<hr>\u000a\u000a<p>I went through a lot of questions on Stack Overflow and a few blogs on the internet and most of them suggest BeautifulSoup or lxml or HTMLParser but few of these detail the functionality and simply end as a debate over which one is faster/more efficent.</p>\u000a
p1320
sVis_answered
p1321
I01
sVview_count
p1322
I118180
sVtags
p1323
(lp1324
Vpython
p1325
aVxml-parsing
p1326
aVhtml-parsing
p1327
asVlast_activity_date
p1328
I1468597862
sVanswer_count
p1329
I7
sVcreation_date
p1330
I1343563242
sVscore
p1331
I82
sVlink
p1332
Vhttp://stackoverflow.com/questions/11709079/parsing-html-using-python
p1333
sVaccepted_answer_id
p1334
I11709155
sVowner
p1335
(dp1336
Vuser_id
p1337
I1220089
sVprofile_image
p1338
Vhttps://i.stack.imgur.com/nljYa.jpg?s=128&g=1
p1339
sVuser_type
p1340
Vregistered
p1341
sVreputation
p1342
I3430
sVlink
p1343
Vhttp://stackoverflow.com/users/1220089/ffledgling
p1344
sVaccept_rate
p1345
I73
sVdisplay_name
p1346
Vffledgling
p1347
ssVtitle
p1348
VParsing HTML using Python
p1349
sVlast_edit_date
p1350
I1461801319
sVquestion_id
p1351
I11709079
sa(dp1352
Vclosed_date
p1353
I1431441348
sVis_answered
p1354
I01
sVclosed_reason
p1355
Voff-topic
p1356
sVview_count
p1357
I79659
sVtags
p1358
(lp1359
Vpython
p1360
aVmemcached
p1361
asVbody
p1362
V<p>I'm writing a web app using Python and the web.py framework, and I need to use memcached throughout.</p>\u000a\u000a<p>I've been searching the internet trying to find some good documentation on the <a href="http://www.tummy.com/Community/software/python-memcached/" rel="noreferrer">python-memcached</a> module, but all I could find was <a href="http://dev.mysql.com/doc/refman/5.1/en/ha-memcached-interfaces-python.html" rel="noreferrer">this example on the MySQL website</a>, and the documentation on its methods isn't great.</p>\u000a
p1363
sVlast_activity_date
p1364
I1352503889
sVaccepted_answer_id
p1365
I868731
sVcreation_date
p1366
I1242394316
sVscore
p1367
I82
sVlink
p1368
Vhttp://stackoverflow.com/questions/868690/good-examples-of-python-memcache-memcached-being-used-in-python
p1369
sVanswer_count
p1370
I3
sVowner
p1371
(dp1372
Vuser_id
p1373
I87349
sVprofile_image
p1374
Vhttps://www.gravatar.com/avatar/00f92cbdb3a1b02b19249c1e88d77b8e?s=128&d=identicon&r=PG
p1375
sVuser_type
p1376
Vregistered
p1377
sVreputation
p1378
I2019
sVlink
p1379
Vhttp://stackoverflow.com/users/87349/jonathan-prior
p1380
sVaccept_rate
p1381
I88
sVdisplay_name
p1382
VJonathan Prior
p1383
ssVtitle
p1384
VGood examples of python-memcache (memcached) being used in Python?
p1385
sVquestion_id
p1386
I868690
sa(dp1387
Vbody
p1388
V<p>I'm working with a large csv file and the next to last column has a string of text that I want to split by a specific delimiter. I was wondering if there is a simple way to do this using pandas or python?</p>\u000a\u000a<pre><code>CustNum  CustomerName     ItemQty  Item   Seatblocks                 ItemExt\u000a32363    McCartney, Paul      3     F04    2:218:10:4,6                   60\u000a31316    Lennon, John        25     F01    1:13:36:1,12 1:13:37:1,13     300\u000a</code></pre>\u000a\u000a<p>I want to split by the space<code>(' ')</code> and then the colon<code>(':')</code> in the <code>Seatblocks</code> column, but each cell would result in a different number of columns. I have a function to rearrange the columns so the <code>Seatblocks</code> column is at the end of the sheet, but I'm not sure what to do from there. I can do it in excel with the built in <code>text-to-columns</code> function and a quick macro, but my dataset has too many records for excel to handle.</p>\u000a\u000a<p>Ultimately, I want to take records such John Lennon's and create multiple lines, with the info from each set of seats on a separate line.</p>\u000a
p1389
sVis_answered
p1390
I01
sVview_count
p1391
I63691
sVtags
p1392
(lp1393
Vpython
p1394
aVpandas
p1395
aVdataframe
p1396
asVlast_activity_date
p1397
I1473842828
sVanswer_count
p1398
I3
sVcreation_date
p1399
I1371241966
sVscore
p1400
I82
sVlink
p1401
Vhttp://stackoverflow.com/questions/17116814/pandas-how-do-i-split-text-in-a-column-into-multiple-rows
p1402
sVaccepted_answer_id
p1403
I17116976
sVowner
p1404
(dp1405
Vuser_id
p1406
I1955794
sVprofile_image
p1407
Vhttps://www.gravatar.com/avatar/97d6796bce37252fb666aaec8130f1cc?s=128&d=identicon&r=PG
p1408
sVuser_type
p1409
Vregistered
p1410
sVreputation
p1411
I662
sVlink
p1412
Vhttp://stackoverflow.com/users/1955794/bradley
p1413
sVaccept_rate
p1414
I62
sVdisplay_name
p1415
VBradley
p1416
ssVtitle
p1417
Vpandas: How do I split text in a column into multiple rows?
p1418
sVlast_edit_date
p1419
I1451421785
sVquestion_id
p1420
I17116814
sa(dp1421
Vbody
p1422
V<p>Is there a built-in function that works like <code>zip()</code> but that will pad the results so that the length of the resultant list is the length of the <em>longest</em> input rather than the <em>shortest</em> input?</p>\u000a\u000a<pre><code>&gt;&gt;&gt; a=['a1']\u000a&gt;&gt;&gt; b=['b1','b2','b3']\u000a&gt;&gt;&gt; c=['c1','c2']\u000a\u000a&gt;&gt;&gt; zip(a,b,c)\u000a[('a1', 'b1', 'c1')]\u000a\u000a&gt;&gt;&gt; What command goes here?\u000a[('a1', 'b1', 'c1'), (None, 'b2', 'c2'), (None, 'b3', None)]\u000a</code></pre>\u000a
p1423
sVis_answered
p1424
I01
sVview_count
p1425
I27438
sVtags
p1426
(lp1427
Vpython
p1428
aVlist
p1429
aVzip
p1430
asVlast_activity_date
p1431
I1422594919
sVanswer_count
p1432
I2
sVcreation_date
p1433
I1250247849
sVscore
p1434
I82
sVlink
p1435
Vhttp://stackoverflow.com/questions/1277278/python-zip-like-function-that-pads-to-longest-length
p1436
sVaccepted_answer_id
p1437
I1277311
sVowner
p1438
(dp1439
Vuser_id
p1440
I116
sVprofile_image
p1441
Vhttps://i.stack.imgur.com/f6flX.jpg?s=128&g=1
p1442
sVuser_type
p1443
Vregistered
p1444
sVreputation
p1445
I140452
sVlink
p1446
Vhttp://stackoverflow.com/users/116/mark-harrison
p1447
sVaccept_rate
p1448
I94
sVdisplay_name
p1449
VMark Harrison
p1450
ssVtitle
p1451
VPython: zip-like function that pads to longest length?
p1452
sVlast_edit_date
p1453
I1250320679
sVquestion_id
p1454
I1277278
sa(dp1455
Vbody
p1456
V<p>I notice that it is often suggested to use queues with multiple treads, instead of lists and .pop(). Is this because lists are not thread-safe, or for some other reason?</p>\u000a
p1457
sVis_answered
p1458
I01
sVview_count
p1459
I39061
sVtags
p1460
(lp1461
Vpython
p1462
aVmultithreading
p1463
aVlist
p1464
aVpython-3.x
p1465
aVpython-multithreading
p1466
asVlast_activity_date
p1467
I1383315320
sVanswer_count
p1468
I3
sVcreation_date
p1469
I1307835972
sVscore
p1470
I82
sVlink
p1471
Vhttp://stackoverflow.com/questions/6319207/are-lists-thread-safe
p1472
sVaccepted_answer_id
p1473
I6319267
sVowner
p1474
(dp1475
Vuser_id
p1476
I417902
sVprofile_image
p1477
Vhttps://www.gravatar.com/avatar/40ac7da43dc62a302346e305a718aedb?s=128&d=identicon&r=PG
p1478
sVuser_type
p1479
Vregistered
p1480
sVreputation
p1481
I1273
sVlink
p1482
Vhttp://stackoverflow.com/users/417902/lemiant
p1483
sVaccept_rate
p1484
I93
sVdisplay_name
p1485
Vlemiant
p1486
ssVtitle
p1487
VAre lists thread-safe
p1488
sVquestion_id
p1489
I6319207
sa(dp1490
Vbody
p1491
V<p>I have a long list of lists of the following form ---</p>\u000a\u000a<pre><code>a = [[1.2,'abc',3],[1.2,'werew',4],........,[1.4,'qew',2]]\u000a</code></pre>\u000a\u000a<p>i.e. the values in the list are of different types -- float,int, strings.How do I write it into a csv file so that my output csv file looks like</p>\u000a\u000a<pre><code>1.2,abc,3\u000a1.2,werew,4\u000a.\u000a.\u000a.\u000a1.4,qew,2\u000a</code></pre>\u000a
p1492
sVis_answered
p1493
I01
sVview_count
p1494
I121643
sVtags
p1495
(lp1496
Vpython
p1497
aVfile
p1498
aVcsv
p1499
aVfile-io
p1500
aVpython-2.7
p1501
asVlast_activity_date
p1502
I1438053420
sVanswer_count
p1503
I7
sVcreation_date
p1504
I1356507827
sVscore
p1505
I82
sVlink
p1506
Vhttp://stackoverflow.com/questions/14037540/writing-a-python-list-of-lists-to-a-csv-file
p1507
sVaccepted_answer_id
p1508
I14037564
sVowner
p1509
(dp1510
Vdisplay_name
p1511
Vuser1403483
p1512
sVuser_type
p1513
Vdoes_not_exist
p1514
ssVtitle
p1515
VWriting a Python list of lists to a csv file
p1516
sVquestion_id
p1517
I14037540
sa(dp1518
Vclosed_date
p1519
I1426170568
sVis_answered
p1520
I01
sVclosed_reason
p1521
Voff-topic
p1522
sVview_count
p1523
I100042
sVtags
p1524
(lp1525
Vpython
p1526
asVbody
p1527
V<p>I am looking for a good Tree data structure class. I have come across <a href="http://crablfs.sourceforge.net/tree.html" rel="noreferrer">this package</a>, but since I am relatively new to Python (not programming), I dont know if there are any better ones out there.</p>\u000a\u000a<p>I'd like to hear from the Pythonistas on here - do you have a favorite tree script that you regularly use and would recommend?</p>\u000a\u000a<p><strong>[Edit]</strong></p>\u000a\u000a<p>To clarify, by 'Tree', I mean a simple unordered tree (Hmm, thats a bit of a recursive definition - but hopefully, that clarifies things somewhat). Regarding what I need the tree for (i.e. use case). I am reading tree data from a flat file and I need to build a tree from the data and traverse all nodes in the tree.</p>\u000a
p1528
sVlast_activity_date
p1529
I1486718103
sVaccepted_answer_id
p1530
I3010038
sVcreation_date
p1531
I1276117523
sVscore
p1532
I82
sVlink
p1533
Vhttp://stackoverflow.com/questions/3009935/looking-for-a-good-python-tree-data-structure
p1534
sVanswer_count
p1535
I10
sVowner
p1536
(dp1537
Vuser_id
p1538
I312675
sVprofile_image
p1539
Vhttps://www.gravatar.com/avatar/2b5ec4dc857f5b2d472d7850065ed1c3?s=128&d=identicon&r=PG
p1540
sVuser_type
p1541
Vregistered
p1542
sVreputation
p1543
I5371
sVlink
p1544
Vhttp://stackoverflow.com/users/312675/morpheous
p1545
sVaccept_rate
p1546
I94
sVdisplay_name
p1547
Vmorpheous
p1548
ssVtitle
p1549
VLooking for a good Python Tree data structure
p1550
sVlast_edit_date
p1551
I1276118855
sVquestion_id
p1552
I3009935
sa(dp1553
Vclosed_date
p1554
I1422817172
sVis_answered
p1555
I01
sVprotected_date
p1556
I1334144613
sVclosed_reason
p1557
Voff-topic
p1558
sVview_count
p1559
I46649
sVtags
p1560
(lp1561
Vpython
p1562
aVopen-source
p1563
aVnlp
p1564
asVbody
p1565
V<p>I'm looking for an open source implementation, preferably in python, of <strong>Textual Sentiment Analysis</strong> (<a href="http://en.wikipedia.org/wiki/Sentiment_analysis" rel="noreferrer">http://en.wikipedia.org/wiki/Sentiment_analysis</a>). Is anyone familiar with such open source implementation I can use?</p>\u000a\u000a<p>I'm writing an application that searches twitter for some search term, say "youtube", and counts "happy" tweets vs. "sad" tweets. \u000aI'm using Google's appengine, so it's in python. I'd like to be able to classify the returned search results from twitter and I'd like to do that in python.\u000aI haven't been able to find such sentiment analyzer so far, specifically not in python. \u000aAre you familiar with such open source implementation I can use? Preferably this is already in python, but if not, hopefully I can translate it to python.</p>\u000a\u000a<p>Note, the texts I'm analyzing are VERY short, they are tweets. So ideally, this classifier is optimized for such short texts.</p>\u000a\u000a<p>BTW, twitter does support the ":)" and ":(" operators in search, which aim to do just this, but unfortunately, the classification provided by them isn't that great, so I figured I might give this a try myself.</p>\u000a\u000a<p>Thanks!</p>\u000a\u000a<p>BTW, an early demo is <a href="http://twitgraph.appspot.com/?show_inputs=1&amp;duration=30&amp;q=youtube+annotations" rel="noreferrer">here</a> and the code I have so far is <a href="http://code.google.com/p/twitgraph/" rel="noreferrer">here</a> and I'd love to opensource it with any interested developer.</p>\u000a
p1566
sVlast_activity_date
p1567
I1492860018
sVaccepted_answer_id
p1568
I574015
sVcreation_date
p1569
I1235251224
sVscore
p1570
I82
sVlink
p1571
Vhttp://stackoverflow.com/questions/573768/sentiment-analysis-for-twitter-in-python
p1572
sVanswer_count
p1573
I12
sVowner
p1574
(dp1575
Vuser_id
p1576
I10272
sVprofile_image
p1577
Vhttps://www.gravatar.com/avatar/2cdc5c3059c40c76d5ca7bec8d149f9e?s=128&d=identicon&r=PG
p1578
sVuser_type
p1579
Vregistered
p1580
sVreputation
p1581
I4334
sVlink
p1582
Vhttp://stackoverflow.com/users/10272/ran
p1583
sVaccept_rate
p1584
I78
sVdisplay_name
p1585
VRan
p1586
ssVtitle
p1587
VSentiment analysis for Twitter in Python
p1588
sVlast_edit_date
p1589
I1332831472
sVquestion_id
p1590
I573768
sa(dp1591
Vbody
p1592
V<p>I have <code>dt = datetime(2013,9,1,11)</code>, and I would like to get a Unix timestamp of this datetime object.</p>\u000a\u000a<p>When I do <code>dt - datetime(1970,1,1)).total_seconds()</code> I got the timestamp <code>1378033200</code>.</p>\u000a\u000a<p>When converting it back using <code>datetime.fromtimestamp</code> I got <code>datetime.datetime(2013, 9, 1, 6, 0)</code>.</p>\u000a\u000a<p>The hour doesn't match. What did I miss here?</p>\u000a
p1593
sVis_answered
p1594
I01
sVview_count
p1595
I152363
sVtags
p1596
(lp1597
Vpython
p1598
aVdatetime
p1599
aVtimestamp
p1600
asVlast_activity_date
p1601
I1485191039
sVanswer_count
p1602
I5
sVcreation_date
p1603
I1383697154
sVscore
p1604
I82
sVlink
p1605
Vhttp://stackoverflow.com/questions/19801727/convert-datetime-to-unix-timestamp-and-convert-it-back-in-python
p1606
sVaccepted_answer_id
p1607
I19801806
sVowner
p1608
(dp1609
Vuser_id
p1610
I2831663
sVprofile_image
p1611
Vhttps://www.gravatar.com/avatar/e47e21eab99a99158a077632a79218cb?s=128&d=identicon&r=PG&f=1
p1612
sVuser_type
p1613
Vregistered
p1614
sVreputation
p1615
I726
sVlink
p1616
Vhttp://stackoverflow.com/users/2831663/kun
p1617
sVaccept_rate
p1618
I100
sVdisplay_name
p1619
VKun
p1620
ssVtitle
p1621
VConvert datetime to Unix timestamp and convert it back in python
p1622
sVlast_edit_date
p1623
I1414812224
sVquestion_id
p1624
I19801727
sa(dp1625
Vbody
p1626
V<p>I am creating a program that reads a file and if the first line of the file is not blank, it reads the next four lines.  Calculations are performed on those lines and then the next line is read.  If that line is not empty it continues.  However, I am getting this error:</p>\u000a\u000a<pre><code>ValueError: invalid literal for int() with base 10: ''.` \u000a</code></pre>\u000a\u000a<p>It is reading the first line but can't convert it to an integer.  </p>\u000a\u000a<p>What can I do to fix this problem?</p>\u000a\u000a<p>The Code:</p>\u000a\u000a<pre><code>file_to_read = raw_input("Enter file name of tests (empty string to end program):")\u000atry:\u000a    infile = open(file_to_read, 'r')\u000a    while file_to_read != " ":\u000a        file_to_write = raw_input("Enter output file name (.csv will be appended to it):")\u000a        file_to_write = file_to_write + ".csv"\u000a        outfile = open(file_to_write, "w")\u000a        readings = (infile.readline())\u000a        print readings\u000a        while readings != 0:\u000a            global count\u000a            readings = int(readings)\u000a            minimum = (infile.readline())\u000a            maximum = (infile.readline())\u000a</code></pre>\u000a
p1627
sVis_answered
p1628
I01
sVview_count
p1629
I377217
sVtags
p1630
(lp1631
Vpython
p1632
asVlast_activity_date
p1633
I1493021138
sVanswer_count
p1634
I8
sVcreation_date
p1635
I1259861659
sVscore
p1636
I82
sVlink
p1637
Vhttp://stackoverflow.com/questions/1841565/valueerror-invalid-literal-for-int-with-base-10
p1638
sVowner
p1639
(dp1640
Vuser_id
p1641
I224099
sVprofile_image
p1642
Vhttps://www.gravatar.com/avatar/daa0fdcb429425a7745bbf889d120a48?s=128&d=identicon&r=PG
p1643
sVuser_type
p1644
Vunregistered
p1645
sVreputation
p1646
I411
sVlink
p1647
Vhttp://stackoverflow.com/users/224099/sarah-cox
p1648
sVdisplay_name
p1649
VSarah Cox
p1650
ssVtitle
p1651
VValueError: invalid literal for int() with base 10: &#39;&#39;
p1652
sVlast_edit_date
p1653
I1260353934
sVquestion_id
p1654
I1841565
sa(dp1655
Vbody
p1656
V<p>I recently installed Python 3.1 and the Pygame module for Python 3.1  When I type import python in the console I get the following error:</p>\u000a\u000a<pre><code>Traceback (most recent call last):\u000a  File "&lt;pyshell#2&gt;", line 1, in &lt;module&gt;\u000a    import pygame\u000a  File "C:\u005cPython31\u005clib\u005csite-packages\u005cpygame\u005c__init__.py", line 95, in &lt;module&gt;\u000a    from pygame.base import *\u000aImportError: DLL load failed: %1 is not a valid Win32 application.\u000a</code></pre>\u000a\u000a<p>Please help!</p>\u000a
p1657
sVis_answered
p1658
I01
sVview_count
p1659
I146880
sVtags
p1660
(lp1661
Vpython
p1662
aVpygame
p1663
asVlast_activity_date
p1664
I1459481921
sVanswer_count
p1665
I5
sVcreation_date
p1666
I1294888218
sVscore
p1667
I82
sVlink
p1668
Vhttp://stackoverflow.com/questions/4676433/solving-dll-load-failed-1-is-not-a-valid-win32-application-for-pygame
p1669
sVaccepted_answer_id
p1670
I4676478
sVowner
p1671
(dp1672
Vuser_id
p1673
I372526
sVprofile_image
p1674
Vhttps://www.gravatar.com/avatar/1ffade2b226578a12a4b0d949e5199ee?s=128&d=identicon&r=PG&f=1
p1675
sVuser_type
p1676
Vregistered
p1677
sVreputation
p1678
I2002
sVlink
p1679
Vhttp://stackoverflow.com/users/372526/parseltongue
p1680
sVaccept_rate
p1681
I92
sVdisplay_name
p1682
VParseltongue
p1683
ssVtitle
p1684
VSolving &quot;DLL load failed: %1 is not a valid Win32 application.&quot; for Pygame
p1685
sVquestion_id
p1686
I4676433
sa(dp1687
Vbody
p1688
V<p>I am trying to find out the version of Visual Studio that is used to compile the Python on my computer</p>\u000a\u000a<p>It says </p>\u000a\u000a<pre class="lang-none prettyprint-override"><code>Python 2.6.2 (r262:71605, Apr 14 2009, 22:40:02) [MSC v.1500 32 bit (Intel)] on win32\u000a</code></pre>\u000a\u000a<p>What I do not understand is this <code>MSC V.1500</code> designation. Does it mean it is compiled with Visual Studio 2005? I cannot find this information on <a href="http://python.org" rel="noreferrer">http://python.org</a>.</p>\u000a
p1689
sVis_answered
p1690
I01
sVview_count
p1691
I36602
sVtags
p1692
(lp1693
Vpython
p1694
aVwindows
p1695
aVvisual-studio
p1696
aVvisual-c++
p1697
asVlast_activity_date
p1698
I1495095408
sVanswer_count
p1699
I2
sVcreation_date
p1700
I1271780221
sVscore
p1701
I82
sVlink
p1702
Vhttp://stackoverflow.com/questions/2676763/what-version-of-visual-studio-is-python-on-my-computer-compiled-with
p1703
sVaccepted_answer_id
p1704
I2676904
sVowner
p1705
(dp1706
Vuser_id
p1707
I126666
sVprofile_image
p1708
Vhttps://www.gravatar.com/avatar/782f3cc0277ee4948c00387184d3e703?s=128&d=identicon&r=PG
p1709
sVuser_type
p1710
Vregistered
p1711
sVreputation
p1712
I1766
sVlink
p1713
Vhttp://stackoverflow.com/users/126666/leon
p1714
sVaccept_rate
p1715
I71
sVdisplay_name
p1716
Vleon 
p1717
ssVtitle
p1718
VWhat version of Visual Studio is Python on my computer compiled with?
p1719
sVlast_edit_date
p1720
I1397477880
sVquestion_id
p1721
I2676763
sa(dp1722
Vclosed_date
p1723
I1332789813
sVis_answered
p1724
I01
sVclosed_reason
p1725
Vexact duplicate
p1726
sVview_count
p1727
I34180
sVtags
p1728
(lp1729
Vpython
p1730
asVbody
p1731
V<blockquote>\u000a  <p><strong>Possible Duplicate:</strong><br>\u000a  <a href="http://stackoverflow.com/questions/2970608/what-are-named-tuples-in-python">What are &ldquo;named tuples&rdquo; in Python?</a>  </p>\u000a</blockquote>\u000a\u000a\u000a\u000a<p>What is the situation where a namedtuple should be used?</p>\u000a\u000a<p>When I looked into it, it looked like a way to make tuples more like dictionaries. How do they compare to dictionaries? </p>\u000a\u000a<p>Can only the same hashable types for dictionaries be used for namedtuples?</p>\u000a
p1732
sVlast_activity_date
p1733
I1332766550
sVaccepted_answer_id
p1734
I9872434
sVcreation_date
p1735
I1332765436
sVscore
p1736
I82
sVlink
p1737
Vhttp://stackoverflow.com/questions/9872255/when-and-why-should-i-use-a-namedtuple-instead-of-a-dictionary
p1738
sVanswer_count
p1739
I2
sVowner
p1740
(dp1741
Vuser_id
p1742
I1128618
sVprofile_image
p1743
Vhttps://www.gravatar.com/avatar/c38dbe15d311570f54dccef9cb506c68?s=128&d=identicon&r=PG
p1744
sVuser_type
p1745
Vregistered
p1746
sVreputation
p1747
I3591
sVlink
p1748
Vhttp://stackoverflow.com/users/1128618/jack-of-all-trades
p1749
sVaccept_rate
p1750
I92
sVdisplay_name
p1751
VJack_of_All_Trades
p1752
ssVtitle
p1753
VWhen and why should I use a namedtuple instead of a dictionary?
p1754
sVlast_edit_date
p1755
I1332766550
sVquestion_id
p1756
I9872255
sa(dp1757
Vbody
p1758
V<p>I want to change the following code</p>\u000a\u000a<pre><code>for directory, dirs, files in os.walk(directory_1):\u000a    do_something()\u000a\u000afor directory, dirs, files in os.walk(directory_2):\u000a    do_something()\u000a</code></pre>\u000a\u000a<p>to this code:</p>\u000a\u000a<pre><code>for directory, dirs, files in os.walk(directory_1) + os.walk(directory_2):\u000a    do_something()\u000a</code></pre>\u000a\u000a<p>I get the error:</p>\u000a\u000a<blockquote>\u000a  <p>unsupported operand type(s) for +: 'generator' and 'generator'</p>\u000a</blockquote>\u000a\u000a<p>My question is, how to join two generators in Python?</p>\u000a\u000a<p>Thank you very much!</p>\u000a
p1759
sVis_answered
p1760
I01
sVview_count
p1761
I23472
sVtags
p1762
(lp1763
Vpython
p1764
aVgenerator
p1765
asVlast_activity_date
p1766
I1452856754
sVanswer_count
p1767
I3
sVcreation_date
p1768
I1278664145
sVscore
p1769
I82
sVlink
p1770
Vhttp://stackoverflow.com/questions/3211041/how-to-join-two-generators-in-python
p1771
sVowner
p1772
(dp1773
Vuser_id
p1774
I387523
sVprofile_image
p1775
Vhttps://www.gravatar.com/avatar/feefaaf63567f32c29902153d1d731bc?s=128&d=identicon&r=PG
p1776
sVuser_type
p1777
Vregistered
p1778
sVreputation
p1779
I411
sVlink
p1780
Vhttp://stackoverflow.com/users/387523/homer-xing
p1781
sVdisplay_name
p1782
VHomer Xing
p1783
ssVtitle
p1784
VHow to join two generators in Python?
p1785
sVquestion_id
p1786
I3211041
sa(dp1787
Vbody
p1788
V<p>Python sorts by byte value by default, which means  comes after z and other equally funny things. What is the best way to sort alphabetically in Python?</p>\u000a\u000a<p>Is there a library for this? I couldn't find anything. Preferrably sorting should have language support so it understands that  should be sorted after z in Swedish, but that  should be sorted by u, etc. Unicode support is thereby pretty much a requirement.</p>\u000a\u000a<p>If there is no library for it, what is the best way to do this? Just make a mapping from letter to a integer value and map the string to a integer list with that?</p>\u000a
p1789
sVis_answered
p1790
I01
sVview_count
p1791
I24846
sVtags
p1792
(lp1793
Vpython
p1794
aVsorting
p1795
aVunicode
p1796
aVinternationalization
p1797
aVcollation
p1798
asVlast_activity_date
p1799
I1464181001
sVanswer_count
p1800
I11
sVcreation_date
p1801
I1247057949
sVscore
p1802
I82
sVlink
p1803
Vhttp://stackoverflow.com/questions/1097908/how-do-i-sort-unicode-strings-alphabetically-in-python
p1804
sVaccepted_answer_id
p1805
I1098160
sVowner
p1806
(dp1807
Vuser_id
p1808
I126214
sVprofile_image
p1809
Vhttps://www.gravatar.com/avatar/9ff70f96fa67c2a3c80ecf0486138bc2?s=128&d=identicon&r=PG
p1810
sVuser_type
p1811
Vregistered
p1812
sVreputation
p1813
I82828
sVlink
p1814
Vhttp://stackoverflow.com/users/126214/lennart-regebro
p1815
sVaccept_rate
p1816
I100
sVdisplay_name
p1817
VLennart Regebro
p1818
ssVtitle
p1819
VHow do I sort unicode strings alphabetically in Python?
p1820
sVlast_edit_date
p1821
I1297699232
sVquestion_id
p1822
I1097908
sa(dp1823
Vbody
p1824
V<p>I'm scripting the checkout, build, distribution, test, and commit cycle for a large C++ solution that is using <a href="http://en.wikipedia.org/wiki/Monotone_%28software%29" rel="noreferrer">Monotone</a>, <a href="http://en.wikipedia.org/wiki/CMake" rel="noreferrer">CMake</a>, Visual Studio Express 2008, and custom tests.  </p>\u000a\u000a<p>All of the other parts seem pretty straight-forward, but I don't see how to compile the Visual Studio solution without getting the GUI.  </p>\u000a\u000a<p>The script is written in Python, but an answer that would allow me to just make a call to: os.system would do.</p>\u000a
p1825
sVis_answered
p1826
I01
sVview_count
p1827
I99634
sVtags
p1828
(lp1829
Vc++
p1830
aVpython
p1831
aVvisual-studio-2008
p1832
aVcommand-line
p1833
asVlast_activity_date
p1834
I1443514849
sVanswer_count
p1835
I6
sVcreation_date
p1836
I1233370345
sVscore
p1837
I82
sVlink
p1838
Vhttp://stackoverflow.com/questions/498106/how-do-i-compile-a-visual-studio-project-from-the-command-line
p1839
sVaccepted_answer_id
p1840
I498130
sVowner
p1841
(dp1842
Vuser_id
p1843
I2242
sVprofile_image
p1844
Vhttps://www.gravatar.com/avatar/57529d0b8604a2b28a00e8ad0bb68431?s=128&d=identicon&r=PG
p1845
sVuser_type
p1846
Vregistered
p1847
sVreputation
p1848
I5098
sVlink
p1849
Vhttp://stackoverflow.com/users/2242/john-mulder
p1850
sVaccept_rate
p1851
I86
sVdisplay_name
p1852
VJohn Mulder
p1853
ssVtitle
p1854
VHow do I compile a Visual Studio project from the command-line?
p1855
sVlast_edit_date
p1856
I1267306610
sVquestion_id
p1857
I498106
sa(dp1858
Vbody
p1859
V<p>I'd like to know the best way (more compact and "pythonic" way) to do a special treatment for the last element in a for loop. There is a piece of code that should be called only <em>between</em> elements, being suppressed in the last one.</p>\u000a\u000a<p>Here is how I currently do it:</p>\u000a\u000a<pre><code>for i, data in enumerate(data_list):\u000a    code_that_is_done_for_every_element\u000a    if i != len(data_list) - 1:\u000a        code_that_is_done_between_elements\u000a</code></pre>\u000a\u000a<p>Is there any better way?</p>\u000a\u000a<p>Note: I don't want to make it with hacks such as using <code>reduce</code> ;)</p>\u000a
p1860
sVis_answered
p1861
I01
sVview_count
p1862
I61160
sVtags
p1863
(lp1864
Vfor-loop
p1865
aVpython
p1866
aVidioms
p1867
aVfencepost
p1868
asVlast_activity_date
p1869
I1491227123
sVanswer_count
p1870
I14
sVcreation_date
p1871
I1256644473
sVscore
p1872
I82
sVlink
p1873
Vhttp://stackoverflow.com/questions/1630320/what-is-the-pythonic-way-to-detect-the-last-element-in-a-python-for-loop
p1874
sVaccepted_answer_id
p1875
I1630350
sVowner
p1876
(dp1877
Vuser_id
p1878
I130627
sVprofile_image
p1879
Vhttps://www.gravatar.com/avatar/6036618d1313b418a1c464e2f24f1018?s=128&d=identicon&r=PG
p1880
sVuser_type
p1881
Vregistered
p1882
sVreputation
p1883
I2107
sVlink
p1884
Vhttp://stackoverflow.com/users/130627/e-tadeu
p1885
sVaccept_rate
p1886
I40
sVdisplay_name
p1887
Ve.tadeu
p1888
ssVtitle
p1889
VWhat is the pythonic way to detect the last element in a python &#39;for&#39; loop?
p1890
sVlast_edit_date
p1891
I1322500693
sVquestion_id
p1892
I1630320
sa(dp1893
Vbody
p1894
V<p>Python code to load data from some long complicated JSON file:</p>\u000a\u000a<pre><code>with open(filename, "r") as f:\u000a  data = json.loads(f.read())\u000a</code></pre>\u000a\u000a<p>For many types of JSON error (missing delimiters, incorrect backslashes in strings, etc), this prints a nice helpful message containing the line and column number where the JSON error was found.</p>\u000a\u000a<p>However, for other types of JSON error (including the classic "using comma on the last item in a list", but also other things like capitalising true/false), Python's output is just:</p>\u000a\u000a<pre><code>Traceback (most recent call last):\u000a  File "myfile.py", line 8, in myfunction\u000a    config = json.loads(f.read())\u000a  File "c:\u005cpython27\u005clib\u005cjson\u005c__init__.py", line 326, in loads\u000a    return _default_decoder.decode(s)\u000a  File "c:\u005cpython27\u005clib\u005cjson\u005cdecoder.py", line 360, in decode\u000a    obj, end = self.raw_decode(s, idx=_w(s, 0).end())\u000a  File "c:\u005cpython27\u005clib\u005cjson\u005cdecoder.py", line 378, in raw_decode\u000a    raise ValueError("No JSON object could be decoded")\u000aValueError: No JSON object could be decoded\u000a</code></pre>\u000a\u000a<p>For that type of ValueError, how do you get Python to tell you where is the error in the JSON file?</p>\u000a
p1895
sVis_answered
p1896
I01
sVview_count
p1897
I133570
sVtags
p1898
(lp1899
Vpython
p1900
aVjson
p1901
asVlast_activity_date
p1902
I1444393531
sVanswer_count
p1903
I7
sVcreation_date
p1904
I1360947252
sVscore
p1905
I82
sVlink
p1906
Vhttp://stackoverflow.com/questions/14899506/displaying-better-error-message-than-no-json-object-could-be-decoded
p1907
sVaccepted_answer_id
p1908
I14956465
sVowner
p1909
(dp1910
Vuser_id
p1911
I46478
sVprofile_image
p1912
Vhttps://www.gravatar.com/avatar/3e44debd67415e7aa7759c83b829be6a?s=128&d=identicon&r=PG
p1913
sVuser_type
p1914
Vregistered
p1915
sVreputation
p1916
I1949
sVlink
p1917
Vhttp://stackoverflow.com/users/46478/ojw
p1918
sVaccept_rate
p1919
I58
sVdisplay_name
p1920
VOJW
p1921
ssVtitle
p1922
VDisplaying better error message than &quot;No JSON object could be decoded&quot;
p1923
sVlast_edit_date
p1924
I1416570626
sVquestion_id
p1925
I14899506
sa(dp1926
Vbody
p1927
V<p>I have been reading the <em>Core Python</em> programming book, and the author shows an example like: </p>\u000a\u000a<pre><code>(4, 5) &lt; (3, 5) # Equals false\u000a</code></pre>\u000a\u000a<p>So, I'm wondering, how/why does it equal false? How does python compare these two tuples?</p>\u000a\u000a<p>Btw, it's not explained in the book.</p>\u000a
p1928
sVis_answered
p1929
I01
sVview_count
p1930
I55141
sVtags
p1931
(lp1932
Vpython
p1933
aVcomparison
p1934
aVtuples
p1935
asVlast_activity_date
p1936
I1487020142
sVanswer_count
p1937
I2
sVcreation_date
p1938
I1300049549
sVscore
p1939
I82
sVlink
p1940
Vhttp://stackoverflow.com/questions/5292303/how-does-tuple-comparison-work-in-python
p1941
sVaccepted_answer_id
p1942
I5292332
sVowner
p1943
(dp1944
Vuser_id
p1945
I389453
sVprofile_image
p1946
Vhttps://www.gravatar.com/avatar/d58d2a26c242d11f326f2d00179ae716?s=128&d=identicon&r=PG
p1947
sVuser_type
p1948
Vregistered
p1949
sVreputation
p1950
I2556
sVlink
p1951
Vhttp://stackoverflow.com/users/389453/paulo
p1952
sVaccept_rate
p1953
I78
sVdisplay_name
p1954
VPaulo
p1955
ssVtitle
p1956
VHow does tuple comparison work in Python?
p1957
sVlast_edit_date
p1958
I1487020142
sVquestion_id
p1959
I5292303
sa(dp1960
Vbody
p1961
V<p>Can I reset an iterator / generator in Python?  I am using DictReader and would like to reset it (from the csv module) to the beginning of the file.</p>\u000a
p1962
sVis_answered
p1963
I01
sVview_count
p1964
I39990
sVtags
p1965
(lp1966
Vpython
p1967
aViterator
p1968
aVgenerator
p1969
asVlast_activity_date
p1970
I1462948019
sVanswer_count
p1971
I10
sVcreation_date
p1972
I1279292447
sVscore
p1973
I82
sVlink
p1974
Vhttp://stackoverflow.com/questions/3266180/can-iterators-be-reset-in-python
p1975
sVaccepted_answer_id
p1976
I3267069
sVowner
p1977
(dp1978
Vuser_id
p1979
I248237
sVprofile_image
p1980
Vhttps://www.gravatar.com/avatar/8c9d0ceea506e0fea29643f198f26b3b?s=128&d=identicon&r=PG
p1981
sVuser_type
p1982
Vregistered
p1983
sVreputation
p1984
I16774
sVlink
p1985
Vhttp://stackoverflow.com/users/248237/user248237dfsf
p1986
sVaccept_rate
p1987
I80
sVdisplay_name
p1988
Vuser248237dfsf
p1989
ssVtitle
p1990
VCan iterators be reset in Python?
p1991
sVlast_edit_date
p1992
I1390396133
sVquestion_id
p1993
I3266180
sa(dp1994
Vbody
p1995
V<p>I'm working on a large Django app, the vast majority of which requires a login to access.  This means that all throughout our app we've sprinkled:</p>\u000a\u000a<pre><code>@login_required\u000adef view(...):\u000a</code></pre>\u000a\u000a<p>That's fine, and it works great <em>as long as we remember to add it everywhere</em>!  Sadly sometimes we forget, and the failure often isn't terribly evident.  If the only link to a view is on a @login_required page then you're not likely to notice that you can actually reach that view without logging in.  But the bad guys might notice, which is a problem.</p>\u000a\u000a<p>My idea was to reverse the system.  Instead of having to type @login_required everywhere, instead I'd have something like:</p>\u000a\u000a<pre><code>@public\u000adef public_view(...):\u000a</code></pre>\u000a\u000a<p>Just for the public stuff.  I tried to implement this with some middleware and I couldn't seem to get it to work.  Everything I tried interacted badly with other middleware we're using, I think.  Next up I tried writing something to traverse the URL patterns to check that everything that's not @public was marked @login_required - at least then we'd get a quick error if we forgot something.  But then I couldn't figure out how to tell if @login_required had been applied to a view...</p>\u000a\u000a<p>So, what's the right way to do this?  Thanks for the help!</p>\u000a
p1996
sVis_answered
p1997
I01
sVview_count
p1998
I21576
sVtags
p1999
(lp2000
Vpython
p2001
aVdjango
p2002
asVlast_activity_date
p2003
I1468398000
sVanswer_count
p2004
I5
sVcreation_date
p2005
I1264788517
sVscore
p2006
I82
sVlink
p2007
Vhttp://stackoverflow.com/questions/2164069/best-way-to-make-djangos-login-required-the-default
p2008
sVaccepted_answer_id
p2009
I2164224
sVowner
p2010
(dp2011
Vuser_id
p2012
I153053
sVprofile_image
p2013
Vhttps://www.gravatar.com/avatar/b4135aedb4fff52c1f71d58badbca2ac?s=128&d=identicon&r=PG
p2014
sVuser_type
p2015
Vregistered
p2016
sVreputation
p2017
I3170
sVlink
p2018
Vhttp://stackoverflow.com/users/153053/samtregar
p2019
sVaccept_rate
p2020
I67
sVdisplay_name
p2021
Vsamtregar
p2022
ssVtitle
p2023
VBest way to make Django&#39;s login_required the default
p2024
sVquestion_id
p2025
I2164069
sa(dp2026
Vclosed_date
p2027
I1449852474
sVis_answered
p2028
I01
sVclosed_reason
p2029
Voff-topic
p2030
sVview_count
p2031
I99136
sVtags
p2032
(lp2033
Vpython
p2034
aVmatlab
p2035
aVnumpy
p2036
aVmatplotlib
p2037
aVscipy
p2038
asVbody
p2039
V<p>I have a bunch of MATLAB code from my MS thesis which I now want to convert to Python (using numpy/scipy and matplotlib) and distribute as open-source. I know the similarity between MATLAB and Python scientific libraries, and converting them manually will be not more than a fortnight (provided that I work towards it every day for some time). I was wondering if there was already any tool available which can do the conversion.</p>\u000a
p2040
sVlast_activity_date
p2041
I1483305887
sVaccepted_answer_id
p2042
I17535694
sVcreation_date
p2043
I1332530529
sVscore
p2044
I82
sVlink
p2045
Vhttp://stackoverflow.com/questions/9845292/a-tool-to-convert-matlab-code-to-python
p2046
sVanswer_count
p2047
I4
sVowner
p2048
(dp2049
Vuser_id
p2050
I1128618
sVprofile_image
p2051
Vhttps://www.gravatar.com/avatar/c38dbe15d311570f54dccef9cb506c68?s=128&d=identicon&r=PG
p2052
sVuser_type
p2053
Vregistered
p2054
sVreputation
p2055
I3591
sVlink
p2056
Vhttp://stackoverflow.com/users/1128618/jack-of-all-trades
p2057
sVaccept_rate
p2058
I92
sVdisplay_name
p2059
VJack_of_All_Trades
p2060
ssVtitle
p2061
VA tool to convert MATLAB code to Python
p2062
sVlast_edit_date
p2063
I1385288124
sVquestion_id
p2064
I9845292
sa(dp2065
Vbody
p2066
V<p>I need to choose some elements from the given list, knowing their index. Let say I would like to create a new list, which contains element with index 1, 2, 5, from given list [-2, 1, 5, 3, 8, 5, 6]. What I did is:</p>\u000a\u000a<pre><code>a = [-2,1,5,3,8,5,6]\u000ab = [1,2,5]\u000ac = [ a[i] for i in b]\u000a</code></pre>\u000a\u000a<p>Is there any better way to do it? something like c = a[b] ?</p>\u000a
p2067
sVis_answered
p2068
I01
sVview_count
p2069
I60585
sVtags
p2070
(lp2071
Vpython
p2072
aVlist
p2073
aVindexing
p2074
aVelements
p2075
asVlast_activity_date
p2076
I1471954773
sVanswer_count
p2077
I5
sVcreation_date
p2078
I1376652046
sVscore
p2079
I82
sVlink
p2080
Vhttp://stackoverflow.com/questions/18272160/access-multiple-elements-of-list-knowing-their-index
p2081
sVaccepted_answer_id
p2082
I18272249
sVowner
p2083
(dp2084
Vuser_id
p2085
I1808715
sVprofile_image
p2086
Vhttps://www.gravatar.com/avatar/1c57c74e3f92d43340b3218da9427712?s=128&d=identicon&r=PG
p2087
sVuser_type
p2088
Vregistered
p2089
sVreputation
p2090
I472
sVlink
p2091
Vhttp://stackoverflow.com/users/1808715/hoang-tran
p2092
sVaccept_rate
p2093
I80
sVdisplay_name
p2094
Vhoang tran
p2095
ssVtitle
p2096
VAccess multiple elements of list knowing their index
p2097
sVlast_edit_date
p2098
I1376652176
sVquestion_id
p2099
I18272160
sa(dp2100
Vbody
p2101
V<p>What is an efficient way to find the most common element in a Python list?</p>\u000a\u000a<p>My list items may not be hashable so can't use a dictionary.\u000aAlso in case of draws the item with the lowest index should be returned. Example:</p>\u000a\u000a<pre><code>&gt;&gt;&gt; most_common(['duck', 'duck', 'goose'])\u000a'duck'\u000a&gt;&gt;&gt; most_common(['goose', 'duck', 'duck', 'goose'])\u000a'goose'\u000a</code></pre>\u000a
p2102
sVis_answered
p2103
I01
sVview_count
p2104
I89854
sVtags
p2105
(lp2106
Vpython
p2107
aVlist
p2108
asVlast_activity_date
p2109
I1489425750
sVanswer_count
p2110
I17
sVcreation_date
p2111
I1254724544
sVscore
p2112
I81
sVlink
p2113
Vhttp://stackoverflow.com/questions/1518522/python-most-common-element-in-a-list
p2114
sVaccepted_answer_id
p2115
I1520716
sVowner
p2116
(dp2117
Vuser_id
p2118
I105066
sVprofile_image
p2119
Vhttps://www.gravatar.com/avatar/8bfa13364ceeaecff2253459cc3a6f8a?s=128&d=identicon&r=PG
p2120
sVuser_type
p2121
Vregistered
p2122
sVreputation
p2123
I10810
sVlink
p2124
Vhttp://stackoverflow.com/users/105066/hoju
p2125
sVaccept_rate
p2126
I95
sVdisplay_name
p2127
Vhoju
p2128
ssVtitle
p2129
VPython most common element in a list
p2130
sVquestion_id
p2131
I1518522
sa(dp2132
Vbody
p2133
V<p>I keep getting this :</p>\u000a\u000a<pre><code>DeprecationWarning: integer argument expected, got float\u000a</code></pre>\u000a\u000a<p>How do I make this message go away? Is there a way to avoid warnings in Python?</p>\u000a
p2134
sVis_answered
p2135
I01
sVview_count
p2136
I63290
sVtags
p2137
(lp2138
Vpython
p2139
aVwarnings
p2140
aVdeprecated
p2141
aVignore
p2142
asVlast_activity_date
p2143
I1481815920
sVanswer_count
p2144
I7
sVcreation_date
p2145
I1242672164
sVscore
p2146
I81
sVlink
p2147
Vhttp://stackoverflow.com/questions/879173/how-to-ignore-deprecation-warnings-in-python
p2148
sVaccepted_answer_id
p2149
I879208
sVowner
p2150
(dp2151
Vuser_id
p2152
I107680
sVprofile_image
p2153
Vhttps://www.gravatar.com/avatar/be79e11dfd0b2c67a032aee4d57c2a5c?s=128&d=identicon&r=PG
p2154
sVuser_type
p2155
Vregistered
p2156
sVreputation
p2157
I478
sVlink
p2158
Vhttp://stackoverflow.com/users/107680/mohammed
p2159
sVdisplay_name
p2160
VMohammed
p2161
ssVtitle
p2162
VHow to ignore deprecation warnings in Python
p2163
sVlast_edit_date
p2164
I1328620174
sVquestion_id
p2165
I879173
sa(dp2166
Vbody
p2167
V<p>Django has some good automatic serialization of ORM models returned from DB to JSON format.</p>\u000a\u000a<p>How to serialize SQLAlchemy query result to JSON format? </p>\u000a\u000a<p>I tried <code>jsonpickle.encode</code> but it encodes query object itself.\u000aI tried <code>json.dumps(items)</code> but it returns</p>\u000a\u000a<pre><code>TypeError: &lt;Product('3', 'some name', 'some desc')&gt; is not JSON serializable\u000a</code></pre>\u000a\u000a<p>Is it really so hard to serialize SQLAlchemy ORM objects to JSON /XML? Isn't there any default serializer for it? It's very common task to serialize ORM query results nowadays.</p>\u000a\u000a<p>What I need is just to return JSON or XML data representation of SQLAlchemy query result.</p>\u000a\u000a<p>SQLAlchemy objects query result in JSON/XML format is needed to be used in javascript datagird (JQGrid <a href="http://www.trirand.com/blog/" rel="noreferrer">http://www.trirand.com/blog/</a>)</p>\u000a
p2168
sVis_answered
p2169
I01
sVview_count
p2170
I60209
sVtags
p2171
(lp2172
Vpython
p2173
aVjson
p2174
aVsqlalchemy
p2175
asVlast_activity_date
p2176
I1482176925
sVanswer_count
p2177
I13
sVcreation_date
p2178
I1297890245
sVscore
p2179
I81
sVlink
p2180
Vhttp://stackoverflow.com/questions/5022066/how-to-serialize-sqlalchemy-result-to-json
p2181
sVaccepted_answer_id
p2182
I10664192
sVowner
p2183
(dp2184
Vuser_id
p2185
I118657
sVprofile_image
p2186
Vhttps://www.gravatar.com/avatar/96bb78b4e6b3c0d368bd5cff99394f3e?s=128&d=identicon&r=PG&f=1
p2187
sVuser_type
p2188
Vregistered
p2189
sVreputation
p2190
I1901
sVlink
p2191
Vhttp://stackoverflow.com/users/118657/zelid
p2192
sVaccept_rate
p2193
I80
sVdisplay_name
p2194
VZelid
p2195
ssVtitle
p2196
VHow to serialize SqlAlchemy result to JSON?
p2197
sVlast_edit_date
p2198
I1394654229
sVquestion_id
p2199
I5022066
sa(dp2200
Vbody
p2201
V<p>I have a data frame <code>df</code> and I use several columns from it to <code>groupby</code>:</p>\u000a\u000a<pre><code>df['col1','col2','col3','col4'].groupby(['col1','col2']).mean()\u000a</code></pre>\u000a\u000a<p>In the above way I almost get the table (data frame) that I need. What is missing is an additional column that contains number of rows in each group. In other words, I have mean but I also would like to know how many number were used to get these means. For example in the first group there are 8 values and in the second one 10 and so on.</p>\u000a
p2202
sVis_answered
p2203
I01
sVview_count
p2204
I112686
sVtags
p2205
(lp2206
Vpython
p2207
aVgroup-by
p2208
aVpandas
p2209
aVdistinct
p2210
asVlast_activity_date
p2211
I1469811121
sVanswer_count
p2212
I2
sVcreation_date
p2213
I1381849212
sVscore
p2214
I81
sVlink
p2215
Vhttp://stackoverflow.com/questions/19384532/how-to-count-number-of-rows-in-a-group-in-pandas-group-by-object
p2216
sVaccepted_answer_id
p2217
I19385591
sVowner
p2218
(dp2219
Vuser_id
p2220
I245549
sVprofile_image
p2221
Vhttps://www.gravatar.com/avatar/eec7e09c7d0731a44e91b403dd0bc347?s=128&d=identicon&r=PG
p2222
sVuser_type
p2223
Vregistered
p2224
sVreputation
p2225
I17231
sVlink
p2226
Vhttp://stackoverflow.com/users/245549/roman
p2227
sVaccept_rate
p2228
I66
sVdisplay_name
p2229
VRoman
p2230
ssVtitle
p2231
VHow to count number of rows in a group in pandas group by object?
p2232
sVquestion_id
p2233
I19384532
sa(dp2234
Vbody
p2235
V<p>In order to convert an integer to a binary, i have used this code :</p>\u000a\u000a<pre><code>&gt;&gt;&gt; bin(6)  \u000a'0b110'\u000a</code></pre>\u000a\u000a<p>and when to erase the '0b', i use this :</p>\u000a\u000a<pre><code>&gt;&gt;&gt; bin(6)[2:]  \u000a'110'\u000a</code></pre>\u000a\u000a<p>What can i do if i want to show <code>6</code> as <code>00000110</code> instead of <code>110</code>?</p>\u000a
p2236
sVis_answered
p2237
I01
sVview_count
p2238
I106619
sVtags
p2239
(lp2240
Vpython
p2241
aVbinary
p2242
aVinteger
p2243
asVlast_activity_date
p2244
I1494660107
sVanswer_count
p2245
I6
sVcreation_date
p2246
I1335951101
sVscore
p2247
I81
sVlink
p2248
Vhttp://stackoverflow.com/questions/10411085/converting-integer-to-binary-in-python
p2249
sVaccepted_answer_id
p2250
I10411108
sVowner
p2251
(dp2252
Vuser_id
p2253
I1355515
sVprofile_image
p2254
Vhttps://www.gravatar.com/avatar/331b9cdbc9fbf8b2538aaabf19e27bcb?s=128&d=identicon&r=PG
p2255
sVuser_type
p2256
Vregistered
p2257
sVreputation
p2258
I483
sVlink
p2259
Vhttp://stackoverflow.com/users/1355515/smith
p2260
sVaccept_rate
p2261
I100
sVdisplay_name
p2262
VSmith
p2263
ssVtitle
p2264
VConverting integer to binary in python
p2265
sVlast_edit_date
p2266
I1335951410
sVquestion_id
p2267
I10411085
sa(dp2268
Vbody
p2269
V<p>My project is currently receiving a JSON message in python which I need to get bits of information out of. For the purposes of this, lets set it to some simple JSON in a string:</p>\u000a\u000a<pre><code>jsonStr = '{"one" : "1", "two" : "2", "three" : "3"}'\u000a</code></pre>\u000a\u000a<p>So far I've been generating JSON requests using a list and then <code>json.dumps</code> but to do the opposite of this I think I need to use <code>json.loads</code> but I haven't had much luck with it. Could anyone provide me a snippet that would return "2" with the input of "two" in the above example?</p>\u000a
p2270
sVis_answered
p2271
I01
sVprotected_date
p2272
I1491961820
sVview_count
p2273
I196580
sVtags
p2274
(lp2275
Vpython
p2276
aVjson
p2277
aVparsing
p2278
asVlast_activity_date
p2279
I1471007909
sVaccepted_answer_id
p2280
I7771071
sVcreation_date
p2281
I1318611625
sVscore
p2282
I81
sVlink
p2283
Vhttp://stackoverflow.com/questions/7771011/parse-json-in-python
p2284
sVanswer_count
p2285
I4
sVowner
p2286
(dp2287
Vuser_id
p2288
I143979
sVprofile_image
p2289
Vhttps://www.gravatar.com/avatar/75421fd3db9a08ea2297c0da555a599d?s=128&d=identicon&r=PG
p2290
sVuser_type
p2291
Vregistered
p2292
sVreputation
p2293
I12463
sVlink
p2294
Vhttp://stackoverflow.com/users/143979/ing0
p2295
sVaccept_rate
p2296
I92
sVdisplay_name
p2297
Ving0
p2298
ssVtitle
p2299
VParse JSON in Python
p2300
sVlast_edit_date
p2301
I1446962417
sVquestion_id
p2302
I7771011
sa(dp2303
Vbody
p2304
V<p>I looked at other questions and can't figure it out... </p>\u000a\u000a<p>I did the following to install django-debug-toolbar:</p>\u000a\u000a<ol>\u000a<li>pip install django-debug-toolbar</li>\u000a<li>added to middleware classes:</li>\u000a</ol>\u000a\u000a<blockquote>\u000a<pre><code>MIDDLEWARE_CLASSES = (\u000a    'django.middleware.common.CommonMiddleware',\u000a    'django.contrib.sessions.middleware.SessionMiddleware',\u000a    'django.middleware.csrf.CsrfViewMiddleware',\u000a    'django.contrib.auth.middleware.AuthenticationMiddleware',\u000a    'django.contrib.messages.middleware.MessageMiddleware',\u000a    # Uncomment the next line for simple clickjacking protection:\u000a    # 'django.middleware.clickjacking.XFrameOptionsMiddleware',\u000a    'debug_toolbar.middleware.DebugToolbarMiddleware',\u000a)\u000a</code></pre>\u000a</blockquote>\u000a\u000a<p>3 Added INTERNAL_IPS:</p>\u000a\u000a<blockquote>\u000a  <p>INTERNAL_IPS = ('174.121.34.187',)</p>\u000a</blockquote>\u000a\u000a<p>4 Added debug_toolbar to installed apps</p>\u000a\u000a<p>I am not getting any errors or anything, and the toolbar doesn't show up on any page, not even admin.</p>\u000a\u000a<p>I even added the directory of the debug_toolbar templates to my <code>TEMPLATE_DIRS</code></p>\u000a
p2305
sVis_answered
p2306
I01
sVview_count
p2307
I31104
sVtags
p2308
(lp2309
Vpython
p2310
aVdjango
p2311
aVdjango-debug-toolbar
p2312
asVlast_activity_date
p2313
I1483311470
sVanswer_count
p2314
I22
sVcreation_date
p2315
I1336572343
sVscore
p2316
I81
sVlink
p2317
Vhttp://stackoverflow.com/questions/10517765/django-debug-toolbar-not-showing-up
p2318
sVaccepted_answer_id
p2319
I10518040
sVowner
p2320
(dp2321
Vuser_id
p2322
I269106
sVprofile_image
p2323
Vhttps://i.stack.imgur.com/vQlAg.jpg?s=128&g=1
p2324
sVuser_type
p2325
Vregistered
p2326
sVreputation
p2327
I4918
sVlink
p2328
Vhttp://stackoverflow.com/users/269106/alexbrand
p2329
sVaccept_rate
p2330
I89
sVdisplay_name
p2331
VAlexBrand
p2332
ssVtitle
p2333
Vdjango-debug-toolbar not showing up
p2334
sVlast_edit_date
p2335
I1354957069
sVquestion_id
p2336
I10517765
sa(dp2337
Vbody
p2338
V<p>It's clearly stated in the <a href="https://docs.python.org/3.5/library/functions.html#int">docs</a> that int(number) is a flooring type conversion:</p>\u000a\u000a<pre><code>int(1.23)\u000a1\u000a</code></pre>\u000a\u000a<p>and int(string) returns an int if and only if the string is an integer literal.</p>\u000a\u000a<pre><code>int('1.23')\u000aValueError\u000a\u000aint('1')\u000a1\u000a</code></pre>\u000a\u000a<p>Is there any special reason for that? I find it counterintuitive that the function floors in one case, but not the other.</p>\u000a
p2339
sVis_answered
p2340
I01
sVprotected_date
p2341
I1458387126
sVview_count
p2342
I3763
sVtags
p2343
(lp2344
Vpython
p2345
asVlast_activity_date
p2346
I1460986130
sVaccepted_answer_id
p2347
I36085637
sVcreation_date
p2348
I1458306359
sVscore
p2349
I81
sVlink
p2350
Vhttp://stackoverflow.com/questions/36085185/counterintuitive-behaviour-of-int-in-python
p2351
sVanswer_count
p2352
I4
sVowner
p2353
(dp2354
Vuser_id
p2355
I4085591
sVprofile_image
p2356
Vhttps://www.gravatar.com/avatar/e457b94497de8d4841ede68351b06ac2?s=128&d=identicon&r=PG&f=1
p2357
sVuser_type
p2358
Vregistered
p2359
sVreputation
p2360
I976
sVlink
p2361
Vhttp://stackoverflow.com/users/4085591/stefans
p2362
sVdisplay_name
p2363
VStefanS
p2364
ssVtitle
p2365
VCounterintuitive behaviour of int() in python
p2366
sVlast_edit_date
p2367
I1458673820
sVquestion_id
p2368
I36085185
sa(dp2369
Vbody
p2370
V<p>By default <code>logging.Formatter('%(asctime)s')</code> prints with the following format:</p>\u000a\u000a<pre><code>2011-06-09 10:54:40,638\u000a</code></pre>\u000a\u000a<p>where 638 is the millisecond. I need to change the comma to a dot:</p>\u000a\u000a<pre><code>2011-06-09 10:54:40.638\u000a</code></pre>\u000a\u000a<p>To format the time I can use:</p>\u000a\u000a<pre><code>logging.Formatter(fmt='%(asctime)s',datestr=date_format_str)\u000a</code></pre>\u000a\u000a<p>however the <a href="http://docs.python.org/library/time.html#time.strftime" rel="noreferrer">documentation</a> doesn't specify how to format milliseconds. I've found <a href="http://stackoverflow.com/questions/698223/how-can-i-parse-a-time-string-containing-milliseconds-in-it-with-python">this SO question</a> which talks about microseconds, but a) I would prefer milliseconds and b) the following doesn't work on Python 2.6 (which I'm working on) due to the <code>%f</code>:</p>\u000a\u000a<pre><code>logging.Formatter(fmt='%(asctime)s',datefmt='%Y-%m-%d,%H:%M:%S.%f')\u000a</code></pre>\u000a
p2371
sVis_answered
p2372
I01
sVview_count
p2373
I39076
sVtags
p2374
(lp2375
Vpython
p2376
aVlogging
p2377
aVtime
p2378
asVlast_activity_date
p2379
I1488058973
sVanswer_count
p2380
I4
sVcreation_date
p2381
I1307611808
sVscore
p2382
I81
sVlink
p2383
Vhttp://stackoverflow.com/questions/6290739/python-logging-use-milliseconds-in-time-format
p2384
sVaccepted_answer_id
p2385
I6290946
sVowner
p2386
(dp2387
Vuser_id
p2388
I348545
sVprofile_image
p2389
Vhttps://www.gravatar.com/avatar/8c45eeae6f3bdb3e49b50a0b8241f6d4?s=128&d=identicon&r=PG
p2390
sVuser_type
p2391
Vregistered
p2392
sVreputation
p2393
I25566
sVlink
p2394
Vhttp://stackoverflow.com/users/348545/jonathan
p2395
sVaccept_rate
p2396
I67
sVdisplay_name
p2397
VJonathan
p2398
ssVtitle
p2399
VPython logging: use milliseconds in time format
p2400
sVlast_edit_date
p2401
I1376082304
sVquestion_id
p2402
I6290739
sa(dp2403
Vbody
p2404
V<p>Given a URL like the following, how can I parse the value of the query parameters? For example, in this case I want the value of <code>def</code>.</p>\u000a\u000a<pre><code>/abc?def='ghi'\u000a</code></pre>\u000a\u000a<p>I am using Django in my environment; is there a method on the <code>request</code> object that could help me?</p>\u000a\u000a<p>I tried using <code>self.request.get('def')</code> but it is not returning the value <code>ghi</code> as I had hoped.</p>\u000a
p2405
sVis_answered
p2406
I01
sVview_count
p2407
I57350
sVtags
p2408
(lp2409
Vpython
p2410
aVdjango
p2411
aVparsing
p2412
aVurl
p2413
asVlast_activity_date
p2414
I1484217786
sVanswer_count
p2415
I12
sVcreation_date
p2416
I1298356036
sVscore
p2417
I81
sVlink
p2418
Vhttp://stackoverflow.com/questions/5074803/retrieving-parameters-from-a-url
p2419
sVowner
p2420
(dp2421
Vuser_id
p2422
I617462
sVprofile_image
p2423
Vhttps://www.gravatar.com/avatar/eb51ed580b0fb8551cb754e5514bae7f?s=128&d=identicon&r=PG
p2424
sVuser_type
p2425
Vregistered
p2426
sVreputation
p2427
I498
sVlink
p2428
Vhttp://stackoverflow.com/users/617462/niteshb
p2429
sVaccept_rate
p2430
I38
sVdisplay_name
p2431
Vniteshb
p2432
ssVtitle
p2433
VRetrieving parameters from a URL
p2434
sVlast_edit_date
p2435
I1464806608
sVquestion_id
p2436
I5074803
sa(dp2437
Vbody
p2438
V<p>In Python, how big can an array/list get? I need an array of about 12000 elements. Will I still be able to run array/list methods such as sorting, etc?</p>\u000a
p2439
sVis_answered
p2440
I01
sVview_count
p2441
I83953
sVtags
p2442
(lp2443
Vpython
p2444
aVarrays
p2445
aVsize
p2446
asVlast_activity_date
p2447
I1470259928
sVanswer_count
p2448
I8
sVcreation_date
p2449
I1242167253
sVscore
p2450
I81
sVlink
p2451
Vhttp://stackoverflow.com/questions/855191/how-big-can-a-python-array-get
p2452
sVaccepted_answer_id
p2453
I855455
sVowner
p2454
(dp2455
Vuser_id
p2456
I51518
sVprofile_image
p2457
Vhttps://www.gravatar.com/avatar/eb5a95cb1be342c4089183cd8232a7f2?s=128&d=identicon&r=PG
p2458
sVuser_type
p2459
Vregistered
p2460
sVreputation
p2461
I23073
sVlink
p2462
Vhttp://stackoverflow.com/users/51518/devoted
p2463
sVaccept_rate
p2464
I86
sVdisplay_name
p2465
VDevoted
p2466
ssVtitle
p2467
VHow Big can a Python Array Get?
p2468
sVlast_edit_date
p2469
I1470259928
sVquestion_id
p2470
I855191
sa(dp2471
Vbody
p2472
V<p>I need to count the number of files in a directory using Python.\u000aI guess the easiest way is <code>len(glob.glob('*'))</code>, but that also counts the directory as a file.</p>\u000a\u000a<p>Is there any way to count only the files in a directory?</p>\u000a
p2473
sVis_answered
p2474
I01
sVview_count
p2475
I102330
sVtags
p2476
(lp2477
Vpython
p2478
aVcount
p2479
aVglob
p2480
asVlast_activity_date
p2481
I1495099444
sVanswer_count
p2482
I17
sVcreation_date
p2483
I1271183918
sVscore
p2484
I81
sVlink
p2485
Vhttp://stackoverflow.com/questions/2632205/how-to-count-the-number-of-files-in-a-directory-using-python
p2486
sVaccepted_answer_id
p2487
I2632251
sVowner
p2488
(dp2489
Vuser_id
p2490
I260127
sVprofile_image
p2491
Vhttps://www.gravatar.com/avatar/74758c702067a3490094451e475e28c5?s=128&d=identicon&r=PG
p2492
sVuser_type
p2493
Vregistered
p2494
sVreputation
p2495
I47767
sVlink
p2496
Vhttp://stackoverflow.com/users/260127/prosseek
p2497
sVaccept_rate
p2498
I93
sVdisplay_name
p2499
Vprosseek
p2500
ssVtitle
p2501
VHow to count the number of files in a directory using Python
p2502
sVlast_edit_date
p2503
I1453833491
sVquestion_id
p2504
I2632205
sa(dp2505
Vbody
p2506
V<p>Alright, I'm toying around with converting a PIL image object back and forth to a numpy array so I can do some faster pixel by pixel transformations than PIL's PixelAccess object would allow.  I've figured out how to place the pixel information in a useful 3D numpy array by way of:</p>\u000a\u000a<pre><code>pic = Image.open("foo.jpg")\u000apix = numpy.array(pic.getdata()).reshape(pic.size[0], pic.size[1], 3)\u000a</code></pre>\u000a\u000a<p>But I can't seem to figure out how to load it back into the PIL object after I've done all my awesome transforms.  I'm aware of the <strong>putdata()</strong> method, but can't quite seem to get it to behave.</p>\u000a\u000a<p>Any thoughts?</p>\u000a
p2507
sVis_answered
p2508
I01
sVview_count
p2509
I97287
sVtags
p2510
(lp2511
Vpython
p2512
aVimage
p2513
aVnumpy
p2514
aVpython-imaging-library
p2515
asVlast_activity_date
p2516
I1489417998
sVanswer_count
p2517
I4
sVcreation_date
p2518
I1229883692
sVscore
p2519
I81
sVlink
p2520
Vhttp://stackoverflow.com/questions/384759/pil-and-numpy
p2521
sVaccepted_answer_id
p2522
I384926
sVowner
p2523
(dp2524
Vuser_id
p2525
I145
sVprofile_image
p2526
Vhttps://www.gravatar.com/avatar/112fa979b32463e3b54e098d1b3b0324?s=128&d=identicon&r=PG
p2527
sVuser_type
p2528
Vregistered
p2529
sVreputation
p2530
I10216
sVlink
p2531
Vhttp://stackoverflow.com/users/145/akdom
p2532
sVaccept_rate
p2533
I33
sVdisplay_name
p2534
Vakdom
p2535
ssVtitle
p2536
VPIL and numpy
p2537
sVquestion_id
p2538
I384759
sa(dp2539
Vbody
p2540
V<p>I am new to Python and I am playing with JSON data. I would like to dynamically build a JSON object by adding some key-value to an existing JSON object.</p>\u000a\u000a<p>I tried the following but I get <code>TypeError: 'str' object does not support item assignment</code>:</p>\u000a\u000a<pre><code>import json\u000a\u000ajson_data = json.dumps({})\u000ajson_data["key"] = "value"\u000a\u000aprint 'JSON: ', json_data\u000a</code></pre>\u000a
p2541
sVis_answered
p2542
I01
sVview_count
p2543
I109609
sVtags
p2544
(lp2545
Vpython
p2546
aVjson
p2547
asVlast_activity_date
p2548
I1491056842
sVanswer_count
p2549
I3
sVcreation_date
p2550
I1397653612
sVscore
p2551
I81
sVlink
p2552
Vhttp://stackoverflow.com/questions/23110383/how-to-dynamically-build-a-json-object-with-python
p2553
sVaccepted_answer_id
p2554
I23110401
sVowner
p2555
(dp2556
Vuser_id
p2557
I824806
sVprofile_image
p2558
Vhttps://www.gravatar.com/avatar/e2ba601f52c82370f266a1d7f2f0b6ef?s=128&d=identicon&r=PG
p2559
sVuser_type
p2560
Vregistered
p2561
sVreputation
p2562
I5288
sVlink
p2563
Vhttp://stackoverflow.com/users/824806/backo
p2564
sVaccept_rate
p2565
I80
sVdisplay_name
p2566
VBacko
p2567
ssVtitle
p2568
VHow to dynamically build a JSON object with Python?
p2569
sVlast_edit_date
p2570
I1425678655
sVquestion_id
p2571
I23110383
sa(dp2572
Vbody
p2573
V<p>I have too many ticks on my graph and they are running into each other.  How can I reduce the number of ticks?  For example, I have ticks:</p>\u000a\u000a<pre><code>1E-6, 1E-5, 1E-4, ... 1E6, 1E7\u000a</code></pre>\u000a\u000a<p>and I only want:</p>\u000a\u000a<pre><code>1E-5, 1E-3, ... 1E5, 1E7\u000a</code></pre>\u000a\u000a<p>I've tried playing with the LogLocator, but I haven't been able to figure this out. Suggestions?</p>\u000a\u000a<p>Thanks!</p>\u000a
p2574
sVis_answered
p2575
I01
sVview_count
p2576
I57220
sVtags
p2577
(lp2578
Vpython
p2579
aVmatplotlib
p2580
asVlast_activity_date
p2581
I1487281503
sVanswer_count
p2582
I2
sVcreation_date
p2583
I1310576896
sVscore
p2584
I81
sVlink
p2585
Vhttp://stackoverflow.com/questions/6682784/how-to-reduce-number-of-ticks-with-matplotlib
p2586
sVaccepted_answer_id
p2587
I13418954
sVowner
p2588
(dp2589
Vuser_id
p2590
I633318
sVprofile_image
p2591
Vhttps://www.gravatar.com/avatar/0a99209ed808fb839cc93fbbb3dcb43b?s=128&d=identicon&r=PG
p2592
sVuser_type
p2593
Vregistered
p2594
sVreputation
p2595
I3130
sVlink
p2596
Vhttp://stackoverflow.com/users/633318/jlconlin
p2597
sVaccept_rate
p2598
I82
sVdisplay_name
p2599
Vjlconlin
p2600
ssVtitle
p2601
VHow to: reduce number of ticks with matplotlib
p2602
sVquestion_id
p2603
I6682784
sa(dp2604
Vbody
p2605
V<p>Using <a href="http://pyobjc.sourceforge.net/" rel="noreferrer">PyObjC</a>, you can use Python to write Cocoa applications for OS X. Can I write native iPhone apps using Python and if so, how?</p>\u000a
p2606
sVis_answered
p2607
I01
sVview_count
p2608
I122663
sVtags
p2609
(lp2610
Viphone
p2611
aVpython
p2612
aVcocoa-touch
p2613
asVlast_activity_date
p2614
I1462481047
sVanswer_count
p2615
I12
sVcreation_date
p2616
I1220515197
sVscore
p2617
I81
sVlink
p2618
Vhttp://stackoverflow.com/questions/43315/can-i-write-native-iphone-apps-using-python
p2619
sVaccepted_answer_id
p2620
I43331
sVowner
p2621
(dp2622
Vuser_id
p2623
I2183
sVprofile_image
p2624
Vhttps://www.gravatar.com/avatar/caa0ee22a59ee7a4fc261281940ccb54?s=128&d=identicon&r=PG
p2625
sVuser_type
p2626
Vregistered
p2627
sVreputation
p2628
I14128
sVlink
p2629
Vhttp://stackoverflow.com/users/2183/davidm
p2630
sVaccept_rate
p2631
I83
sVdisplay_name
p2632
VDavidM
p2633
ssVtitle
p2634
VCan I write native iPhone apps using Python
p2635
sVquestion_id
p2636
I43315
sa(dp2637
Vbody
p2638
V<p>See below for 50 tweets about "apple." I have hand labeled the positive matches about Apple Inc. They are marked as 1 below.</p>\u000a\u000a<p>Here are a couple of lines:</p>\u000a\u000a<pre><code>1|\u201c@chrisgilmer: Apple targets big business with new iOS 7 features http://bit.ly/15F9JeF \u201d. Finally.. A corp iTunes account!\u000a0|\u201c@Zach_Paull: When did green skittles change from lime to green apple? #notafan\u201d @Skittles\u000a1|@dtfcdvEric: @MaroneyFan11 apple inc is searching for people to help and tryout all their upcoming tablet within our own net page No.\u000a0|@STFUTimothy have you tried apple pie shine?\u000a1|#SuryaRay #India Microsoft to bring Xbox and PC games to Apple, Android phones: Report: Microsoft Corp... http://dlvr.it/3YvbQx  @SuryaRay\u000a</code></pre>\u000a\u000a<p>Here is the total data set: <a href="http://pastebin.com/eJuEb4eB" rel="noreferrer">http://pastebin.com/eJuEb4eB</a></p>\u000a\u000a<p>I need to build a model that classifies "Apple" (Inc). from the rest.</p>\u000a\u000a<p>I'm not looking for a general overview of machine learning, rather I'm looking for actual model in code (<a href="http://en.wikipedia.org/wiki/Python_%28programming_language%29" rel="noreferrer">Python</a> preferred).</p>\u000a
p2639
sVis_answered
p2640
I01
sVview_count
p2641
I14602
sVtags
p2642
(lp2643
Vjava
p2644
aVpython
p2645
aVr
p2646
aVmachine-learning
p2647
aVclassification
p2648
asVlast_activity_date
p2649
I1453760842
sVanswer_count
p2650
I12
sVcreation_date
p2651
I1372364459
sVscore
p2652
I81
sVlink
p2653
Vhttp://stackoverflow.com/questions/17352469/how-can-i-build-a-model-to-distinguish-tweets-about-apple-inc-from-tweets-abo
p2654
sVaccepted_answer_id
p2655
I17352583
sVowner
p2656
(dp2657
Vuser_id
p2658
I2529549
sVprofile_image
p2659
Vhttps://i.stack.imgur.com/wNKCT.jpg?s=128&g=1
p2660
sVuser_type
p2661
Vregistered
p2662
sVreputation
p2663
I595
sVlink
p2664
Vhttp://stackoverflow.com/users/2529549/sal
p2665
sVdisplay_name
p2666
VSAL
p2667
ssVtitle
p2668
VHow can I build a model to distinguish tweets about Apple (Inc.) from tweets about apple (fruit)?
p2669
sVlast_edit_date
p2670
I1373678539
sVquestion_id
p2671
I17352469
sa(dp2672
Vbody
p2673
V<p>I have  generator object returned by multiple yield. Preparation to call this generator is rather time-consuming operation. That is why I want to reuse generator several times.</p>\u000a\u000a<pre><code>y = FunctionWithYield()\u000afor x in y: print(x)\u000a#here must be something to reset 'y'\u000afor x in y: print(x)\u000a</code></pre>\u000a\u000a<p>Of course, I'm taking in mind copying content into simple list. </p>\u000a
p2674
sVis_answered
p2675
I01
sVview_count
p2676
I27793
sVtags
p2677
(lp2678
Vpython
p2679
aVgenerator
p2680
aVyield
p2681
asVlast_activity_date
p2682
I1492877050
sVanswer_count
p2683
I12
sVcreation_date
p2684
I1250161848
sVscore
p2685
I81
sVlink
p2686
Vhttp://stackoverflow.com/questions/1271320/reseting-generator-object-in-python
p2687
sVaccepted_answer_id
p2688
I1271481
sVowner
p2689
(dp2690
Vuser_id
p2691
I149818
sVprofile_image
p2692
Vhttps://www.gravatar.com/avatar/2a2cc0bea23b5e604a252f0f3f0456aa?s=128&d=identicon&r=PG
p2693
sVuser_type
p2694
Vregistered
p2695
sVreputation
p2696
I15386
sVlink
p2697
Vhttp://stackoverflow.com/users/149818/dewfy
p2698
sVaccept_rate
p2699
I75
sVdisplay_name
p2700
VDewfy
p2701
ssVtitle
p2702
VReseting generator object in Python
p2703
sVquestion_id
p2704
I1271320
sa(dp2705
Vbody
p2706
V<p>I created a histogram plot using data from a file and no problem. Now I wanted to superpose data from\u000aanother file in the same histogram, so I do something like</p>\u000a\u000a<pre><code>n,bins,patchs = ax.hist(mydata1,100)\u000an,bins,patchs = ax.hist(mydata2,100)\u000a</code></pre>\u000a\u000a<p>but the problem is that for each intervale, only the bar with the highest value appears, and the other is hidden. I wonder how could I plot both histograms at the same time with different colors</p>\u000a
p2707
sVis_answered
p2708
I01
sVview_count
p2709
I85742
sVtags
p2710
(lp2711
Vpython
p2712
aVmatplotlib
p2713
aVplot
p2714
aVhistogram
p2715
asVlast_activity_date
p2716
I1473821174
sVanswer_count
p2717
I3
sVcreation_date
p2718
I1311932228
sVscore
p2719
I81
sVlink
p2720
Vhttp://stackoverflow.com/questions/6871201/plot-two-histograms-at-the-same-time-with-matplotlib
p2721
sVaccepted_answer_id
p2722
I6873956
sVowner
p2723
(dp2724
Vuser_id
p2725
I171546
sVprofile_image
p2726
Vhttps://www.gravatar.com/avatar/9f2e998d95f915e9e934899487e8deed?s=128&d=identicon&r=PG
p2727
sVuser_type
p2728
Vregistered
p2729
sVreputation
p2730
I5064
sVlink
p2731
Vhttp://stackoverflow.com/users/171546/flow
p2732
sVaccept_rate
p2733
I83
sVdisplay_name
p2734
Vflow
p2735
ssVtitle
p2736
VPlot two histograms at the same time with matplotlib
p2737
sVquestion_id
p2738
I6871201
sa(dp2739
Vbody
p2740
V<p>I need to produce a screencast of an ipython session, and to avoid confusing viewers, I want to disable all warnings emitted by <code>warnings.warn</code> calls from different packages. Is there a way to configure the ipythonrc file to automatically disable all such warnings?</p>\u000a
p2741
sVis_answered
p2742
I01
sVview_count
p2743
I36988
sVtags
p2744
(lp2745
Vpython
p2746
aVwarnings
p2747
aVipython
p2748
asVlast_activity_date
p2749
I1491834051
sVanswer_count
p2750
I2
sVcreation_date
p2751
I1327659518
sVscore
p2752
I81
sVlink
p2753
Vhttp://stackoverflow.com/questions/9031783/hide-all-warnings-in-ipython
p2754
sVaccepted_answer_id
p2755
I9031848
sVowner
p2756
(dp2757
Vuser_id
p2758
I180783
sVprofile_image
p2759
Vhttps://www.gravatar.com/avatar/f586e2a9879fe0a55fd1e3ea529c664f?s=128&d=identicon&r=PG
p2760
sVuser_type
p2761
Vregistered
p2762
sVreputation
p2763
I7031
sVlink
p2764
Vhttp://stackoverflow.com/users/180783/astrofrog
p2765
sVaccept_rate
p2766
I65
sVdisplay_name
p2767
Vastrofrog
p2768
ssVtitle
p2769
VHide all warnings in ipython
p2770
sVquestion_id
p2771
I9031783
sa(dp2772
Vbody
p2773
V<p>How do I get the index column name in python pandas?  Here's an example dataframe:</p>\u000a\u000a<pre><code>             Column 1\u000aIndex Title          \u000aApples              1\u000aOranges             2\u000aPuppies             3\u000aDucks               4  \u000a</code></pre>\u000a\u000a<p>What I'm trying to do is get/set the dataframe index title.  Here is what i tried:</p>\u000a\u000a<pre><code>import pandas as pd\u000adata = {'Column 1'     : [1., 2., 3., 4.],\u000a        'Index Title'  : ["Apples", "Oranges", "Puppies", "Ducks"]}\u000adf = pd.DataFrame(data)\u000adf.index = df["Index Title"]\u000adel df["Index Title"]\u000aprint df\u000a</code></pre>\u000a\u000a<p>Anyone know how to do this? </p>\u000a
p2774
sVis_answered
p2775
I01
sVview_count
p2776
I95037
sVtags
p2777
(lp2778
Vpython
p2779
aVpandas
p2780
aVdataframe
p2781
aVcolumnname
p2782
asVlast_activity_date
p2783
I1494079943
sVanswer_count
p2784
I6
sVcreation_date
p2785
I1375464653
sVscore
p2786
I81
sVlink
p2787
Vhttp://stackoverflow.com/questions/18022845/pandas-index-column-title-or-name
p2788
sVaccepted_answer_id
p2789
I18023468
sVowner
p2790
(dp2791
Vuser_id
p2792
I1754273
sVprofile_image
p2793
Vhttps://i.stack.imgur.com/YPRk0.jpg?s=128&g=1
p2794
sVuser_type
p2795
Vregistered
p2796
sVreputation
p2797
I839
sVlink
p2798
Vhttp://stackoverflow.com/users/1754273/radical-edward
p2799
sVaccept_rate
p2800
I46
sVdisplay_name
p2801
VRadical Edward
p2802
ssVtitle
p2803
VPandas index column title or name
p2804
sVlast_edit_date
p2805
I1494079943
sVquestion_id
p2806
I18022845
sa(dp2807
Vbody
p2808
V<p>In pre-historic times (Python 1.4) we did:</p>\u000a\u000a<pre><code>fp = open('filename.txt')\u000awhile 1:\u000a    line = fp.readline()\u000a    if not line:\u000a        break\u000a    print line\u000a</code></pre>\u000a\u000a<p>after Python 2.1, we did:</p>\u000a\u000a<pre><code>for line in open('filename.txt').xreadlines():\u000a    print line\u000a</code></pre>\u000a\u000a<p>before we got the convenient iterator protocol in Python 2.3, and could do:</p>\u000a\u000a<pre><code>for line in open('filename.txt'):\u000a    print line\u000a</code></pre>\u000a\u000a<p>I've seen some examples using the more verbose:</p>\u000a\u000a<pre><code>with open('filename.txt') as fp:\u000a    for line in fp:\u000a        print line\u000a</code></pre>\u000a\u000a<p>is this the preferred method going forwards?</p>\u000a\u000a<p>[edit] I get that the with statement ensures closing of the file... but why isn't that included in the iterator protocol for file objects?</p>\u000a
p2809
sVis_answered
p2810
I01
sVview_count
p2811
I186058
sVtags
p2812
(lp2813
Vpython
p2814
aVpython-3.x
p2815
aVpython-2.7
p2816
asVlast_activity_date
p2817
I1468729474
sVanswer_count
p2818
I4
sVcreation_date
p2819
I1342681105
sVscore
p2820
I81
sVlink
p2821
Vhttp://stackoverflow.com/questions/11555468/how-should-i-read-a-file-line-by-line-in-python
p2822
sVaccepted_answer_id
p2823
I11555509
sVowner
p2824
(dp2825
Vuser_id
p2826
I75103
sVprofile_image
p2827
Vhttps://www.gravatar.com/avatar/7dfc20ceb7d6e1686d9be8f68469afa7?s=128&d=identicon&r=PG
p2828
sVuser_type
p2829
Vregistered
p2830
sVreputation
p2831
I9336
sVlink
p2832
Vhttp://stackoverflow.com/users/75103/thebjorn
p2833
sVaccept_rate
p2834
I84
sVdisplay_name
p2835
Vthebjorn
p2836
ssVtitle
p2837
VHow should I read a file line-by-line in Python?
p2838
sVlast_edit_date
p2839
I1342681587
sVquestion_id
p2840
I11555468
sa(dp2841
Vbody
p2842
V<p>I can't get my head around Python's <code>logging</code> module. My needs are very simple: I just want to log everything to syslog. After reading documentation I came up with this simple test script:</p>\u000a\u000a<pre><code>import logging\u000aimport logging.handlers\u000a\u000amy_logger = logging.getLogger('MyLogger')\u000amy_logger.setLevel(logging.DEBUG)\u000a\u000ahandler = logging.handlers.SysLogHandler()\u000a\u000amy_logger.addHandler(handler)\u000a\u000amy_logger.debug('this is debug')\u000amy_logger.critical('this is critical')\u000a</code></pre>\u000a\u000a<p>But this script does not produce any log records in syslog. What's wrong?</p>\u000a
p2843
sVis_answered
p2844
I01
sVview_count
p2845
I76429
sVtags
p2846
(lp2847
Vpython
p2848
aVlogging
p2849
aVsyslog
p2850
asVlast_activity_date
p2851
I1405458960
sVanswer_count
p2852
I9
sVcreation_date
p2853
I1287493898
sVscore
p2854
I81
sVlink
p2855
Vhttp://stackoverflow.com/questions/3968669/how-to-configure-logging-to-syslog-in-python
p2856
sVaccepted_answer_id
p2857
I3969772
sVowner
p2858
(dp2859
Vuser_id
p2860
I385360
sVprofile_image
p2861
Vhttps://www.gravatar.com/avatar/0e89d50c9eff91993075b147926df26a?s=128&d=identicon&r=PG&f=1
p2862
sVuser_type
p2863
Vregistered
p2864
sVreputation
p2865
I885
sVlink
p2866
Vhttp://stackoverflow.com/users/385360/thor
p2867
sVaccept_rate
p2868
I100
sVdisplay_name
p2869
Vthor
p2870
ssVtitle
p2871
VHow to configure logging to syslog in python?
p2872
sVquestion_id
p2873
I3968669
sa(dp2874
Vbody
p2875
V<p>How do you get Jenkins to execute python unittest cases?\u000aIs it possible to JUnit style XML output from the builtin <code>unittest</code> package?</p>\u000a
p2876
sVis_answered
p2877
I01
sVview_count
p2878
I41837
sVtags
p2879
(lp2880
Vpython
p2881
aVunit-testing
p2882
aVjenkins
p2883
aVjunit
p2884
aVxunit
p2885
asVlast_activity_date
p2886
I1473793309
sVanswer_count
p2887
I5
sVcreation_date
p2888
I1340876014
sVscore
p2889
I81
sVlink
p2890
Vhttp://stackoverflow.com/questions/11241781/python-unittests-in-jenkins
p2891
sVaccepted_answer_id
p2892
I19126329
sVowner
p2893
(dp2894
Vuser_id
p2895
I131120
sVprofile_image
p2896
Vhttps://i.stack.imgur.com/ELIeJ.jpg?s=128&g=1
p2897
sVuser_type
p2898
Vregistered
p2899
sVreputation
p2900
I4352
sVlink
p2901
Vhttp://stackoverflow.com/users/131120/erikbwork
p2902
sVaccept_rate
p2903
I89
sVdisplay_name
p2904
Verikbwork
p2905
ssVtitle
p2906
VPython unittests in Jenkins?
p2907
sVlast_edit_date
p2908
I1473793309
sVquestion_id
p2909
I11241781
sa(dp2910
Vbody
p2911
V<p>Are there any alternatives to the code below:</p>\u000a\u000a<pre><code>startFromLine = 141978 # or whatever line I need to jump to\u000a\u000aurlsfile = open(filename, "rb", 0)\u000a\u000alinesCounter = 1\u000a\u000afor line in urlsfile:\u000a    if linesCounter &gt; startFromLine:\u000a        DoSomethingWithThisLine(line)\u000a\u000a    linesCounter += 1\u000a</code></pre>\u000a\u000a<p>If I'm processing a huge text file (~15MB) with lines of unknown but different length, and need to jump to a particular line which number I know in advance? I feel bad by processing them one by one when I know I could ignore at least first half of the file. Looking for more elegant solution if there is any.</p>\u000a
p2912
sVis_answered
p2913
I01
sVview_count
p2914
I105911
sVtags
p2915
(lp2916
Vpython
p2917
aVtext-files
p2918
asVlast_activity_date
p2919
I1475263732
sVanswer_count
p2920
I15
sVcreation_date
p2921
I1236372592
sVscore
p2922
I81
sVlink
p2923
Vhttp://stackoverflow.com/questions/620367/how-to-jump-to-a-particular-line-in-a-huge-text-file
p2924
sVaccepted_answer_id
p2925
I620397
sVowner
p2926
(dp2927
Vuser_id
p2928
I63503
sVprofile_image
p2929
Vhttps://www.gravatar.com/avatar/70f9f0652f01dc5200691e1b817d6e56?s=128&d=identicon&r=PG
p2930
sVuser_type
p2931
Vregistered
p2932
sVreputation
p2933
I1462
sVlink
p2934
Vhttp://stackoverflow.com/users/63503/user63503
p2935
sVaccept_rate
p2936
I88
sVdisplay_name
p2937
Vuser63503
p2938
ssVtitle
p2939
VHow to jump to a particular line in a huge text file?
p2940
sVlast_edit_date
p2941
I1429183552
sVquestion_id
p2942
I620367
sa(dp2943
Vbody
p2944
V<p>I am trying to access a <code>model.filefield</code> in Django to parse a <a href="http://en.wikipedia.org/wiki/Comma-separated_values" rel="noreferrer">CSV</a> file in Python using the <code>csv</code> module. It's working on Windows, but on Mac it gave me this:</p>\u000a\u000a<pre><code>Exception Type: Error\u000a\u000aException Value: new-line character seen in unquoted field - do you need to open the file in universal-newline mode?\u000a</code></pre>\u000a\u000a<p>This is the code:</p>\u000a\u000a<pre><code>myfile = customerbulk.objects.all()[0].fileup\u000a\u000amydata = csv.reader(myfile)\u000a    for email,mobile,name,civilid in mydata:\u000a        print email,mobile,name,civilid\u000a</code></pre>\u000a
p2945
sVis_answered
p2946
I01
sVview_count
p2947
I60891
sVtags
p2948
(lp2949
Vpython
p2950
aVdjango
p2951
aVosx
p2952
aVcsv
p2953
aVnewline
p2954
asVlast_activity_date
p2955
I1454691062
sVanswer_count
p2956
I1
sVcreation_date
p2957
I1310938676
sVscore
p2958
I81
sVlink
p2959
Vhttp://stackoverflow.com/questions/6726953/open-the-file-in-universal-newline-mode-using-the-csv-django-module
p2960
sVaccepted_answer_id
p2961
I6739807
sVowner
p2962
(dp2963
Vuser_id
p2964
I552821
sVprofile_image
p2965
Vhttps://i.stack.imgur.com/JXlA0.jpg?s=128&g=1
p2966
sVuser_type
p2967
Vregistered
p2968
sVreputation
p2969
I1908
sVlink
p2970
Vhttp://stackoverflow.com/users/552821/mohd
p2971
sVaccept_rate
p2972
I50
sVdisplay_name
p2973
Vmohd
p2974
ssVtitle
p2975
VOpen the file in universal-newline mode using the CSV Django module
p2976
sVlast_edit_date
p2977
I1454691014
sVquestion_id
p2978
I6726953
sa(dp2979
Vbody
p2980
V<p>Is it possible to get some information out of the .pyc file that is generated from a .py file?</p>\u000a
p2981
sVis_answered
p2982
I01
sVview_count
p2983
I109224
sVtags
p2984
(lp2985
Vpython
p2986
aVdecompiling
p2987
aVcompiled
p2988
asVlast_activity_date
p2989
I1491124483
sVanswer_count
p2990
I6
sVcreation_date
p2991
I1299987827
sVscore
p2992
I81
sVlink
p2993
Vhttp://stackoverflow.com/questions/5287253/is-it-possible-to-decompile-a-compiled-pyc-file-into-a-py-file
p2994
sVowner
p2995
(dp2996
Vuser_id
p2997
I657190
sVprofile_image
p2998
Vhttps://www.gravatar.com/avatar/c3885d4b428561dad259871a07a7c873?s=128&d=identicon&r=PG
p2999
sVuser_type
p3000
Vunregistered
p3001
sVreputation
p3002
I406
sVlink
p3003
Vhttp://stackoverflow.com/users/657190/howard
p3004
sVdisplay_name
p3005
VHoward 
p3006
ssVtitle
p3007
VIs it possible to decompile a compiled .pyc file into a .py file?
p3008
sVlast_edit_date
p3009
I1491124483
sVquestion_id
p3010
I5287253
sa(dp3011
Vbody
p3012
V<p>I need to know if a python module exists, without importing it.</p>\u000a\u000a<p>Importing something that might not exist (not what I want):</p>\u000a\u000a<pre><code>try:\u000a    import eggs\u000aexcept ImportError:\u000a    pass\u000a</code></pre>\u000a
p3013
sVis_answered
p3014
I01
sVview_count
p3015
I68184
sVtags
p3016
(lp3017
Vpython
p3018
aVpython-import
p3019
asVlast_activity_date
p3020
I1486045067
sVanswer_count
p3021
I9
sVcreation_date
p3022
I1356589042
sVscore
p3023
I81
sVlink
p3024
Vhttp://stackoverflow.com/questions/14050281/how-to-check-if-a-python-module-exists-without-importing-it
p3025
sVaccepted_answer_id
p3026
I14050282
sVowner
p3027
(dp3028
Vuser_id
p3029
I1224926
sVprofile_image
p3030
Vhttps://www.gravatar.com/avatar/1c30eeeb9ca936e41496b366739aa7b6?s=128&d=identicon&r=PG
p3031
sVuser_type
p3032
Vregistered
p3033
sVreputation
p3034
I2129
sVlink
p3035
Vhttp://stackoverflow.com/users/1224926/yarbelk
p3036
sVaccept_rate
p3037
I68
sVdisplay_name
p3038
Vyarbelk
p3039
ssVtitle
p3040
VHow to check if a python module exists without importing it
p3041
sVquestion_id
p3042
I14050281
sa(dp3043
Vbody
p3044
V<p>I am testing Python threading with the following script:</p>\u000a\u000a<pre><code>import threading\u000a\u000aclass FirstThread (threading.Thread):\u000a        def run (self):\u000a                while True:\u000a                        print 'first'\u000a\u000aclass SecondThread (threading.Thread):\u000a        def run (self):\u000a                while True:\u000a                        print 'second'\u000a\u000aFirstThread().start()\u000aSecondThread().start()\u000a</code></pre>\u000a\u000a<p>This is running in Python 2.7 on Kubuntu 11.10. <kbd>Ctrl</kbd>+<kbd>C</kbd> will not kill it. I also tried adding a handler for system signals, but that did not help:</p>\u000a\u000a<pre><code>import signal \u000aimport sys\u000adef signal_handler(signal, frame):\u000a        sys.exit(0)\u000asignal.signal(signal.SIGINT, signal_handler)\u000a</code></pre>\u000a\u000a<p>To kill the process I am killing it by PID after sending the program to the background with <kbd>Ctrl</kbd>+<kbd>Z</kbd>, which isn't being ignored. Why is <kbd>Ctrl</kbd>+<kbd>C</kbd> being ignored so persistently? How can I resolve this?</p>\u000a
p3045
sVis_answered
p3046
I01
sVview_count
p3047
I45580
sVtags
p3048
(lp3049
Vpython
p3050
aVlinux
p3051
asVlast_activity_date
p3052
I1437289848
sVanswer_count
p3053
I2
sVcreation_date
p3054
I1344165373
sVscore
p3055
I81
sVlink
p3056
Vhttp://stackoverflow.com/questions/11815947/cannot-kill-python-script-with-ctrl-c
p3057
sVaccepted_answer_id
p3058
I11816038
sVowner
p3059
(dp3060
Vuser_id
p3061
I343302
sVprofile_image
p3062
Vhttps://www.gravatar.com/avatar/23bea3cac63585e10858de10f2c6b478?s=128&d=identicon&r=PG
p3063
sVuser_type
p3064
Vregistered
p3065
sVreputation
p3066
I11141
sVlink
p3067
Vhttp://stackoverflow.com/users/343302/dotancohen
p3068
sVaccept_rate
p3069
I90
sVdisplay_name
p3070
Vdotancohen
p3071
ssVtitle
p3072
VCannot kill Python script with Ctrl-C
p3073
sVlast_edit_date
p3074
I1391245266
sVquestion_id
p3075
I11815947
sa(dp3076
Vbody
p3077
V<p>I have a python set that contains objects with <code>__hash__</code> and <code>__eq__</code> methods in order to make certain no duplicates are included in the collection.</p>\u000a\u000a<p>I need to json encode this result set, but passing even an empty set to the <code>json.dumps</code> method raises a TypeError</p>\u000a\u000a<pre><code>    File "/usr/lib/python2.7/json/encoder.py", line 201, in encode\u000a    chunks = self.iterencode(o, _one_shot=True)\u000a  File "/usr/lib/python2.7/json/encoder.py", line 264, in iterencode\u000a    return _iterencode(o, 0)\u000a  File "/usr/lib/python2.7/json/encoder.py", line 178, in default\u000a    raise TypeError(repr(o) + " is not JSON serializable")\u000aTypeError: set([]) is not JSON serializable\u000a</code></pre>\u000a\u000a<p>I know I can create an extension to the json.JSONEncoder class that has a custom <code>default</code> method, but I'm not even sure where to begin in converting over the set.  Should I create a dictionary out of the set values within the default method, and then return the encoding on that?  Ideally, I'd like to make the default method able to handle all the datatypes that the original encoder chokes on (I'm using Mongo as a data source so dates seem to raise this error too)</p>\u000a\u000a<p>Any hint in the right direction would be appreciated.</p>\u000a\u000a<p><strong>EDIT:</strong></p>\u000a\u000a<p>Thanks for the answer!  Perhaps I should have been more precise.</p>\u000a\u000a<p>I utilized (and upvoted) the answers here to get around the limitations of the set being translated, but there are internal keys that are an issue as well.</p>\u000a\u000a<p>The objects in the set are complex objects that translate to <code>__dict__</code>, but they themselves can also contain values for their properties that could be ineligible for the basic types in the json encoder.</p>\u000a\u000a<p>There's a lot of different types coming into this set, and the hash basically calculates a unique id for the entity, but in the true spirit of NoSQL there's no telling exactly what the child object contains.</p>\u000a\u000a<p>One object might contain a date value for <code>starts</code>, whereas another may have some other schema that includes no keys containing "non-primitive" objects.</p>\u000a\u000a<p>That is why the only solution I could think of was to extend the JSONEncoder to replace the <code>default</code> method to turn on different cases - but I'm not sure how to go about this and the documentation is ambiguous.  In nested objects, does the value returned from default go by key, or is it just a generic include/discard that looks at the whole object?  How does that method accommodate nested values?  I've looked through previous questions and can't seem to find the best approach to case-specific encoding (which unfortunately seems like what I'm going to need to do here.)</p>\u000a\u000a<p>I appreciate the help!</p>\u000a
p3078
sVis_answered
p3079
I01
sVview_count
p3080
I97660
sVtags
p3081
(lp3082
Vpython
p3083
aVjson
p3084
aVserialization
p3085
asVlast_activity_date
p3086
I1488163530
sVanswer_count
p3087
I5
sVcreation_date
p3088
I1321979881
sVscore
p3089
I81
sVlink
p3090
Vhttp://stackoverflow.com/questions/8230315/python-sets-are-not-json-serializable
p3091
sVaccepted_answer_id
p3092
I8230373
sVowner
p3093
(dp3094
Vuser_id
p3095
I215608
sVprofile_image
p3096
Vhttps://www.gravatar.com/avatar/0ada48af3e74a17f12492d99bbc2b36a?s=128&d=identicon&r=PG
p3097
sVuser_type
p3098
Vregistered
p3099
sVreputation
p3100
I4912
sVlink
p3101
Vhttp://stackoverflow.com/users/215608/deacondesperado
p3102
sVaccept_rate
p3103
I93
sVdisplay_name
p3104
VDeaconDesperado
p3105
ssVtitle
p3106
VPython sets are not json serializable
p3107
sVlast_edit_date
p3108
I1488163530
sVquestion_id
p3109
I8230315
sa(dp3110
Vbody
p3111
V<p>It's really irritating that every time I type <code>exit()</code>, I get prompted with a confirmation to exit; of course I want to exit! Otherwise, I would not have written <code>exit()</code>!!!</p>\u000a\u000a<p>Is there a way to override IPython's default behaviour to make it exit without a prompt?</p>\u000a
p3112
sVis_answered
p3113
I01
sVview_count
p3114
I5995
sVtags
p3115
(lp3116
Vpython
p3117
aVipython
p3118
asVlast_activity_date
p3119
I1458944277
sVanswer_count
p3120
I4
sVcreation_date
p3121
I1316125276
sVscore
p3122
I81
sVlink
p3123
Vhttp://stackoverflow.com/questions/7438112/disable-ipython-exit-confirmation
p3124
sVaccepted_answer_id
p3125
I8020342
sVowner
p3126
(dp3127
Vuser_id
p3128
I128967
sVprofile_image
p3129
Vhttps://www.gravatar.com/avatar/e6ce48656d5e39227a10b37a51754134?s=128&d=identicon&r=PG
p3130
sVuser_type
p3131
Vregistered
p3132
sVreputation
p3133
I24384
sVlink
p3134
Vhttp://stackoverflow.com/users/128967/naftuli-kay
p3135
sVaccept_rate
p3136
I87
sVdisplay_name
p3137
VNaftuli Kay
p3138
ssVtitle
p3139
VDisable IPython Exit Confirmation
p3140
sVlast_edit_date
p3141
I1362175388
sVquestion_id
p3142
I7438112
sa(dp3143
Vbody
p3144
V<p>I am trying to use one-time passwords that can be generated using <a href="https://market.android.com/details?id=com.google.android.apps.authenticator" rel="noreferrer">Google Authenticator application</a>.</p>\u000a\u000a<h2>What Google Authenticator does</h2>\u000a\u000a<p>Basically, Google Authenticator implements two types of passwords:</p>\u000a\u000a<ul>\u000a<li><strong>HOTP</strong> - HMAC-based One-Time Password, which means the password is changed with each call, in compliance to <a href="http://tools.ietf.org/html/rfc4226" rel="noreferrer">RFC4226</a>, and</li>\u000a<li><strong>TOTP</strong> - Time-based One-Time Password, which changes for every 30-seconds period (as far as I know).</li>\u000a</ul>\u000a\u000a<p>Google Authenticator is also available as Open Source here: <a href="http://code.google.com/p/google-authenticator/" rel="noreferrer">code.google.com/p/google-authenticator</a></p>\u000a\u000a<h2>Current code</h2>\u000a\u000a<p>I was looking for existing solutions to generate HOTP and TOTP passwords, but did not find much. The code I have is the following snippet responsible for generating HOTP:</p>\u000a\u000a<pre><code>import hmac, base64, struct, hashlib, time\u000a\u000adef get_token(secret, digest_mode=hashlib.sha1, intervals_no=None):\u000a    if intervals_no == None:\u000a        intervals_no = int(time.time()) // 30\u000a    key = base64.b32decode(secret)\u000a    msg = struct.pack("&gt;Q", intervals_no)\u000a    h = hmac.new(key, msg, digest_mode).digest()\u000a    o = ord(h[19]) &amp; 15\u000a    h = (struct.unpack("&gt;I", h[o:o+4])[0] &amp; 0x7fffffff) % 1000000\u000a    return h\u000a</code></pre>\u000a\u000a<p>The problem I am facing is that the password I generate using the above code is not the same as generated using Google Authenticator app for Android. Even though I tried multiple <code>intervals_no</code> values (exactly first 10000, beginning with <code>intervals_no = 0</code>), with <code>secret</code> being equal to key provided within the GA app.</p>\u000a\u000a<h2>Questions I have</h2>\u000a\u000a<p>My questions are:</p>\u000a\u000a<ol>\u000a<li>What am I doing wrong?</li>\u000a<li>How can I generate HOTP and/or TOTP in Python?</li>\u000a<li>Are there any existing Python libraries for this?</li>\u000a</ol>\u000a\u000a<p>To sum up: please give me any clues that will help me implement Google Authenticator authentication within my Python code.</p>\u000a
p3145
sVis_answered
p3146
I01
sVview_count
p3147
I26662
sVtags
p3148
(lp3149
Vpython
p3150
aVsecurity
p3151
aVauthentication
p3152
aVone-time-password
p3153
aVgoogle-authenticator
p3154
asVlast_activity_date
p3155
I1398190937
sVanswer_count
p3156
I2
sVcreation_date
p3157
I1324004233
sVscore
p3158
I81
sVlink
p3159
Vhttp://stackoverflow.com/questions/8529265/google-authenticator-implementation-in-python
p3160
sVaccepted_answer_id
p3161
I8549884
sVowner
p3162
(dp3163
Vuser_id
p3164
I548696
sVprofile_image
p3165
Vhttps://www.gravatar.com/avatar/c9b170f54e3286eea9aca961f7bfe3ef?s=128&d=identicon&r=PG
p3166
sVuser_type
p3167
Vregistered
p3168
sVreputation
p3169
I68226
sVlink
p3170
Vhttp://stackoverflow.com/users/548696/tadeck
p3171
sVaccept_rate
p3172
I90
sVdisplay_name
p3173
VTadeck
p3174
ssVtitle
p3175
VGoogle Authenticator implementation in Python
p3176
sVlast_edit_date
p3177
I1324007550
sVquestion_id
p3178
I8529265
sa(dp3179
Vbody
p3180
V<p>From the <a href="https://www.udacity.com/course/viewer#!/c-ud730/l-6370362152/m-6379811820">Udacity's deep learning class</a>, the softmax of y_i is simply the exponential divided by the sum of exponential of the whole Y vector:</p>\u000a\u000a<p><a href="https://i.stack.imgur.com/iP8Du.png"><img src="https://i.stack.imgur.com/iP8Du.png" alt="enter image description here"></a></p>\u000a\u000a<p>Where <code>S(y_i)</code> is the softmax function of <code>y_i</code> and <code>e</code> is the exponential and <code>j</code> is the no. of columns in the input vector Y.</p>\u000a\u000a<p>I've tried the following:</p>\u000a\u000a<pre><code>import numpy as np\u000a\u000adef softmax(x):\u000a    """Compute softmax values for each sets of scores in x."""\u000a    e_x = np.exp(x - np.max(x))\u000a    return e_x / e_x.sum()\u000a\u000ascores = [3.0, 1.0, 0.2]\u000aprint(softmax(scores))\u000a</code></pre>\u000a\u000a<p>which returns:</p>\u000a\u000a<pre><code>[ 0.8360188   0.11314284  0.05083836]\u000a</code></pre>\u000a\u000a<p>But the suggested solution was:</p>\u000a\u000a<pre><code>def softmax(x):\u000a    """Compute softmax values for each sets of scores in x."""\u000a    return np.exp(x) / np.sum(np.exp(x), axis=0)\u000a</code></pre>\u000a\u000a<p>which produces the <strong>same output as the first implementation</strong>, even though the first implementation explicitly takes the difference of each column and the max and then divides by the sum.</p>\u000a\u000a<p><strong>Can someone show mathematically why? Is one correct and the other one wrong?</strong></p>\u000a\u000a<p><strong>Are the implementation similar in terms of code and time complexity? Which is more efficient?</strong></p>\u000a
p3181
sVis_answered
p3182
I01
sVview_count
p3183
I37605
sVtags
p3184
(lp3185
Vpython
p3186
aVnumpy
p3187
aVmachine-learning
p3188
aVlogistic-regression
p3189
aVsoftmax
p3190
asVlast_activity_date
p3191
I1492449854
sVanswer_count
p3192
I9
sVcreation_date
p3193
I1453582370
sVscore
p3194
I81
sVlink
p3195
Vhttp://stackoverflow.com/questions/34968722/softmax-function-python
p3196
sVaccepted_answer_id
p3197
I34969389
sVowner
p3198
(dp3199
Vuser_id
p3200
I610569
sVprofile_image
p3201
Vhttps://www.gravatar.com/avatar/0e9087f2672b0e4f28d91266acf9ce57?s=128&d=identicon&r=PG
p3202
sVuser_type
p3203
Vregistered
p3204
sVreputation
p3205
I25656
sVlink
p3206
Vhttp://stackoverflow.com/users/610569/alvas
p3207
sVaccept_rate
p3208
I92
sVdisplay_name
p3209
Valvas
p3210
ssVtitle
p3211
VSoftmax function - python
p3212
sVlast_edit_date
p3213
I1481419540
sVquestion_id
p3214
I34968722
sa(dp3215
Vbody
p3216
V<p>I just wrote some testing python code into <code>test.py</code>, and I'm launching it as follows:</p>\u000a\u000a<pre><code>perl test.py\u000a</code></pre>\u000a\u000a<p>After a while I realized my mistake. I say "after a while", because the\u000aPython code gets actually correctly executed, as if in Python interpreter!</p>\u000a\u000a<p>Why is my Perl interpreting my Python? <code>test.py</code> looks like this:</p>\u000a\u000a<pre><code>#!/usr/bin/python\u000a\u000a...Python code here...\u000a</code></pre>\u000a\u000a<p>Interestingly, if I do the opposite (i.e. call <code>python something.pl</code>) I get a good deal of syntax errors.</p>\u000a
p3217
sVis_answered
p3218
I01
sVview_count
p3219
I3414
sVtags
p3220
(lp3221
Vpython
p3222
aVperl
p3223
asVlast_activity_date
p3224
I1428698277
sVanswer_count
p3225
I1
sVcreation_date
p3226
I1428675568
sVscore
p3227
I81
sVlink
p3228
Vhttp://stackoverflow.com/questions/29563832/why-dont-i-get-any-syntax-errors-when-i-execute-my-python-script-with-perl
p3229
sVaccepted_answer_id
p3230
I29563961
sVowner
p3231
(dp3232
Vuser_id
p3233
I282614
sVprofile_image
p3234
Vhttps://www.gravatar.com/avatar/9cd35c711e222946f9503628827a32ce?s=128&d=identicon&r=PG
p3235
sVuser_type
p3236
Vregistered
p3237
sVreputation
p3238
I5262
sVlink
p3239
Vhttp://stackoverflow.com/users/282614/dacav
p3240
sVaccept_rate
p3241
I88
sVdisplay_name
p3242
VDacav
p3243
ssVtitle
p3244
VWhy don&#39;t I get any syntax errors when I execute my Python script with Perl?
p3245
sVlast_edit_date
p3246
I1428697862
sVquestion_id
p3247
I29563832
sa(dp3248
Vbody
p3249
V<p>What is the most idiomatic way to achieve something like the following, in Haskell:</p>\u000a\u000a<pre><code>foldl (+) 0 [1,2,3,4,5]\u000a--&gt; 15\u000a</code></pre>\u000a\u000a<p>Or its equivalent in Ruby:</p>\u000a\u000a<pre><code>[1,2,3,4,5].inject(0) {|m,x| m + x}\u000a#&gt; 15\u000a</code></pre>\u000a\u000a<p>Obviously, Python provides the <code>reduce</code> function, which is an implementation of fold, exactly as above, however, I was told that the 'pythonic' way of programming was to avoid <code>lambda</code> terms and higher-order functions, preferring list-comprehensions where possible. Therefore, is there a preferred way of folding a list, or list-like structure in Python that isn't the <code>reduce</code> function, or is <code>reduce</code> the idiomatic way of achieving this?</p>\u000a
p3250
sVis_answered
p3251
I01
sVview_count
p3252
I46865
sVtags
p3253
(lp3254
Vpython
p3255
aVlist
p3256
aVfunctional-programming
p3257
aVreduce
p3258
aVfold
p3259
asVlast_activity_date
p3260
I1493306437
sVanswer_count
p3261
I6
sVcreation_date
p3262
I1335637848
sVscore
p3263
I81
sVlink
p3264
Vhttp://stackoverflow.com/questions/10366374/what-is-the-pythonic-equivalent-to-the-fold-function-from-functional-program
p3265
sVaccepted_answer_id
p3266
I10366417
sVowner
p3267
(dp3268
Vuser_id
p3269
I413744
sVprofile_image
p3270
Vhttps://www.gravatar.com/avatar/b99daa9f050dfdcdc8f207aa3d0ea511?s=128&d=identicon&r=PG
p3271
sVuser_type
p3272
Vregistered
p3273
sVreputation
p3274
I3113
sVlink
p3275
Vhttp://stackoverflow.com/users/413744/mistertim
p3276
sVaccept_rate
p3277
I88
sVdisplay_name
p3278
Vmistertim
p3279
ssVtitle
p3280
VWhat is the &#39;pythonic&#39; equivalent to the &#39;fold&#39; function from functional programming?
p3281
sVlast_edit_date
p3282
I1335638657
sVquestion_id
p3283
I10366374
sa(dp3284
Vbody
p3285
V<p>When I try to print a Unicode string in a Windows console, I get a <code>UnicodeEncodeError: 'charmap' codec can't encode character ....</code> error.  I assume this is because the Windows console does not accept Unicode-only characters. What's the best way around this? Is there any way I can make Python automatically print a <code>?</code> instead of failing in this situation?</p>\u000a\u000a<p><strong>Edit:</strong>  I'm using Python 2.5.</p>\u000a\u000a<hr>\u000a\u000a<p><strong>Note:</strong> @LasseV.Karlsen answer with the checkmark is sort of outdated (from 2008). Please use the solutions/answers/suggestions below with care!!</p>\u000a\u000a<p><a href="http://stackoverflow.com/a/32176732/610569">@JFSebastian answer</a> is more relevant as of today (6 Jan 2016).</p>\u000a
p3286
sVis_answered
p3287
I01
sVview_count
p3288
I52639
sVtags
p3289
(lp3290
Vpython
p3291
aVunicode
p3292
asVlast_activity_date
p3293
I1494533314
sVanswer_count
p3294
I10
sVcreation_date
p3295
I1218148018
sVscore
p3296
I81
sVlink
p3297
Vhttp://stackoverflow.com/questions/5419/python-unicode-and-the-windows-console
p3298
sVaccepted_answer_id
p3299
I5430
sVowner
p3300
(dp3301
Vuser_id
p3302
I207
sVprofile_image
p3303
Vhttps://www.gravatar.com/avatar/43140301aa4b7d368673d3a412883305?s=128&d=identicon&r=PG
p3304
sVuser_type
p3305
Vregistered
p3306
sVreputation
p3307
I16653
sVlink
p3308
Vhttp://stackoverflow.com/users/207/james-sulak
p3309
sVaccept_rate
p3310
I79
sVdisplay_name
p3311
VJames Sulak
p3312
ssVtitle
p3313
VPython, Unicode, and the Windows console
p3314
sVlast_edit_date
p3315
I1452078476
sVquestion_id
p3316
I5419
sa(dp3317
Vclosed_date
p3318
I1396599061
sVis_answered
p3319
I01
sVclosed_reason
p3320
Vprimarily opinion-based
p3321
sVview_count
p3322
I20651
sVtags
p3323
(lp3324
Vpython
p3325
aVunit-testing
p3326
aVcode-organization
p3327
asVbody
p3328
V<p>I'm getting started with Python (it's high time I give it a shot), and I'm looking for some best practices.</p>\u000a\u000a<p>My first project is a queue which runs command-line experiments in multiple threads. I'm starting to get a very long <code>main.py</code> file, and I'd like to break it up. In general, I'm looking for: <strong>How do python programmers organize multiple source files?</strong> Is there a particular structure that works for you?</p>\u000a\u000a<p>My specific questions include:</p>\u000a\u000a<ol>\u000a<li>Should each class be in a separate file?</li>\u000a<li>How should I organize unit tests relative to source code?</li>\u000a<li>Where should I put doc comments, specifically those for command-line operation?</li>\u000a<li>If I use multiple directories, how do I import classes between them?</li>\u000a</ol>\u000a\u000a<p>I can probably draw some of my own conclusions here by trial and error, but I'd rather start from something <em>good</em>.</p>\u000a
p3329
sVlast_activity_date
p3330
I1405713193
sVanswer_count
p3331
I2
sVcreation_date
p3332
I1259956852
sVscore
p3333
I81
sVlink
p3334
Vhttp://stackoverflow.com/questions/1849311/how-should-i-organize-python-source-code
p3335
sVowner
p3336
(dp3337
Vuser_id
p3338
I1288364
sVprofile_image
p3339
Vhttps://www.gravatar.com/avatar/5de821af118f9733cab404a0def29387?s=128&d=identicon&r=PG
p3340
sVuser_type
p3341
Vregistered
p3342
sVreputation
p3343
I14887
sVlink
p3344
Vhttp://stackoverflow.com/users/1288364/andres-jaan-tack
p3345
sVaccept_rate
p3346
I71
sVdisplay_name
p3347
VAndres Jaan Tack
p3348
ssVtitle
p3349
VHow should I organize Python source code?
p3350
sVquestion_id
p3351
I1849311
sasVquota_max
p3352
I300
sVquota_remaining
p3353
I212
s.