(dp0
Vhas_more
p1
I01
sVitems
p2
(lp3
(dp4
Vbody
p5
V<p>I have two objects that represent the same event instance --- one holds the date, the other the time of this event, and I want to create a datetime object. </p>\u000a\u000a<p>Since one can't simply add date and time objects (following call fails): </p>\u000a\u000a<pre><code> datetime.date(2011, 01, 01) + datetime.time(10, 23)\u000a</code></pre>\u000a
p6
sVis_answered
p7
I01
sVview_count
p8
I35880
sVtags
p9
(lp10
Vdatetime
p11
aVpython
p12
asVlast_activity_date
p13
I1464994652
sVanswer_count
p14
I2
sVcreation_date
p15
I1323694672
sVscore
p16
I95
sVlink
p17
Vhttp://stackoverflow.com/questions/8474670/pythonic-way-to-add-datetime-date-and-datetime-time-objects
p18
sVaccepted_answer_id
p19
I8474692
sVowner
p20
(dp21
Vuser_id
p22
I7918
sVprofile_image
p23
Vhttps://www.gravatar.com/avatar/184f5982cbe1fe7fc959392cf9358fac?s=128&d=identicon&r=PG
p24
sVuser_type
p25
Vregistered
p26
sVreputation
p27
I9839
sVlink
p28
Vhttp://stackoverflow.com/users/7918/jb
p29
sVaccept_rate
p30
I99
sVdisplay_name
p31
Vjb.
p32
ssVtitle
p33
VPythonic way to add datetime.date and datetime.time objects
p34
sVlast_edit_date
p35
I1360965792
sVquestion_id
p36
I8474670
sa(dp37
Vbody
p38
V<p>In Python, suppose I have a path like this:</p>\u000a\u000a<pre><code>/folderA/folderB/folderC/folderD/\u000a</code></pre>\u000a\u000a<p>How can I get just the <code>folderD</code> part?</p>\u000a
p39
sVis_answered
p40
I01
sVview_count
p41
I46674
sVtags
p42
(lp43
Vpython
p44
aVpath
p45
aVpath-manipulation
p46
asVlast_activity_date
p47
I1474901924
sVanswer_count
p48
I6
sVcreation_date
p49
I1286982195
sVscore
p50
I95
sVlink
p51
Vhttp://stackoverflow.com/questions/3925096/how-to-get-only-the-last-part-of-a-path-in-python
p52
sVaccepted_answer_id
p53
I3925147
sVowner
p54
(dp55
Vuser_id
p56
I448839
sVprofile_image
p57
Vhttps://www.gravatar.com/avatar/e7c7299130fe9d4e825773fe7e7be83e?s=128&d=identicon&r=PG
p58
sVuser_type
p59
Vregistered
p60
sVreputation
p61
I1744
sVlink
p62
Vhttp://stackoverflow.com/users/448839/pepero
p63
sVaccept_rate
p64
I73
sVdisplay_name
p65
Vpepero
p66
ssVtitle
p67
VHow to get only the last part of a path in Python?
p68
sVlast_edit_date
p69
I1443133635
sVquestion_id
p70
I3925096
sa(dp71
Vbody
p72
V<p>How can I get a reference to a module from within that module? Also, how can I get a reference to the package containing that module?</p>\u000a
p73
sVis_answered
p74
I01
sVview_count
p75
I32248
sVtags
p76
(lp77
Vpython
p78
aVself-reference
p79
asVlast_activity_date
p80
I1445139167
sVanswer_count
p81
I3
sVcreation_date
p82
I1257370953
sVscore
p83
I95
sVlink
p84
Vhttp://stackoverflow.com/questions/1676835/python-how-do-i-get-a-reference-to-a-module-inside-the-module-itself
p85
sVaccepted_answer_id
p86
I1676860
sVowner
p87
(dp88
Vuser_id
p89
I76701
sVprofile_image
p90
Vhttps://www.gravatar.com/avatar/d24c45635a5171615a7cdb936f36daad?s=128&d=identicon&r=PG
p91
sVuser_type
p92
Vregistered
p93
sVreputation
p94
I19145
sVlink
p95
Vhttp://stackoverflow.com/users/76701/ram-rachum
p96
sVaccept_rate
p97
I72
sVdisplay_name
p98
VRam Rachum
p99
ssVtitle
p100
VPython: How do I get a reference to a module inside the module itself?
p101
sVquestion_id
p102
I1676835
sa(dp103
Vbody
p104
V<p>I was under the impression that virtualenv --no-site-packages would create a completely separate and isolated Python environment, but it doesn't seem to.</p>\u000a\u000a<p>For example, I have python-django installed globally, but wish to create a virtualenv with a different Django version.</p>\u000a\u000a<pre><code>$ virtualenv --no-site-packages foo       \u000aNew python executable in foo/bin/python\u000aInstalling setuptools............done.\u000a$ pip -E foo install Django\u000aRequirement already satisfied: Django in /usr/share/pyshared\u000aInstalling collected packages: Django\u000aSuccessfully installed Django\u000a</code></pre>\u000a\u000a<p>From what I can tell, the <code>pip -E foo install</code> above is supposed to re-install a new version of Django.  Also, if I tell pip to freeze the environment, I get a whole lot of packages.  I would expect that for a fresh environment with --no-site-packages this would be blank?</p>\u000a\u000a<pre><code>$ pip -E foo freeze\u000a4Suite-XML==1.0.2\u000aBeautifulSoup==3.1.0.1\u000aBrlapi==0.5.3\u000aBzrTools==1.17.0\u000aDjango==1.1\u000a... and so on ...\u000a</code></pre>\u000a\u000a<p>Am I misunderstanding how --no-site-packages is supposed to work?  </p>\u000a
p105
sVis_answered
p106
I01
sVview_count
p107
I37684
sVtags
p108
(lp109
Vpython
p110
aVvirtualenv
p111
aVpip
p112
asVlast_activity_date
p113
I1493936316
sVanswer_count
p114
I10
sVcreation_date
p115
I1252144757
sVscore
p116
I95
sVlink
p117
Vhttp://stackoverflow.com/questions/1382925/virtualenv-no-site-packages-and-pip-still-finding-global-packages
p118
sVowner
p119
(dp120
Vuser_id
p121
I104986
sVprofile_image
p122
Vhttps://www.gravatar.com/avatar/ec17cac64975b5a1871b58466ab38c9e?s=128&d=identicon&r=PG
p123
sVuser_type
p124
Vregistered
p125
sVreputation
p126
I731
sVlink
p127
Vhttp://stackoverflow.com/users/104986/ianw
p128
sVdisplay_name
p129
Vianw
p130
ssVtitle
p131
Vvirtualenv --no-site-packages and pip still finding global packages?
p132
sVlast_edit_date
p133
I1366570696
sVquestion_id
p134
I1382925
sa(dp135
Vbody
p136
V<p>Okay, so I am fairly new at programming (knowing only html, CSS, and JavaScript) and I just started diving into python. What I want to know is, what is it used for and what is it designed for?</p>\u000a
p137
sVis_answered
p138
I01
sVprotected_date
p139
I1365075623
sVview_count
p140
I124195
sVtags
p141
(lp142
Vpython
p143
asVlast_activity_date
p144
I1471948379
sVanswer_count
p145
I3
sVcreation_date
p146
I1260902806
sVscore
p147
I95
sVlink
p148
Vhttp://stackoverflow.com/questions/1909512/what-is-python-used-for
p149
sVowner
p150
(dp151
Vuser_id
p152
I232360
sVprofile_image
p153
Vhttps://www.gravatar.com/avatar/b437b09e0dcad26732ccf53d591913d0?s=128&d=identicon&r=PG
p154
sVuser_type
p155
Vunregistered
p156
sVreputation
p157
I488
sVlink
p158
Vhttp://stackoverflow.com/users/232360/jake
p159
sVdisplay_name
p160
VJake
p161
ssVtitle
p162
VWhat is python used for?
p163
sVlast_edit_date
p164
I1373920012
sVquestion_id
p165
I1909512
sa(dp166
Vbody
p167
V<p>How feasible would it be to compile Python (possibly via an intermediate C representation) into machine code?</p>\u000a\u000a<p>Presumably it would need to link to a Python runtime library, and any parts of the Python standard library which were Python themselves would need to be compiled (and linked in) too.</p>\u000a\u000a<p>Also, you would need to bundle the Python interpreter if you wanted to do dynamic evaluation of expressions, but perhaps a subset of Python that didn't allow this would still be useful.</p>\u000a\u000a<p>Would it provide any speed and/or memory usage advantages?  Presumably the startup time of the Python interpreter would be eliminated (although shared libraries would still need loading at startup).</p>\u000a
p168
sVis_answered
p169
I01
sVview_count
p170
I54583
sVtags
p171
(lp172
Vpython
p173
aVc
p174
aVlinker
p175
aVcompilation
p176
asVlast_activity_date
p177
I1481183773
sVanswer_count
p178
I12
sVcreation_date
p179
I1222422711
sVscore
p180
I95
sVlink
p181
Vhttp://stackoverflow.com/questions/138521/is-it-feasible-to-compile-python-to-machine-code
p182
sVaccepted_answer_id
p183
I138553
sVowner
p184
(dp185
Vuser_id
p186
I22610
sVprofile_image
p187
Vhttps://www.gravatar.com/avatar/7f9987de99a6e76e6f7cb631158c0b1f?s=128&d=identicon&r=PG
p188
sVuser_type
p189
Vregistered
p190
sVreputation
p191
I2573
sVlink
p192
Vhttp://stackoverflow.com/users/22610/andy-balaam
p193
sVaccept_rate
p194
I80
sVdisplay_name
p195
VAndy Balaam
p196
ssVtitle
p197
VIs it feasible to compile Python to machine code?
p198
sVlast_edit_date
p199
I1250174702
sVquestion_id
p200
I138521
sa(dp201
Vbody
p202
V<p>The typical ConfigParser generated file looks like:</p>\u000a\u000a<pre><code>[Section]\u000abar=foo\u000a[Section 2]\u000abar2= baz\u000a</code></pre>\u000a\u000a<p>Now, is there a way to index lists like, for instance:</p>\u000a\u000a<pre><code>[Section 3]\u000abarList={\u000a    item1,\u000a    item2\u000a}\u000a</code></pre>\u000a\u000a<p>Related question: <a href="http://stackoverflow.com/questions/287757/pythons-configparser-unique-keys-per-section">Python\u2019s ConfigParser unique keys per section</a></p>\u000a\u000a<p>? Thanks in advance</p>\u000a
p203
sVis_answered
p204
I01
sVview_count
p205
I76589
sVtags
p206
(lp207
Vpython
p208
aVconfigparser
p209
asVlast_activity_date
p210
I1456688045
sVanswer_count
p211
I10
sVcreation_date
p212
I1228256945
sVscore
p213
I94
sVlink
p214
Vhttp://stackoverflow.com/questions/335695/lists-in-configparser
p215
sVaccepted_answer_id
p216
I335754
sVowner
p217
(dp218
Vuser_id
p219
I42636
sVprofile_image
p220
Vhttps://www.gravatar.com/avatar/1cf6e58dae064fc449e6840ffdb90306?s=128&d=identicon&r=PG
p221
sVuser_type
p222
Vregistered
p223
sVreputation
p224
I17640
sVlink
p225
Vhttp://stackoverflow.com/users/42636/pistacchio
p226
sVaccept_rate
p227
I64
sVdisplay_name
p228
Vpistacchio
p229
ssVtitle
p230
VLists in ConfigParser
p231
sVlast_edit_date
p232
I1345102024
sVquestion_id
p233
I335695
sa(dp234
Vbody
p235
V<p>I am trying to create a matrix transpose function for python but I can't seem to make it work.\u000aSay I have </p>\u000a\u000a<pre><code>theArray = [['a','b','c'],['d','e','f'],['g','h','i']]\u000a</code></pre>\u000a\u000a<p>and I want my function to come up with</p>\u000a\u000a<pre><code>newArray = [['a','d','g'],['b','e','h'],['c', 'f', 'i']]\u000a</code></pre>\u000a\u000a<p>So in other words, if I were to print this 2D array as columns and rows I would like the rows to turn into columns and columns into rows.</p>\u000a\u000a<p>I made this so far but it doesn't work</p>\u000a\u000a<pre><code>def matrixTranspose(anArray):\u000a    transposed = [None]*len(anArray[0])\u000a    for t in range(len(anArray)):\u000a        for tt in range(len(anArray[t])):\u000a            transposed[t] = [None]*len(anArray)\u000a            transposed[t][tt] = anArray[tt][t]\u000a    print transposed\u000a</code></pre>\u000a
p236
sVis_answered
p237
I01
sVview_count
p238
I73616
sVtags
p239
(lp240
Vpython
p241
aVlist
p242
aVmultidimensional-array
p243
asVlast_activity_date
p244
I1468082876
sVanswer_count
p245
I14
sVcreation_date
p246
I1297193928
sVscore
p247
I94
sVlink
p248
Vhttp://stackoverflow.com/questions/4937491/matrix-transpose-in-python
p249
sVaccepted_answer_id
p250
I4937526
sVowner
p251
(dp252
Vuser_id
p253
I590942
sVprofile_image
p254
Vhttps://www.gravatar.com/avatar/024202409e443a0918f03f8fb7aebd7b?s=128&d=identicon&r=PG
p255
sVuser_type
p256
Vregistered
p257
sVreputation
p258
I2453
sVlink
p259
Vhttp://stackoverflow.com/users/590942/julio-diaz
p260
sVaccept_rate
p261
I97
sVdisplay_name
p262
VJulio Diaz
p263
ssVtitle
p264
VMatrix Transpose in Python
p265
sVlast_edit_date
p266
I1413312573
sVquestion_id
p267
I4937491
sa(dp268
Vclosed_date
p269
I1475929318
sVis_answered
p270
I01
sVclosed_reason
p271
Vduplicate
p272
sVview_count
p273
I198990
sVtags
p274
(lp275
Vpython
p276
asVbody
p277
V<p>I am trying to build a histogram of counts... so I create buckets.\u000aI know I could just go through and append a bunch of zeros i.e something along these lines:</p>\u000a\u000a<pre><code>buckets = []\u000afor i in xrange(0,100):\u000a    buckets.append(0)\u000a</code></pre>\u000a\u000a<p>Is there a  more elegant way to do it? I feel like there should be a way to just declare an array of a certain size.</p>\u000a\u000a<p>I know numpy has <code>numpy.zeros</code> but I want the more general solution</p>\u000a
p278
sVlast_activity_date
p279
I1475478361
sVaccepted_answer_id
p280
I4056782
sVcreation_date
p281
I1288399498
sVscore
p282
I94
sVlink
p283
Vhttp://stackoverflow.com/questions/4056768/how-to-declare-array-of-zeros-in-python-or-an-array-of-a-certain-size
p284
sVanswer_count
p285
I10
sVowner
p286
(dp287
Vuser_id
p288
I491880
sVprofile_image
p289
Vhttps://www.gravatar.com/avatar/bd77295fa3de7a7bda26517c48b96db7?s=128&d=identicon&r=PG
p290
sVuser_type
p291
Vregistered
p292
sVreputation
p293
I1448
sVlink
p294
Vhttp://stackoverflow.com/users/491880/user491880
p295
sVaccept_rate
p296
I48
sVdisplay_name
p297
Vuser491880
p298
ssVtitle
p299
VHow to declare array of zeros in python (or an array of a certain size)
p300
sVlast_edit_date
p301
I1418904232
sVquestion_id
p302
I4056768
sa(dp303
Vbody
p304
V<p>Unless I'm mistaken, creating a function in Python works like this:</p>\u000a\u000a<pre><code>def my_func(param1, param2):\u000a    # stuff\u000a</code></pre>\u000a\u000a<p>However, you don't actually give the types of those parameters. Also, if I remember, Python is a strongly typed language, as such, it seems like Python shouldn't let you pass in a parameter of a different type than the function creator expected.  However, how does Python know that the user of the function is passing in the proper types? Will the program just die if it's the wrong type, assuming the function actually uses the parameter? Do you have to specify the type?</p>\u000a
p305
sVis_answered
p306
I01
sVview_count
p307
I112830
sVtags
p308
(lp309
Vpython
p310
aVfunction
p311
aVparameters
p312
asVlast_activity_date
p313
I1493834178
sVanswer_count
p314
I12
sVcreation_date
p315
I1269224240
sVscore
p316
I94
sVlink
p317
Vhttp://stackoverflow.com/questions/2489669/function-parameter-types-in-python
p318
sVaccepted_answer_id
p319
I2489718
sVowner
p320
(dp321
Vuser_id
p322
I288439
sVprofile_image
p323
Vhttps://www.gravatar.com/avatar/81496c48185e5ddd59654ccae341c166?s=128&d=identicon&r=PG
p324
sVuser_type
p325
Vregistered
p326
sVreputation
p327
I8749
sVlink
p328
Vhttp://stackoverflow.com/users/288439/leif-andersen
p329
sVaccept_rate
p330
I87
sVdisplay_name
p331
VLeif Andersen
p332
ssVtitle
p333
VFunction parameter types in Python
p334
sVlast_edit_date
p335
I1348410096
sVquestion_id
p336
I2489669
sa(dp337
Vbody
p338
V<p>I'm using Python 3.5.2</p>\u000a\u000a<p>I have two lists </p>\u000a\u000a<ul>\u000a<li>a list of about 750,000 "sentences" (long strings)</li>\u000a<li>a list of about 20,000 "words" that I would like to delete from my 750,000 sentences</li>\u000a</ul>\u000a\u000a<p>So, I have to loop through 750,000 sentences and perform about 20,000 replacements, <strong>but ONLY if my words are actually "words" and are not part of a larger string of characters.</strong></p>\u000a\u000a<p>I am doing this by <strong>pre-compiling</strong> my words so that they are flanked by the <code>\u005cb</code> metacharacter</p>\u000a\u000a<pre><code>compiled_words = [re.compile(r'\u005cb' + word + r'\u005cb') for word in my20000words]\u000a</code></pre>\u000a\u000a<p>Then I loop through my "sentences"</p>\u000a\u000a<pre><code>import re\u000a\u000afor sentence in sentences:\u000a  for word in compiled_words:\u000a    sentence = re.sub(word, "", sentence)\u000a  # put sentence into a growing list\u000a</code></pre>\u000a\u000a<p>This nested loop is processing about <strong>50 sentences per second</strong>, which is nice, but it still takes several hours to process all of my sentences.</p>\u000a\u000a<ul>\u000a<li><p>Is there a way to using the <code>str.replace</code> method (which I believe is faster), but still requiring that replacements only happen at <strong>word boundaries</strong>?</p></li>\u000a<li><p>Alternatively, is there a way to speed up the <code>re.sub</code> method? I have already improved the speed marginally by skipping over <code>re.sub</code> if the length of my word is > than the length of my sentence, but it's not much of an improvement.</p></li>\u000a</ul>\u000a\u000a<p>Thank you for any suggestions.</p>\u000a
p339
sVis_answered
p340
I01
sVview_count
p341
I6284
sVtags
p342
(lp343
Vpython
p344
aVregex
p345
aVstring
p346
aVperformance
p347
aVreplace
p348
asVlast_activity_date
p349
I1491291856
sVanswer_count
p350
I8
sVcreation_date
p351
I1489283234
sVscore
p352
I94
sVlink
p353
Vhttp://stackoverflow.com/questions/42742810/speed-up-millions-of-regex-replacements-in-python-3
p354
sVaccepted_answer_id
p355
I42742898
sVowner
p356
(dp357
Vuser_id
p358
I4383439
sVprofile_image
p359
Vhttps://www.gravatar.com/avatar/0f17ef81e2061f698f9b0908e9ca5496?s=128&d=identicon&r=PG&f=1
p360
sVuser_type
p361
Vregistered
p362
sVreputation
p363
I602
sVlink
p364
Vhttp://stackoverflow.com/users/4383439/user36476
p365
sVaccept_rate
p366
I75
sVdisplay_name
p367
Vuser36476
p368
ssVtitle
p369
VSpeed up millions of regex replacements in Python 3
p370
sVlast_edit_date
p371
I1489322643
sVquestion_id
p372
I42742810
sa(dp373
Vbody
p374
V<p>I recently saw a bit of code that looked like this (with sock being a socket object of course):</p>\u000a\u000a<pre><code>sock.shutdown(socket.SHUT_RDWR)\u000asock.close()\u000a</code></pre>\u000a\u000a<p>What exactly is the purpose of calling shutdown on the socket and then closing it?  If it makes a difference, this socket is being used for non-blocking IO.</p>\u000a
p375
sVis_answered
p376
I01
sVview_count
p377
I68794
sVtags
p378
(lp379
Vpython
p380
aVsockets
p381
aVasynchronous
p382
asVlast_activity_date
p383
I1436326977
sVanswer_count
p384
I7
sVcreation_date
p385
I1231015075
sVscore
p386
I94
sVlink
p387
Vhttp://stackoverflow.com/questions/409783/socket-shutdown-vs-socket-close
p388
sVaccepted_answer_id
p389
I409843
sVowner
p390
(dp391
Vuser_id
p392
I2147
sVprofile_image
p393
Vhttps://www.gravatar.com/avatar/b8e26b9942e7193a4fe32c407aacfef5?s=128&d=identicon&r=PG
p394
sVuser_type
p395
Vregistered
p396
sVreputation
p397
I86169
sVlink
p398
Vhttp://stackoverflow.com/users/2147/jason-baker
p399
sVaccept_rate
p400
I85
sVdisplay_name
p401
VJason Baker
p402
ssVtitle
p403
Vsocket.shutdown vs socket.close
p404
sVquestion_id
p405
I409783
sa(dp406
Vbody
p407
V<p>How do I test the following code with mocks (using mocks, the patch decorator and sentinels provided by <a href="http://www.voidspace.org.uk/python/mock/" rel="noreferrer">Michael Foord's Mock framework</a>):</p>\u000a\u000a<pre><code>def testme(filepath):\u000a    with open(filepath, 'r') as f:\u000a        return f.read()\u000a</code></pre>\u000a
p408
sVis_answered
p409
I01
sVview_count
p410
I40635
sVtags
p411
(lp412
Vpython
p413
aVmocking
p414
aVwith-statement
p415
asVlast_activity_date
p416
I1494052246
sVanswer_count
p417
I7
sVcreation_date
p418
I1250537210
sVscore
p419
I94
sVlink
p420
Vhttp://stackoverflow.com/questions/1289894/how-do-i-mock-an-open-used-in-a-with-statement-using-the-mock-framework-in-pyth
p421
sVaccepted_answer_id
p422
I6112456
sVowner
p423
(dp424
Vuser_id
p425
I4766
sVprofile_image
p426
Vhttps://www.gravatar.com/avatar/56dbb3799dd6358c3bee3468d0328046?s=128&d=identicon&r=PG
p427
sVuser_type
p428
Vregistered
p429
sVreputation
p430
I37486
sVlink
p431
Vhttp://stackoverflow.com/users/4766/daryl-spitzer
p432
sVaccept_rate
p433
I96
sVdisplay_name
p434
VDaryl Spitzer
p435
ssVtitle
p436
VHow do I mock an open used in a with statement (using the Mock framework in Python)?
p437
sVlast_edit_date
p438
I1386826150
sVquestion_id
p439
I1289894
sa(dp440
Vbody
p441
V<p>Why is the below item failing? and why does it succeed with "latin-1" codec?</p>\u000a\u000a<pre><code>o = "a test of \u005cxe9 char" #I want this to remain a string as this is what I am receiving\u000av = o.decode("utf-8")\u000a</code></pre>\u000a\u000a<p>results in:</p>\u000a\u000a<pre><code> Traceback (most recent call last):  \u000a File "&lt;stdin&gt;", line 1, in &lt;module&gt;  \u000a File "C:\u005cPython27\u005clib\u005cencodings\u005cutf_8.py",\u000a line 16, in decode\u000a     return codecs.utf_8_decode(input, errors, True) UnicodeDecodeError:\u000a 'utf8' codec can't decode byte 0xe9 in position 10: invalid continuation byte\u000a</code></pre>\u000a
p442
sVis_answered
p443
I01
sVview_count
p444
I157891
sVtags
p445
(lp446
Vpython
p447
aVunicode
p448
aVdecode
p449
asVlast_activity_date
p450
I1491411401
sVanswer_count
p451
I4
sVcreation_date
p452
I1302009821
sVscore
p453
I94
sVlink
p454
Vhttp://stackoverflow.com/questions/5552555/unicodedecodeerror-invalid-continuation-byte
p455
sVaccepted_answer_id
p456
I5552623
sVowner
p457
(dp458
Vuser_id
p459
I521586
sVprofile_image
p460
Vhttps://www.gravatar.com/avatar/6c97f4d8e4cc31f3951178a3c907a507?s=128&d=identicon&r=PG
p461
sVuser_type
p462
Vregistered
p463
sVreputation
p464
I2066
sVlink
p465
Vhttp://stackoverflow.com/users/521586/ruidc
p466
sVaccept_rate
p467
I67
sVdisplay_name
p468
VRuiDC
p469
ssVtitle
p470
VUnicodeDecodeError, invalid continuation byte
p471
sVlast_edit_date
p472
I1302010061
sVquestion_id
p473
I5552555
sa(dp474
Vbody
p475
V<p>I have a series of images that I want to create a video from.  Ideally I could specify a frame duration for each frame but a fixed frame rate would be fine too.  I'm doing this in wxPython, so I can render to a wxDC or I can save the images to files, like PNG.  Is there a Python library that will allow me to create either a video (AVI, MPG, etc) or an animated GIF from these frames?</p>\u000a\u000a<p>Edit: I've already tried PIL and it doesn't seem to work.  Can someone correct me with this conclusion or suggest another toolkit?  This link seems to backup my conclusion regarding PIL: <a href="http://www.somethinkodd.com/oddthinking/2005/12/06/python-imaging-library-pil-and-animated-gifs/" rel="noreferrer">http://www.somethinkodd.com/oddthinking/2005/12/06/python-imaging-library-pil-and-animated-gifs/</a></p>\u000a
p476
sVis_answered
p477
I01
sVview_count
p478
I101030
sVtags
p479
(lp480
Vpython
p481
aVvideo
p482
aVwxpython
p483
aVanimated-gif
p484
asVlast_activity_date
p485
I1494868045
sVanswer_count
p486
I13
sVcreation_date
p487
I1239821834
sVscore
p488
I94
sVlink
p489
Vhttp://stackoverflow.com/questions/753190/programmatically-generate-video-or-animated-gif-in-python
p490
sVaccepted_answer_id
p491
I753832
sVowner
p492
(dp493
Vuser_id
p494
I90308
sVprofile_image
p495
Vhttps://www.gravatar.com/avatar/7b7aefbc459629eb4c864b825894c9c4?s=128&d=identicon&r=PG
p496
sVuser_type
p497
Vregistered
p498
sVreputation
p499
I38667
sVlink
p500
Vhttp://stackoverflow.com/users/90308/foglebird
p501
sVaccept_rate
p502
I93
sVdisplay_name
p503
VFogleBird
p504
ssVtitle
p505
VProgrammatically generate video or animated GIF in Python?
p506
sVlast_edit_date
p507
I1239825581
sVquestion_id
p508
I753190
sa(dp509
Vbody
p510
V<p>In many symbolic math systems, such as Matlab or Mathematica, you can use a variable like <code>Ans</code> or <code>%</code> to retrieve the last computed value. Is there a similar facility in the Python shell?</p>\u000a
p511
sVis_answered
p512
I01
sVview_count
p513
I17184
sVtags
p514
(lp515
Vpython
p516
asVlast_activity_date
p517
I1472518229
sVanswer_count
p518
I2
sVcreation_date
p519
I1223958709
sVscore
p520
I94
sVlink
p521
Vhttp://stackoverflow.com/questions/200020/get-last-answer
p522
sVaccepted_answer_id
p523
I200027
sVowner
p524
(dp525
Vuser_id
p526
I23845
sVprofile_image
p527
Vhttps://www.gravatar.com/avatar/434aee9ad675384a9e745c7217ac4abe?s=128&d=identicon&r=PG
p528
sVuser_type
p529
Vregistered
p530
sVreputation
p531
I18070
sVlink
p532
Vhttp://stackoverflow.com/users/23845/edward-z-yang
p533
sVaccept_rate
p534
I68
sVdisplay_name
p535
VEdward Z. Yang
p536
ssVtitle
p537
VGet last answer
p538
sVlast_edit_date
p539
I1401877765
sVquestion_id
p540
I200020
sa(dp541
Vbody
p542
V<p>In Flask, How do I extract parameters from a URL? \u000aHow can I extract named parameters from a URL using flask and python?</p>\u000a\u000a<p>When the user accesses this URL running on my flask app, I want the web service to be able to handle the parameters specified after the question mark:</p>\u000a\u000a<pre><code>http://10.1.1.1:5000/login?username=alex&amp;password=pw1\u000a\u000a#I just want to be able to manipulate the parameters\u000a@app.route('/login', methods=['GET', 'POST'])\u000adef login():\u000a    username = request.form['username']\u000a    print(username)\u000a    password = request.form['password']\u000a    print(password) \u000a</code></pre>\u000a
p543
sVis_answered
p544
I01
sVview_count
p545
I61522
sVtags
p546
(lp547
Vpython
p548
aVweb-services
p549
aVflask
p550
aVurl-parameters
p551
asVlast_activity_date
p552
I1422049239
sVanswer_count
p553
I1
sVcreation_date
p554
I1406044149
sVscore
p555
I94
sVlink
p556
Vhttp://stackoverflow.com/questions/24892035/python-flask-how-to-get-parameters-from-a-url
p557
sVaccepted_answer_id
p558
I24892131
sVowner
p559
(dp560
Vuser_id
p561
I967484
sVprofile_image
p562
Vhttps://i.stack.imgur.com/nBS9m.jpg?s=128&g=1
p563
sVuser_type
p564
Vregistered
p565
sVreputation
p566
I14608
sVlink
p567
Vhttp://stackoverflow.com/users/967484/alex-stone
p568
sVaccept_rate
p569
I69
sVdisplay_name
p570
VAlex Stone
p571
ssVtitle
p572
VPython Flask how to get parameters from a URL?
p573
sVlast_edit_date
p574
I1422049239
sVquestion_id
p575
I24892035
sa(dp576
Vbody
p577
V<p>I've been playing with Python's <a href="https://docs.python.org/3/library/functions.html#hash" rel="nofollow noreferrer">hash function</a>. For small integers, it appears <code>hash(n) == n</code> always. However this does not extend to large numbers:</p>\u000a\u000a<pre><code>&gt;&gt;&gt; hash(2**100) == 2**100\u000aFalse\u000a</code></pre>\u000a\u000a<p>I'm not surprised, I understand hash takes a finite range of values. What is that range?</p>\u000a\u000a<p>I tried using <a href="http://codejamhelpers.readthedocs.io/en/latest/#codejamhelpers.binary_search" rel="nofollow noreferrer">binary search</a> to find the smallest number <code>hash(n) != n</code></p>\u000a\u000a<pre><code>&gt;&gt;&gt; import codejamhelpers # pip install codejamhelpers\u000a&gt;&gt;&gt; help(codejamhelpers.binary_search)\u000aHelp on function binary_search in module codejamhelpers.binary_search:\u000a\u000abinary_search(f, t)\u000a    Given an increasing function :math:`f`, find the greatest non-negative integer :math:`n` such that :math:`f(n) \u005cle t`. If :math:`f(n) &gt; t` for all :math:`n \u005cge 0`, return None.\u000a\u000a&gt;&gt;&gt; f = lambda n: int(hash(n) != n)\u000a&gt;&gt;&gt; n = codejamhelpers.binary_search(f, 0)\u000a&gt;&gt;&gt; hash(n)\u000a2305843009213693950\u000a&gt;&gt;&gt; hash(n+1)\u000a0\u000a</code></pre>\u000a\u000a<p>What's special about 2305843009213693951? I note it's less than <code>sys.maxsize == 9223372036854775807</code></p>\u000a\u000a<p>Edit: I'm using Python 3. I ran the same binary search on Python 2 and got a different result 2147483648, which I note is <code>sys.maxint+1</code></p>\u000a\u000a<p>I also played with <code>[hash(random.random()) for i in range(10**6)]</code> to estimate the range of hash function. The max is consistently below n above. Comparing the min, it seems Python 3's hash is always positively valued, whereas Python 2's hash can take negative values.</p>\u000a
p578
sVis_answered
p579
I01
sVview_count
p580
I5274
sVtags
p581
(lp582
Vpython
p583
aVpython-2.7
p584
aVpython-3.x
p585
aVhash
p586
aVpython-internals
p587
asVlast_activity_date
p588
I1477225705
sVanswer_count
p589
I4
sVcreation_date
p590
I1464951304
sVscore
p591
I94
sVlink
p592
Vhttp://stackoverflow.com/questions/37612524/when-is-hashn-n-in-python
p593
sVaccepted_answer_id
p594
I37614182
sVowner
p595
(dp596
Vuser_id
p597
I284795
sVprofile_image
p598
Vhttps://www.gravatar.com/avatar/99f7ffd3d45dbcef0b3b6960dcfe81a2?s=128&d=identicon&r=PG
p599
sVuser_type
p600
Vregistered
p601
sVreputation
p602
I61391
sVlink
p603
Vhttp://stackoverflow.com/users/284795/colonel-panic
p604
sVaccept_rate
p605
I79
sVdisplay_name
p606
VColonel Panic
p607
ssVtitle
p608
VWhen is hash(n) == n in Python?
p609
sVlast_edit_date
p610
I1477225705
sVquestion_id
p611
I37612524
sa(dp612
Vbody
p613
V<p>Here's the simplest way to explain this. Here's what I'm using:</p>\u000a\u000a<pre><code>re.split('\u005cW', 'foo/bar spam\u005cneggs')\u000a-&gt; ['foo', 'bar', 'spam', 'eggs']\u000a</code></pre>\u000a\u000a<p>Here's what I want:</p>\u000a\u000a<pre><code>someMethod('\u005cW', 'foo/bar spam\u005cneggs')\u000a-&gt; ['foo', '/', 'bar', ' ', 'spam', '\u005cn', 'eggs']\u000a</code></pre>\u000a\u000a<p>The reason is that I want to split a string into tokens, manipulate it, then put it back together again.</p>\u000a
p614
sVis_answered
p615
I01
sVview_count
p616
I32419
sVtags
p617
(lp618
Vpython
p619
aVregex
p620
asVlast_activity_date
p621
I1472219773
sVanswer_count
p622
I6
sVcreation_date
p623
I1264462873
sVscore
p624
I94
sVlink
p625
Vhttp://stackoverflow.com/questions/2136556/in-python-how-do-i-split-a-string-and-keep-the-separators
p626
sVaccepted_answer_id
p627
I2136580
sVowner
p628
(dp629
Vuser_id
p630
I170431
sVprofile_image
p631
Vhttps://www.gravatar.com/avatar/7feff4d90590f89b861db4135bcc36e3?s=128&d=identicon&r=PG
p632
sVuser_type
p633
Vregistered
p634
sVreputation
p635
I4566
sVlink
p636
Vhttp://stackoverflow.com/users/170431/ken-kinder
p637
sVaccept_rate
p638
I97
sVdisplay_name
p639
VKen Kinder
p640
ssVtitle
p641
VIn Python, how do I split a string and keep the separators?
p642
sVquestion_id
p643
I2136556
sa(dp644
Vbody
p645
V<p>I'm trying to test a complicated javascript interface with Selenium (using the Python interface, and across multiple browsers).  I have a number of buttons of the form:</p>\u000a\u000a<pre><code>&lt;div&gt;My Button&lt;/div&gt;\u000a</code></pre>\u000a\u000a<p>I'd like to be able to search for buttons based on "My Button" (or non-case-sensitive, partial matches such as "my button" or "button")</p>\u000a\u000a<p>I'm finding this amazingly difficult, to the extent to which I feel like I'm missing something obvious.  The best thing I have so far is:</p>\u000a\u000a<pre><code>driver.find_elements_by_xpath('//div[contains(text(), "' + text + '")]')\u000a</code></pre>\u000a\u000a<p>This is case-sensitive, however.  The other thing I've tried is iterating through all the divs on the page, and checking the element.text property.  However, every time you get a situation of the form:</p>\u000a\u000a<pre><code>&lt;div class="outer"&gt;&lt;div class="inner"&gt;My Button&lt;/div&gt;&lt;/div&gt;\u000a</code></pre>\u000a\u000a<p>div.outer also has "My Button" as the text.  To fix THAT, I've tried looking to see if div.outer is the parent of div.inner, but couldn't figure out how to do that (element.get_element_by_xpath('..') returns an element's parent, but it tests not equal to div.outer).  Also, iterating through all the elements on the page seems to be really slow, at least using the Chrome webdriver.</p>\u000a\u000a<p>Ideas?</p>\u000a\u000a<p>Edit: This question came out a little vague.  Asked (and answered) a more specific version here: <a href="http://stackoverflow.com/questions/12325454/how-to-get-text-of-an-element-in-selenium-webdriver-via-the-python-api-without/12325461#12325461">How to get text of an element in Selenium WebDriver (via the Python api) without including child element text?</a></p>\u000a
p646
sVis_answered
p647
I01
sVview_count
p648
I200797
sVtags
p649
(lp650
Vpython
p651
aVselenium
p652
aVselenium-webdriver
p653
asVlast_activity_date
p654
I1484646290
sVanswer_count
p655
I4
sVcreation_date
p656
I1347042006
sVscore
p657
I94
sVlink
p658
Vhttp://stackoverflow.com/questions/12323403/how-do-i-find-an-element-that-contains-specific-text-in-selenium-webdriver-pyth
p659
sVowner
p660
(dp661
Vuser_id
p662
I534086
sVprofile_image
p663
Vhttps://www.gravatar.com/avatar/b23b88d5029dd59c7929bb9e7ed3d246?s=128&d=identicon&r=PG
p664
sVuser_type
p665
Vregistered
p666
sVreputation
p667
I2388
sVlink
p668
Vhttp://stackoverflow.com/users/534086/josh
p669
sVaccept_rate
p670
I67
sVdisplay_name
p671
Vjosh
p672
ssVtitle
p673
VHow do I find an element that contains specific text in Selenium Webdriver (Python)?
p674
sVlast_edit_date
p675
I1347052403
sVquestion_id
p676
I12323403
sa(dp677
Vbody
p678
V<p>When installing pip and python I have ran into a snag that says:</p>\u000a\u000a<p>The directory <code>'/Users/Parthenon/Library/Logs/pi' or its parent directory is not owned by the current user and the debug log has been disabled. Please check the permissions and owner of that directory. If executing pip with sudo, you may want the -H flag.</code></p>\u000a\u000a<p>because I now have to install using <code>sudo</code>.</p>\u000a\u000a<p>I had python and a handful of libraries already installed on my Mac, I'm running Yosemite. I recently had to do a clean wipe and then reinstall of the OS. Now I'm getting this prompt and I'm having trouble figuring out how to change it</p>\u000a\u000a<p>Before my command line was <code>Parthenon$</code> now it's <code>Philips-MBP:~ Parthenon$</code></p>\u000a\u000a<p>I am the sole owner of this computer and this is the only account on it. This seems to be a problem when upgrading to python 3.4, nothing seems to be in the right place, virtualenv isn't going where I expect it to, etc.  </p>\u000a
p679
sVis_answered
p680
I01
sVview_count
p681
I69813
sVtags
p682
(lp683
Vpython
p684
aVpip
p685
aVsudo
p686
aVosx-yosemite
p687
asVlast_activity_date
p688
I1489063283
sVanswer_count
p689
I3
sVcreation_date
p690
I1420841123
sVscore
p691
I94
sVlink
p692
Vhttp://stackoverflow.com/questions/27870003/pip-install-please-check-the-permissions-and-owner-of-that-directory
p693
sVowner
p694
(dp695
Vuser_id
p696
I4397018
sVprofile_image
p697
Vhttps://i.stack.imgur.com/V4d72.jpg?s=128&g=1
p698
sVuser_type
p699
Vregistered
p700
sVreputation
p701
I1285
sVlink
p702
Vhttp://stackoverflow.com/users/4397018/phil-andrews
p703
sVaccept_rate
p704
I65
sVdisplay_name
p705
VPhil Andrews
p706
ssVtitle
p707
Vpip install: Please check the permissions and owner of that directory
p708
sVlast_edit_date
p709
I1420848972
sVquestion_id
p710
I27870003
sa(dp711
Vbody
p712
V<p>In Python, if you either open a file without calling <code>close()</code>, or close the file but not using <code>try</code>-<code>finally</code> or the "<code>with</code>" statement, is this a problem?  Or does it suffice as a coding practice to rely on the Python garbage-collection to close all files?  For example, if one does this:</p>\u000a\u000a<pre><code>for line in open("filename"):\u000a    # ... do stuff ...\u000a</code></pre>\u000a\u000a<p>... is this a problem because the file can never be closed and an exception could occur that prevents it from being closed?  Or will it definitely be closed at the conclusion of the <code>for</code> statement because the file goes out of scope?</p>\u000a
p713
sVis_answered
p714
I01
sVview_count
p715
I36172
sVtags
p716
(lp717
Vpython
p718
aVfile
p719
aVgarbage-collection
p720
asVlast_activity_date
p721
I1494111527
sVanswer_count
p722
I5
sVcreation_date
p723
I1315873627
sVscore
p724
I94
sVlink
p725
Vhttp://stackoverflow.com/questions/7395542/is-explicitly-closing-files-important
p726
sVowner
p727
(dp728
Vuser_id
p729
I553702
sVprofile_image
p730
Vhttps://www.gravatar.com/avatar/5eb2a61ac0ad4dcf983de9efca6775d2?s=128&d=identicon&r=PG
p731
sVuser_type
p732
Vregistered
p733
sVreputation
p734
I795
sVlink
p735
Vhttp://stackoverflow.com/users/553702/user553702
p736
sVaccept_rate
p737
I14
sVdisplay_name
p738
Vuser553702
p739
ssVtitle
p740
VIs explicitly closing files important?
p741
sVlast_edit_date
p742
I1389649452
sVquestion_id
p743
I7395542
sa(dp744
Vbody
p745
V<p>At work it seems like no week ever passes without some encoding-related conniption, calamity, or catastrophe.  The problem usually derives from programmers who think they can reliably process a \u201ctext\u201d file without specifying the encoding.  But you can't.</p>\u000a\u000a<p>So it's been decided to henceforth forbid files from ever having names that end in <code>*.txt</code> or <code>*.text</code>.  The thinking is that those extensions mislead the casual programmer into a dull complacency regarding encodings, and this leads to improper handling.  It would almost be better to have no\u000aextension at all, because at least then you <em>know</em> that you don\u2019t know what you\u2019ve got.</p>\u000a\u000a<p>However, we aren\u2019t goint to go that far.  Instead you will be expected to use a filename that ends in the encoding.  So for text files, for example, these would be something like <code>README.ascii</code>, <code>README.latin1</code>, <code>README.utf8</code>, etc.</p>\u000a\u000a<p>For files that demand a particular extension, if one can specify the encoding inside the file itself, such as in Perl or Python, then you shall do that.  For files like Java source where no such facility exists internal to the file, you will put the encoding before the extension, such as <code>SomeClass-utf8.java</code>.</p>\u000a\u000a<p>For output, UTF-8 is to be <strong>strongly</strong> preferred.</p>\u000a\u000a<p>But for input, we need to figure out how to deal with the thousands of files in our codebase named <code>*.txt</code>.  We want to rename all of them to fit into our new standard.  But we can\u2019t possibly eyeball them all.  So we need a library or program that actually works.</p>\u000a\u000a<p>These are variously in ASCII, ISO-8859-1, UTF-8, Microsoft CP1252, or Apple MacRoman.  Although we're know we can tell if something is ASCII, and we stand a good change of knowing if something is probably UTF-8, we\u2019re stumped about the 8-bit encodings.  Because we\u2019re running in a mixed Unix environment (Solaris, Linux, Darwin) with most desktops being Macs, we have quite a few annoying MacRoman files.  And these especially are a problem.</p>\u000a\u000a<p>For some time now I\u2019ve been looking for a way to programmatically determine which of</p>\u000a\u000a<ol>\u000a<li>ASCII</li>\u000a<li>ISO-8859-1</li>\u000a<li>CP1252</li>\u000a<li>MacRoman</li>\u000a<li>UTF-8</li>\u000a</ol>\u000a\u000a<p>a file is in, and I haven\u2019t found a program or library that can reliably distinguish between those the three different 8-bit encodings.  We probably have over a thousand MacRoman files alone, so whatever charset detector we use has to be able to sniff those out.  Nothing I\u2019ve looked at can manage the trick.  I had big hopes for the <a href="http://userguide.icu-project.org/conversion/detection#TOC-CharsetDetector" rel="noreferrer">ICU charset detector library</a>, but it cannot handle MacRoman.  I\u2019ve also looked at modules to do the same sort of thing in both Perl and Python, but again and again it\u2019s always the same story: no support for detecting MacRoman.</p>\u000a\u000a<p>What I am therefore looking for is an existing library or program that reliably determines which of those five encodings a file is in\u2014and preferably more than that.  In particular it has to distinguish between the three 3-bit encoding I\u2019ve cited, <strong>especially MacRoman</strong>.  The files are more than 99% English language text; there are a few in other languages, but not many.</p>\u000a\u000a<p>If it\u2019s library code, our language preference is for it to be in Perl, C, Java, or Python, and in that order.  If it\u2019s just a program, then we don\u2019t really care what language it\u2019s in so long as it comes in full source, runs on Unix, and is fully unencumbered.</p>\u000a\u000a<p>Has anyone else had this problem of a zillion legacy text files randomly encoded?  If so, how did you attempt to solve it, and how successful were you?  This is the most important aspect of my question, but I\u2019m also interested in whether you think encouraging programmers to name (or rename) their files with the actual encoding those files are in will help us avoid the problem in the future.   Has anyone ever tried to enforce this on an institutional basis, and if so, was <em>that</em> successful or not, and why?</p>\u000a\u000a<p>And yes, I fully understand why one cannot guarantee a definite answer given the nature of the problem.   This is especially the case with small files, where you don\u2019t have enough data to go on. Fortunately, our files are seldom small. Apart from the random <code>README</code> file, most are in the size range of 50k to 250k, and many are larger.  Anything more than a few K in size is guaranteed to be in English.</p>\u000a\u000a<p>The problem domain is biomedical text mining, so we sometimes deal with extensive and extremely large corpora, like all of PubMedCentral\u2019s Open Access respository.   A rather huge file is the BioThesaurus 6.0, at 5.7 gigabytes. This file is especially annoying because it is <em>almost</em> all UTF-8.  However, some numbskull went and stuck a few lines in it that are in some 8-bit encoding\u2014Microsoft CP1252, I believe.  It takes quite a while before you trip on that one. :(</p>\u000a
p746
sVis_answered
p747
I01
sVview_count
p748
I13069
sVtags
p749
(lp750
Vjava
p751
aVpython
p752
aVperl
p753
aVosx
p754
aVcharacter-encoding
p755
asVlast_activity_date
p756
I1491407812
sVanswer_count
p757
I7
sVcreation_date
p758
I1289940646
sVscore
p759
I94
sVlink
p760
Vhttp://stackoverflow.com/questions/4198804/how-to-reliably-guess-the-encoding-between-macroman-cp1252-latin1-utf-8-and
p761
sVaccepted_answer_id
p762
I4200765
sVowner
p763
(dp764
Vuser_id
p765
I471272
sVprofile_image
p766
Vhttps://i.stack.imgur.com/jSlyx.gif?s=128&g=1
p767
sVuser_type
p768
Vregistered
p769
sVreputation
p770
I62535
sVlink
p771
Vhttp://stackoverflow.com/users/471272/tchrist
p772
sVaccept_rate
p773
I100
sVdisplay_name
p774
Vtchrist
p775
ssVtitle
p776
VHow to reliably guess the encoding between MacRoman, CP1252, Latin1, UTF-8, and ASCII
p777
sVlast_edit_date
p778
I1296776593
sVquestion_id
p779
I4198804
sa(dp780
Vbody
p781
V<p>I found that in <code>123</code>, <code>\u005cd</code> matches <code>1</code> and <code>3</code> but not <code>2</code>. I was wondering if <code>\u005cd</code> matches a digit satisfying what kind of requirement? I am talking about Python style regex. </p>\u000a\u000a<p>Regular expression plugin in Gedit is using Python style regex. I created a text file with its content being </p>\u000a\u000a<pre><code>123\u000a</code></pre>\u000a\u000a<p>Only <code>1</code> and <code>3</code> are matched by the regex <code>\u005cd</code>; <code>2</code> is not.</p>\u000a\u000a<p>Generally for a sequence of digit numbers without other characters in between, only the odd order digits are matches, and the even order digits are not. For example in <code>12345</code>, the matches are <code>1</code>, <code>3</code> and <code>5</code>. </p>\u000a
p782
sVis_answered
p783
I01
sVview_count
p784
I144446
sVtags
p785
(lp786
Vpython
p787
aVregex
p788
aVencoding
p789
aVgedit
p790
asVlast_activity_date
p791
I1477433987
sVanswer_count
p792
I5
sVcreation_date
p793
I1309023231
sVscore
p794
I93
sVlink
p795
Vhttp://stackoverflow.com/questions/6479423/does-d-in-regex-mean-a-digit
p796
sVowner
p797
(dp798
Vuser_id
p799
I156458
sVprofile_image
p800
Vhttps://www.gravatar.com/avatar/967a3d9e28a7a7cece28e9a30e642fde?s=128&d=identicon&r=PG
p801
sVuser_type
p802
Vregistered
p803
sVreputation
p804
I21652
sVlink
p805
Vhttp://stackoverflow.com/users/156458/tim
p806
sVaccept_rate
p807
I48
sVdisplay_name
p808
VTim
p809
ssVtitle
p810
VDoes &quot;\u005cd&quot; in regex mean a digit?
p811
sVlast_edit_date
p812
I1403116060
sVquestion_id
p813
I6479423
sa(dp814
Vbody
p815
V<p>Hi I am quite new to python and this is probably quite a basic question but the help would be much appreciated.</p>\u000a\u000a<p>I would like to put an int within a string. This is what I am doing at the moment..</p>\u000a\u000a<pre><code>end = smooth(data,window_len=40)\u000aplot.plot(time[0:len(end)],end)\u000aplot.savefig('hanning(40).pdf') #problem line\u000a</code></pre>\u000a\u000a<p>I have to run the program for several different numbers instead of the two 40's. So I'd like to do a loop but inserting the variable like this doesn't work:</p>\u000a\u000a<pre><code>plot.savefig('hanning',num,'.pdf')\u000a</code></pre>\u000a\u000a<p>Thanks!</p>\u000a
p816
sVis_answered
p817
I01
sVview_count
p818
I246250
sVtags
p819
(lp820
Vpython
p821
aVvariables
p822
asVlast_activity_date
p823
I1474124038
sVanswer_count
p824
I5
sVcreation_date
p825
I1275505552
sVscore
p826
I93
sVlink
p827
Vhttp://stackoverflow.com/questions/2960772/putting-a-variable-inside-a-string-python
p828
sVaccepted_answer_id
p829
I2960791
sVowner
p830
(dp831
Vuser_id
p832
I356794
sVprofile_image
p833
Vhttps://www.gravatar.com/avatar/dd6cd95598a9ad617e42e79c33eb2d75?s=128&d=identicon&r=PG
p834
sVuser_type
p835
Vregistered
p836
sVreputation
p837
I506
sVlink
p838
Vhttp://stackoverflow.com/users/356794/gish
p839
sVdisplay_name
p840
VGish
p841
ssVtitle
p842
VPutting a variable inside a string (python)
p843
sVlast_edit_date
p844
I1275505868
sVquestion_id
p845
I2960772
sa(dp846
Vbody
p847
V<p>I am writing a program that stores data in a dictionary object, but this data needs to be saved at some point during the program execution and loaded back into the dictionary object when the program is run again.\u000aHow would I convert a dictionary object into a string that can be written to a file and loaded back into a dictionary object? This will hopefully support dictionaries containing dictionaries.</p>\u000a
p848
sVis_answered
p849
I01
sVview_count
p850
I179731
sVtags
p851
(lp852
Vpython
p853
aVdictionary
p854
aVserialization
p855
asVlast_activity_date
p856
I1479808936
sVanswer_count
p857
I9
sVcreation_date
p858
I1293551552
sVscore
p859
I93
sVlink
p860
Vhttp://stackoverflow.com/questions/4547274/convert-a-python-dict-to-a-string-and-back
p861
sVaccepted_answer_id
p862
I4547331
sVowner
p863
(dp864
Vuser_id
p865
I375569
sVprofile_image
p866
Vhttps://www.gravatar.com/avatar/38aa612ef09eb23bfa293464163fecfa?s=128&d=identicon&r=PG
p867
sVuser_type
p868
Vregistered
p869
sVreputation
p870
I2374
sVlink
p871
Vhttp://stackoverflow.com/users/375569/aj00200
p872
sVaccept_rate
p873
I100
sVdisplay_name
p874
VAJ00200
p875
ssVtitle
p876
VConvert a python dict to a string and back
p877
sVlast_edit_date
p878
I1433433187
sVquestion_id
p879
I4547274
sa(dp880
Vbody
p881
V<p>Is it a linked list, an array?  I searched around and only found people guessing.  My C knowledge isn't good enough to look at the source code.</p>\u000a
p882
sVis_answered
p883
I01
sVview_count
p884
I31270
sVtags
p885
(lp886
Vpython
p887
aVarrays
p888
aVlist
p889
aVlinked-list
p890
aVpython-internals
p891
asVlast_activity_date
p892
I1457213074
sVanswer_count
p893
I6
sVcreation_date
p894
I1286906193
sVscore
p895
I93
sVlink
p896
Vhttp://stackoverflow.com/questions/3917574/how-is-pythons-list-implemented
p897
sVaccepted_answer_id
p898
I3917632
sVowner
p899
(dp900
Vuser_id
p901
I13009
sVprofile_image
p902
Vhttps://www.gravatar.com/avatar/6cc09155d4a43cc770bf1e77fd87867a?s=128&d=identicon&r=PG
p903
sVuser_type
p904
Vregistered
p905
sVreputation
p906
I13653
sVlink
p907
Vhttp://stackoverflow.com/users/13009/greg
p908
sVaccept_rate
p909
I79
sVdisplay_name
p910
VGreg
p911
ssVtitle
p912
VHow is Python&#39;s List Implemented?
p913
sVlast_edit_date
p914
I1398787664
sVquestion_id
p915
I3917574
sa(dp916
Vbody
p917
V<p>Is it possible to delete multiple elements from a list at the same time? If I want to delete elements at index 0 and 2, and try something like del somelist[0], followed by del somelist[2], the second statement will actually delete somelist[3].</p>\u000a\u000a<p>I suppose I could always delete the higher numbered elements first but I'm hoping there is a better way.</p>\u000a
p918
sVis_answered
p919
I01
sVview_count
p920
I127033
sVtags
p921
(lp922
Vpython
p923
aVlist
p924
asVlast_activity_date
p925
I1490392881
sVanswer_count
p926
I21
sVcreation_date
p927
I1233352778
sVscore
p928
I93
sVlink
p929
Vhttp://stackoverflow.com/questions/497426/deleting-multiple-elements-from-a-list
p930
sVaccepted_answer_id
p931
I497439
sVowner
p932
(dp933
Vdisplay_name
p934
VJoe Calimari
p935
sVuser_type
p936
Vdoes_not_exist
p937
ssVtitle
p938
VDeleting multiple elements from a list
p939
sVlast_edit_date
p940
I1414236894
sVquestion_id
p941
I497426
sa(dp942
Vbody
p943
V<p>I am running this:</p>\u000a\u000a<pre><code>import csv\u000aimport sys\u000areader = csv.reader(open(sys.argv[0], "rb"))\u000afor row in reader:\u000a    print row\u000a</code></pre>\u000a\u000a<p>And I get this in response:</p>\u000a\u000a<pre><code>['import csv']\u000a['import sys']\u000a['reader = csv.reader(open(sys.argv[0]', ' "rb"))']\u000a['for row in reader:']\u000a['    print row']\u000a&gt;&gt;&gt; \u000a</code></pre>\u000a\u000a<p>For the <code>sys.argv[0]</code> I would like it to prompt me to enter a filename.</p>\u000a\u000a<p>How do I get it to prompt me to enter a filename?</p>\u000a
p944
sVis_answered
p945
I01
sVprotected_date
p946
I1479622592
sVview_count
p947
I256171
sVtags
p948
(lp949
Vpython
p950
aVuser-input
p951
asVlast_activity_date
p952
I1490723505
sVaccepted_answer_id
p953
I36110735
sVcreation_date
p954
I1280244357
sVscore
p955
I93
sVlink
p956
Vhttp://stackoverflow.com/questions/3345202/getting-user-input
p957
sVanswer_count
p958
I5
sVowner
p959
(dp960
Vuser_id
p961
I117700
sVprofile_image
p962
Vhttps://www.gravatar.com/avatar/1a350b4a18da2ffab7bde4bc753909bd?s=128&d=identicon&r=PG
p963
sVuser_type
p964
Vregistered
p965
sVreputation
p966
I11786
sVlink
p967
Vhttp://stackoverflow.com/users/117700/l
p968
sVaccept_rate
p969
I94
sVdisplay_name
p970
Vl--&#39;&#39;&#39;&#39;&#39;&#39;---------&#39;&#39;&#39;&#39;&#39;&#39;&#39;&#39;&#39;&#39;&#39;&#39;
p971
ssVtitle
p972
VGetting user input
p973
sVlast_edit_date
p974
I1479038017
sVquestion_id
p975
I3345202
sa(dp976
Vclosed_date
p977
I1351004426
sVis_answered
p978
I01
sVclosed_reason
p979
Vexact duplicate
p980
sVview_count
p981
I66210
sVtags
p982
(lp983
Vpython
p984
aVlist
p985
aVtuples
p986
aVlist-comprehension
p987
asVbody
p988
V<blockquote>\u000a  <p><strong>Possible Duplicate:</strong><br>\u000a  <a href="http://stackoverflow.com/questions/19339/a-transpose-unzip-function-in-python">A Transpose/Unzip Function in Python</a>  </p>\u000a</blockquote>\u000a\u000a\u000a\u000a<p>I have a list of tuples, where I want to unzip this list into two independent lists. I'm looking for some standardized operation in Python. </p>\u000a\u000a<pre><code>&gt;&gt;&gt; l = [(1,2), (3,4), (8,9)]\u000a&gt;&gt;&gt; f_xxx (l)\u000a[ [1, 3, 8], [2, 4, 9] ] \u000a</code></pre>\u000a\u000a<p>I'm looking for a succinct and pythonic way to achieve this. </p>\u000a\u000a<p>Basically, I'm hunting for inverse operation of <a href="http://docs.python.org/library/functions.html?highlight=zip#zip"><code>zip()</code></a> function. </p>\u000a
p989
sVlast_activity_date
p990
I1460811557
sVaccepted_answer_id
p991
I12974504
sVcreation_date
p992
I1350650320
sVscore
p993
I93
sVlink
p994
Vhttp://stackoverflow.com/questions/12974474/how-to-unzip-a-list-of-tuples-into-individual-lists
p995
sVanswer_count
p996
I2
sVowner
p997
(dp998
Vuser_id
p999
I638725
sVprofile_image
p1000
Vhttps://www.gravatar.com/avatar/6b53f022ae82c491eca283c0d01a2b3f?s=128&d=identicon&r=PG
p1001
sVuser_type
p1002
Vregistered
p1003
sVreputation
p1004
I1368
sVlink
p1005
Vhttp://stackoverflow.com/users/638725/vaidabhishek
p1006
sVaccept_rate
p1007
I40
sVdisplay_name
p1008
VVaidAbhishek
p1009
ssVtitle
p1010
VHow to unzip a list of tuples into individual lists?
p1011
sVlast_edit_date
p1012
I1460811557
sVquestion_id
p1013
I12974474
sa(dp1014
Vbody
p1015
V<p>Hay, I'm trying to save a object to my database, but it's throwing a MultiValueDictKeyError error.</p>\u000a\u000a<p>The problems lies within the form, the is_private is represented by a checkbox. If the check box is NOT selected, obvously nothing is passed. This is where the error gets chucked.</p>\u000a\u000a<p>How do i properly deal with this exception, and catch it? </p>\u000a\u000a<p>The line is</p>\u000a\u000a<pre><code>is_private = request.POST['is_private']\u000a</code></pre>\u000a\u000a<p>Thank</p>\u000a
p1016
sVis_answered
p1017
I01
sVview_count
p1018
I88367
sVtags
p1019
(lp1020
Vpython
p1021
aVdjango
p1022
aVexception
p1023
asVlast_activity_date
p1024
I1436973379
sVanswer_count
p1025
I4
sVcreation_date
p1026
I1304588414
sVscore
p1027
I93
sVlink
p1028
Vhttp://stackoverflow.com/questions/5895588/django-multivaluedictkeyerror-error-how-do-i-deal-with-it
p1029
sVaccepted_answer_id
p1030
I5895670
sVowner
p1031
(dp1032
Vuser_id
p1033
I164230
sVprofile_image
p1034
Vhttps://www.gravatar.com/avatar/dd53052f52eabc114751609fc2b40174?s=128&d=identicon&r=PG
p1035
sVuser_type
p1036
Vregistered
p1037
sVreputation
p1038
I13389
sVlink
p1039
Vhttp://stackoverflow.com/users/164230/dotty
p1040
sVaccept_rate
p1041
I92
sVdisplay_name
p1042
Vdotty
p1043
ssVtitle
p1044
Vdjango MultiValueDictKeyError error, how do i deal with it
p1045
sVquestion_id
p1046
I5895588
sa(dp1047
Vbody
p1048
V<p>For my django powered site, I am looking for an easy solution to convert dynamic html pages to pdf.</p>\u000a\u000a<p>Pages include HTML and charts from Google visualization API (which is javascript based, yet including those graphs is a must).</p>\u000a
p1049
sVis_answered
p1050
I01
sVview_count
p1051
I58544
sVtags
p1052
(lp1053
Vpython
p1054
aVhtml
p1055
aVdjango
p1056
aVpdf
p1057
aVpdf-generation
p1058
asVlast_activity_date
p1059
I1490801436
sVanswer_count
p1060
I10
sVcreation_date
p1061
I1252043675
sVscore
p1062
I93
sVlink
p1063
Vhttp://stackoverflow.com/questions/1377446/render-html-to-pdf-in-django-site
p1064
sVaccepted_answer_id
p1065
I1377652
sVowner
p1066
(dp1067
Vdisplay_name
p1068
Vcrib
p1069
sVuser_type
p1070
Vdoes_not_exist
p1071
ssVtitle
p1072
VRender HTML to PDF in Django site
p1073
sVlast_edit_date
p1074
I1391436862
sVquestion_id
p1075
I1377446
sa(dp1076
Vbody
p1077
V<p>If you have a collection of methods in a file, is there a way to include those files in another file, but call them without any prefix (i.e. file prefix)?</p>\u000a\u000a<p>So if I have:</p>\u000a\u000a<pre><code>[Math.py]\u000adef Calculate ( num )\u000a</code></pre>\u000a\u000a<p>How do I call it like this:</p>\u000a\u000a<pre><code>[Tool.py]\u000ausing Math.py\u000a\u000afor i in range ( 5 ) :\u000a    Calculate ( i )\u000a</code></pre>\u000a
p1078
sVis_answered
p1079
I01
sVview_count
p1080
I168667
sVtags
p1081
(lp1082
Vpython
p1083
asVlast_activity_date
p1084
I1475065552
sVanswer_count
p1085
I4
sVcreation_date
p1086
I1238779318
sVscore
p1087
I93
sVlink
p1088
Vhttp://stackoverflow.com/questions/714881/how-to-include-external-python-code-to-use-in-other-files
p1089
sVaccepted_answer_id
p1090
I714890
sVowner
p1091
(dp1092
Vuser_id
p1093
I51816
sVprofile_image
p1094
Vhttps://www.gravatar.com/avatar/0e54bb28182bcd9df39704751306df27?s=128&d=identicon&r=PG
p1095
sVuser_type
p1096
Vregistered
p1097
sVreputation
p1098
I72615
sVlink
p1099
Vhttp://stackoverflow.com/users/51816/joan-venge
p1100
sVaccept_rate
p1101
I82
sVdisplay_name
p1102
VJoan Venge
p1103
ssVtitle
p1104
VHow to include external Python code to use in other files?
p1105
sVlast_edit_date
p1106
I1238780101
sVquestion_id
p1107
I714881
sa(dp1108
Vbody
p1109
V<p>Anyone know of a simple library or function to parse a csv encoded string and turn it into an array or dictionary?</p>\u000a\u000a<p>I don't think I want the built in <a href="http://docs.python.org/library/csv.html" rel="noreferrer">csv module</a> because in all the examples I've seen that takes filepaths, not strings.</p>\u000a
p1110
sVis_answered
p1111
I01
sVview_count
p1112
I105344
sVtags
p1113
(lp1114
Vpython
p1115
aVstring
p1116
aVarrays
p1117
aVcsv
p1118
asVlast_activity_date
p1119
I1490171028
sVanswer_count
p1120
I9
sVcreation_date
p1121
I1279775328
sVscore
p1122
I93
sVlink
p1123
Vhttp://stackoverflow.com/questions/3305926/python-csv-string-to-array
p1124
sVaccepted_answer_id
p1125
I3305964
sVowner
p1126
(dp1127
Vuser_id
p1128
I95642
sVprofile_image
p1129
Vhttps://www.gravatar.com/avatar/36cf75fa7751ef674df65ab65cecd255?s=128&d=identicon&r=PG
p1130
sVuser_type
p1131
Vregistered
p1132
sVreputation
p1133
I5249
sVlink
p1134
Vhttp://stackoverflow.com/users/95642/drew-lesueur
p1135
sVaccept_rate
p1136
I79
sVdisplay_name
p1137
VDrew LeSueur
p1138
ssVtitle
p1139
VPython csv string to array
p1140
sVlast_edit_date
p1141
I1448004032
sVquestion_id
p1142
I3305926
sa(dp1143
Vbody
p1144
V<p>I am trying to pass a list as an argument to a command line program. Is there an <a href="https://docs.python.org/3/library/argparse.html" rel="noreferrer"><code>argparse</code></a> option to pass a list as option?</p>\u000a\u000a<pre><code>  parser.add_argument('-l', '--list',\u000a                      type=list, action='store',\u000a                      dest='list',\u000a                      help='&lt;Required&gt; Set flag',\u000a                      required=True)\u000a</code></pre>\u000a\u000a<p>Script is called like below</p>\u000a\u000a<pre><code>python test.py -l "265340 268738 270774 270817"\u000a</code></pre>\u000a
p1145
sVis_answered
p1146
I01
sVview_count
p1147
I51281
sVtags
p1148
(lp1149
Vpython
p1150
aVargparse
p1151
asVlast_activity_date
p1152
I1490978716
sVanswer_count
p1153
I5
sVcreation_date
p1154
I1364859298
sVscore
p1155
I93
sVlink
p1156
Vhttp://stackoverflow.com/questions/15753701/argparse-option-for-passing-a-list-as-option
p1157
sVaccepted_answer_id
p1158
I15753721
sVowner
p1159
(dp1160
Vuser_id
p1161
I2125827
sVprofile_image
p1162
Vhttps://www.gravatar.com/avatar/e2931c1ee2f6b4fefef20b2ef4a25082?s=128&d=identicon&r=PG
p1163
sVuser_type
p1164
Vregistered
p1165
sVreputation
p1166
I1235
sVlink
p1167
Vhttp://stackoverflow.com/users/2125827/user2125827
p1168
sVaccept_rate
p1169
I79
sVdisplay_name
p1170
Vuser2125827
p1171
ssVtitle
p1172
Vargparse option for passing a list as option
p1173
sVlast_edit_date
p1174
I1449070838
sVquestion_id
p1175
I15753701
sa(dp1176
Vbody
p1177
V<p>Is it possible to forward-declare a function in Python?  I want to sort a list using my own <code>cmp</code> function before it is declared.  </p>\u000a\u000a<pre><code>print "\u005cn".join([str(bla) for bla in sorted(mylist, cmp = cmp_configs)])\u000a</code></pre>\u000a\u000a<p>I've organized my code to put the definition of <code>cmp_configs</code> method after the invocation.  It fails with this error:</p>\u000a\u000a<pre><code>NameError: name 'cmp_configs' is not defined\u000a</code></pre>\u000a\u000a<p>Is there any way to "declare" <code>cmp_configs</code> method before it's used?  It would make my code look cleaner?</p>\u000a\u000a<p>I assume that some people will be tempted to tell me that I should just reorganize my code so that I don't have this problem.  However, there are cases when this is probably unavoidable, for instance when implementing some forms of recursion.  If you don't like this example, assume that I have a case in which it's <em>really</em> necessary to forward declare a function.</p>\u000a\u000a<p><strong>Consider this case where forward-declaring a function would be necessary in Python:</strong></p>\u000a\u000a<pre><code>def spam():\u000a    if end_condition():\u000a        return end_result()\u000a    else:\u000a        return eggs()\u000a\u000adef eggs():\u000a    if end_condition():\u000a        return end_result()\u000a    else:\u000a        return spam()\u000a</code></pre>\u000a\u000a<p>Where <code>end_condition</code> and <code>end_result</code> have been previously defined.</p>\u000a\u000a<p>Is the only solution to reorganize the code and always put definitions before invocations?</p>\u000a
p1178
sVis_answered
p1179
I01
sVview_count
p1180
I78999
sVtags
p1181
(lp1182
Vpython
p1183
aVforward-declaration
p1184
asVlast_activity_date
p1185
I1464308459
sVanswer_count
p1186
I12
sVcreation_date
p1187
I1255980561
sVscore
p1188
I93
sVlink
p1189
Vhttp://stackoverflow.com/questions/1590608/is-it-possible-to-forward-declare-a-function-in-python
p1190
sVaccepted_answer_id
p1191
I1590657
sVowner
p1192
(dp1193
Vuser_id
p1194
I1084
sVprofile_image
p1195
Vhttps://www.gravatar.com/avatar/898c2217a5457bdef0a0ed58283010dc?s=128&d=identicon&r=PG
p1196
sVuser_type
p1197
Vregistered
p1198
sVreputation
p1199
I50199
sVlink
p1200
Vhttp://stackoverflow.com/users/1084/nathan-fellman
p1201
sVaccept_rate
p1202
I86
sVdisplay_name
p1203
VNathan Fellman
p1204
ssVtitle
p1205
VIs it possible to forward-declare a function in Python?
p1206
sVlast_edit_date
p1207
I1388887481
sVquestion_id
p1208
I1590608
sa(dp1209
Vbody
p1210
V<p>Is there a more concise, efficient or simply pythonic way to do the following?</p>\u000a\u000a<pre><code>def product(list):\u000a    p = 1\u000a    for i in list:\u000a        p *= i\u000a    return p\u000a</code></pre>\u000a\u000a<p>EDIT:</p>\u000a\u000a<p>I actually find that this is marginally faster than using operator.mul:</p>\u000a\u000a<pre><code>from operator import mul\u000a# from functools import reduce # python3 compatibility\u000a\u000adef with_lambda(list):\u000a    reduce(lambda x, y: x * y, list)\u000a\u000adef without_lambda(list):\u000a    reduce(mul, list)\u000a\u000adef forloop(list):\u000a    r = 1\u000a    for x in list:\u000a        r *= x\u000a    return r\u000a\u000aimport timeit\u000a\u000aa = range(50)\u000ab = range(1,50)#no zero\u000at = timeit.Timer("with_lambda(a)", "from __main__ import with_lambda,a")\u000aprint("with lambda:", t.timeit())\u000at = timeit.Timer("without_lambda(a)", "from __main__ import without_lambda,a")\u000aprint("without lambda:", t.timeit())\u000at = timeit.Timer("forloop(a)", "from __main__ import forloop,a")\u000aprint("for loop:", t.timeit())\u000a\u000at = timeit.Timer("with_lambda(b)", "from __main__ import with_lambda,b")\u000aprint("with lambda (no 0):", t.timeit())\u000at = timeit.Timer("without_lambda(b)", "from __main__ import without_lambda,b")\u000aprint("without lambda (no 0):", t.timeit())\u000at = timeit.Timer("forloop(b)", "from __main__ import forloop,b")\u000aprint("for loop (no 0):", t.timeit())\u000a</code></pre>\u000a\u000a<p>gives me</p>\u000a\u000a<pre><code>('with lambda:', 17.755449056625366)\u000a('without lambda:', 8.2084708213806152)\u000a('for loop:', 7.4836349487304688)\u000a('with lambda (no 0):', 22.570688009262085)\u000a('without lambda (no 0):', 12.472226858139038)\u000a('for loop (no 0):', 11.04065990447998)\u000a</code></pre>\u000a
p1211
sVis_answered
p1212
I01
sVview_count
p1213
I76467
sVtags
p1214
(lp1215
Vpython
p1216
asVlast_activity_date
p1217
I1480253818
sVanswer_count
p1218
I8
sVcreation_date
p1219
I1264020010
sVscore
p1220
I93
sVlink
p1221
Vhttp://stackoverflow.com/questions/2104782/returning-the-product-of-a-list
p1222
sVaccepted_answer_id
p1223
I2105155
sVowner
p1224
(dp1225
Vuser_id
p1226
I252781
sVprofile_image
p1227
Vhttps://www.gravatar.com/avatar/543ca5e3b1f963f61f10f7dfd2072003?s=128&d=identicon&r=PG
p1228
sVuser_type
p1229
Vregistered
p1230
sVreputation
p1231
I485
sVlink
p1232
Vhttp://stackoverflow.com/users/252781/simon-watkins
p1233
sVdisplay_name
p1234
VSimon Watkins
p1235
ssVtitle
p1236
VReturning the product of a list
p1237
sVlast_edit_date
p1238
I1264113089
sVquestion_id
p1239
I2104782
sa(dp1240
Vbody
p1241
V<p>I'm trying to build a simple API using Flask, in which I now want to read some POSTed JSON. I do the post with the <a href="https://chrome.google.com/webstore/detail/postman-rest-client/fdmmgilgnpjigdojojpjoooidkmcomcm" rel="noreferrer">PostMan Chrome extension</a>, and the JSON I post is simply <code>{"text":"lalala"}</code>. I try to read the JSON using the following method:</p>\u000a\u000a<pre><code>@app.route('/api/add_message/&lt;uuid&gt;', methods=['GET', 'POST'])\u000adef add_message(uuid):\u000a    content = request.json\u000a    print content\u000a    return uuid\u000a</code></pre>\u000a\u000a<p>On the browser it correctly returns the uuid I put in the GET, but on the console, it just prints out <code>None</code> (where I expect it to print out the <code>{"text":"lalala"}</code>. Does anybody know how I can get the posted JSON from within the Flask method? </p>\u000a
p1242
sVis_answered
p1243
I01
sVview_count
p1244
I104753
sVtags
p1245
(lp1246
Vpython
p1247
aVjson
p1248
aVpost
p1249
aVflask
p1250
asVlast_activity_date
p1251
I1488296443
sVanswer_count
p1252
I4
sVcreation_date
p1253
I1384518919
sVscore
p1254
I93
sVlink
p1255
Vhttp://stackoverflow.com/questions/20001229/how-to-get-posted-json-in-flask
p1256
sVaccepted_answer_id
p1257
I20001283
sVowner
p1258
(dp1259
Vuser_id
p1260
I1650012
sVprofile_image
p1261
Vhttps://www.gravatar.com/avatar/a21bc05bb7df4e5c3cb4933e4f3072eb?s=128&d=identicon&r=PG
p1262
sVuser_type
p1263
Vregistered
p1264
sVreputation
p1265
I6316
sVlink
p1266
Vhttp://stackoverflow.com/users/1650012/kramer65
p1267
sVaccept_rate
p1268
I67
sVdisplay_name
p1269
Vkramer65
p1270
ssVtitle
p1271
VHow to get POSTed json in Flask?
p1272
sVlast_edit_date
p1273
I1425392766
sVquestion_id
p1274
I20001229
sa(dp1275
Vbody
p1276
V<p>Right now I'm importing a fairly large <code>CSV</code> as a dataframe every time I run the script. Is there a good solution for keeping that dataframe constantly available in between runs so I don't have to spend all that time waiting for the script to run?</p>\u000a
p1277
sVis_answered
p1278
I01
sVview_count
p1279
I63075
sVtags
p1280
(lp1281
Vpython
p1282
aVpandas
p1283
asVlast_activity_date
p1284
I1494605959
sVanswer_count
p1285
I5
sVcreation_date
p1286
I1371164736
sVscore
p1287
I93
sVlink
p1288
Vhttp://stackoverflow.com/questions/17098654/how-to-store-data-frame-using-pandas-python
p1289
sVaccepted_answer_id
p1290
I17098736
sVowner
p1291
(dp1292
Vuser_id
p1293
I972381
sVprofile_image
p1294
Vhttps://www.gravatar.com/avatar/381452254c68b3163474d2d45d29b95b?s=128&d=identicon&r=PG
p1295
sVuser_type
p1296
Vregistered
p1297
sVreputation
p1298
I498
sVlink
p1299
Vhttp://stackoverflow.com/users/972381/jeffstern
p1300
sVdisplay_name
p1301
Vjeffstern
p1302
ssVtitle
p1303
VHow to store data frame using PANDAS, Python
p1304
sVlast_edit_date
p1305
I1451421069
sVquestion_id
p1306
I17098654
sa(dp1307
Vclosed_date
p1308
I1296079681
sVis_answered
p1309
I01
sVclosed_reason
p1310
Vexact duplicate
p1311
sVview_count
p1312
I312550
sVtags
p1313
(lp1314
Vpython
p1315
aVscreen
p1316
aVclear
p1317
asVbody
p1318
V<blockquote>\u000a  <p><strong>Possible Duplicates:</strong><br>\u000a  <a href="http://stackoverflow.com/questions/2084508/clear-terminal-in-python">clear terminal in python</a><br>\u000a  <a href="http://stackoverflow.com/questions/517970/how-to-clear-python-interpreter-console">How to clear python interpreter console?</a>  </p>\u000a</blockquote>\u000a\u000a\u000a\u000a<p>I'm trying to write a program in Python but I don't know how to clear the screen.\u000aI use both Windows and Linux and I use commands to clear the screen in those, but I don't know how to do it in Python.</p>\u000a\u000a<p>How do I use Python to clear the screen?</p>\u000a
p1319
sVlast_activity_date
p1320
I1433312598
sVanswer_count
p1321
I1
sVcreation_date
p1322
I1296079257
sVscore
p1323
I93
sVlink
p1324
Vhttp://stackoverflow.com/questions/4810537/how-to-clear-the-screen-in-python
p1325
sVowner
p1326
(dp1327
Vuser_id
p1328
I591394
sVprofile_image
p1329
Vhttps://www.gravatar.com/avatar/11a45eba6e1ad975f72a526be89528ff?s=128&d=identicon&r=PG
p1330
sVuser_type
p1331
Vunregistered
p1332
sVreputation
p1333
I466
sVlink
p1334
Vhttp://stackoverflow.com/users/591394/shiester
p1335
sVdisplay_name
p1336
Vshiester
p1337
ssVtitle
p1338
Vhow to clear the screen in python
p1339
sVlast_edit_date
p1340
I1391784504
sVquestion_id
p1341
I4810537
sa(dp1342
Vbody
p1343
V<p>In our team, we define most test cases like this:</p>\u000a\u000a<p>One "framework" class ourtcfw.py:</p>\u000a\u000a<pre><code>import unittest\u000a\u000aclass OurTcFw(unittest.TestCase):\u000a    def setUp:\u000a        # something\u000a\u000a    # other stuff that we want to use everywhere\u000a</code></pre>\u000a\u000a<p>and a lot of test cases like testMyCase.py:</p>\u000a\u000a<pre><code>import localweather\u000a\u000aclass MyCase(OurTcFw):\u000a\u000a    def testItIsSunny(self):\u000a        self.assertTrue(localweather.sunny)\u000a\u000a    def testItIsHot(self):\u000a        self.assertTrue(localweather.temperature &gt; 20)\u000a\u000aif __name__ == "__main__":\u000a    unittest.main()\u000a</code></pre>\u000a\u000a<p>When I'm writing new test code and want to run it often, and save time, what I do is that I put "__" in front of all other tests.  But it's cumbersome, distracts me from the code I 'm writing and the commit noise this creates is plain annoying.</p>\u000a\u000a<p>So e.g. when making changes to <code>testItIsHot()</code>, I want to be able to do this:</p>\u000a\u000a<pre class="lang-none prettyprint-override"><code>$ python testMyCase.py testItIsHot\u000a</code></pre>\u000a\u000a<p>and have <code>unittest</code> run <em>only</em> <code>testItIsHot()</code></p>\u000a\u000a<p>How can I achieve that?</p>\u000a\u000a<p>I tried to rewrite the <code>if __name__ == "__main__":</code> part, but since I'm new to Python, I'm feeling lost and keep bashing into everything else than the methods.</p>\u000a
p1344
sVis_answered
p1345
I01
sVview_count
p1346
I39709
sVtags
p1347
(lp1348
Vpython
p1349
aVunit-testing
p1350
asVlast_activity_date
p1351
I1490798469
sVanswer_count
p1352
I5
sVcreation_date
p1353
I1365770593
sVscore
p1354
I93
sVlink
p1355
Vhttp://stackoverflow.com/questions/15971735/running-single-test-from-unittest-testcase-via-command-line
p1356
sVaccepted_answer_id
p1357
I15971771
sVowner
p1358
(dp1359
Vuser_id
p1360
I835945
sVprofile_image
p1361
Vhttps://www.gravatar.com/avatar/1b4e747120238b5fabd032ce55c327c5?s=128&d=identicon&r=PG
p1362
sVuser_type
p1363
Vregistered
p1364
sVreputation
p1365
I3891
sVlink
p1366
Vhttp://stackoverflow.com/users/835945/alois-mahdal
p1367
sVaccept_rate
p1368
I72
sVdisplay_name
p1369
VAlois Mahdal
p1370
ssVtitle
p1371
VRunning single test from unittest.TestCase via command line
p1372
sVlast_edit_date
p1373
I1376478805
sVquestion_id
p1374
I15971735
sa(dp1375
Vbody
p1376
V<p>On my local machine I run a python script which contains this line</p>\u000a\u000a<pre><code>bashCommand = "cwm --rdf test.rdf --ntriples &gt; test.nt"\u000aos.system(bashCommand)\u000a</code></pre>\u000a\u000a<p>This works fine.</p>\u000a\u000a<p>Then I run the same code on a server and I get the following error message</p>\u000a\u000a<pre><code>'import site' failed; use -v for traceback\u000aTraceback (most recent call last):\u000aFile "/usr/bin/cwm", line 48, in &lt;module&gt;\u000afrom swap import  diag\u000aImportError: No module named swap\u000a</code></pre>\u000a\u000a<p>So what I did then is I inserted a "print bashCommand" which prints me then the command in the terminal before it runs it with os.system().</p>\u000a\u000a<p>Of course I get again the error (caused by os.system(bashCommand)) but before that error it prints the command in the terminal. Then I just copied that output and did a copy paste into the terminal and hit enter and it works...</p>\u000a\u000a<p>Does anyone have a clue what's going on :(?</p>\u000a
p1377
sVis_answered
p1378
I01
sVview_count
p1379
I187427
sVtags
p1380
(lp1381
Vpython
p1382
aVbash
p1383
asVlast_activity_date
p1384
I1474610921
sVanswer_count
p1385
I5
sVcreation_date
p1386
I1290515889
sVscore
p1387
I93
sVlink
p1388
Vhttp://stackoverflow.com/questions/4256107/running-bash-commands-in-python
p1389
sVowner
p1390
(dp1391
Vuser_id
p1392
I385275
sVprofile_image
p1393
Vhttps://www.gravatar.com/avatar/158bab08aea62346ff87404be97c4a94?s=128&d=identicon&r=PG
p1394
sVuser_type
p1395
Vregistered
p1396
sVreputation
p1397
I2354
sVlink
p1398
Vhttp://stackoverflow.com/users/385275/mkn
p1399
sVaccept_rate
p1400
I57
sVdisplay_name
p1401
Vmkn
p1402
ssVtitle
p1403
Vrunning bash commands in python
p1404
sVquestion_id
p1405
I4256107
sa(dp1406
Vclosed_date
p1407
I1485555782
sVis_answered
p1408
I01
sVprotected_date
p1409
I1408121632
sVclosed_reason
p1410
Vduplicate
p1411
sVview_count
p1412
I119484
sVtags
p1413
(lp1414
Vpython
p1415
aVvariables
p1416
asVbody
p1417
V<p>I want to create variables dynamically via to a while loop in Python. Anyone have any creative means of doing this?</p>\u000a
p1418
sVlast_activity_date
p1419
I1476961378
sVaccepted_answer_id
p1420
I5036775
sVcreation_date
p1421
I1297991640
sVscore
p1422
I93
sVlink
p1423
Vhttp://stackoverflow.com/questions/5036700/how-can-you-dynamically-create-variables-via-a-while-loop
p1424
sVanswer_count
p1425
I8
sVowner
p1426
(dp1427
Vuser_id
p1428
I359844
sVprofile_image
p1429
Vhttps://www.gravatar.com/avatar/4bc981f75d9d09600bbcfe1e401b365e?s=128&d=identicon&r=PG
p1430
sVuser_type
p1431
Vregistered
p1432
sVreputation
p1433
I1497
sVlink
p1434
Vhttp://stackoverflow.com/users/359844/noah-r
p1435
sVaccept_rate
p1436
I72
sVdisplay_name
p1437
VNoah R
p1438
ssVtitle
p1439
VHow can you dynamically create variables via a while loop?
p1440
sVlast_edit_date
p1441
I1476961378
sVquestion_id
p1442
I5036700
sa(dp1443
Vbody
p1444
V<p>We've already gotten our code base running under Python 2.6.  In order to prepare for Python 3.0, we've started adding:</p>\u000a\u000a<pre>\u000afrom __future__ import unicode_literals\u000a</pre>\u000a\u000a<p>into our <code>.py</code> files (as we modify them).  I'm wondering if anyone else has been doing this and has run into any non-obvious gotchas (perhaps after spending a lot of time debugging).</p>\u000a
p1445
sVis_answered
p1446
I01
sVview_count
p1447
I22788
sVtags
p1448
(lp1449
Vpython
p1450
aVunicode
p1451
aVpython-2.6
p1452
aVunicode-literals
p1453
asVlast_activity_date
p1454
I1455076051
sVanswer_count
p1455
I5
sVcreation_date
p1456
I1241139397
sVscore
p1457
I93
sVlink
p1458
Vhttp://stackoverflow.com/questions/809796/any-gotchas-using-unicode-literals-in-python-2-6
p1459
sVaccepted_answer_id
p1460
I827449
sVowner
p1461
(dp1462
Vuser_id
p1463
I68127
sVprofile_image
p1464
Vhttps://i.stack.imgur.com/XSuO8.jpg?s=128&g=1
p1465
sVuser_type
p1466
Vregistered
p1467
sVreputation
p1468
I15186
sVlink
p1469
Vhttp://stackoverflow.com/users/68127/jacob-gabrielson
p1470
sVaccept_rate
p1471
I82
sVdisplay_name
p1472
VJacob Gabrielson
p1473
ssVtitle
p1474
VAny gotchas using unicode_literals in Python 2.6?
p1475
sVlast_edit_date
p1476
I1455076051
sVquestion_id
p1477
I809796
sa(dp1478
Vbody
p1479
V<p>I have created a virtualenv using the <code>--no-site-packages</code> option and installed lots of libraries. Now I would like to revert the <code>--no-site-packages</code> option and use also the global packages.</p>\u000a\u000a<p>Can I do that without recreating the virtualenv?</p>\u000a\u000a<p><strong>More precisely:</strong></p>\u000a\u000a<p>I wonder what <em>exactly</em> happens when creating a virtualenv using the <code>--no-site-packages</code> option as opposed to not using that option.</p>\u000a\u000a<p>If I know what happens then I can figure out how to undo it.</p>\u000a
p1480
sVis_answered
p1481
I01
sVview_count
p1482
I11557
sVtags
p1483
(lp1484
Vpython
p1485
aVvirtualenv
p1486
asVlast_activity_date
p1487
I1480935607
sVanswer_count
p1488
I4
sVcreation_date
p1489
I1280490619
sVscore
p1490
I93
sVlink
p1491
Vhttp://stackoverflow.com/questions/3371136/revert-the-no-site-packages-option-with-virtualenv
p1492
sVaccepted_answer_id
p1493
I3374514
sVowner
p1494
(dp1495
Vuser_id
p1496
I262667
sVprofile_image
p1497
Vhttps://www.gravatar.com/avatar/dd09cc9b40b956f93a00f5b464469d11?s=128&d=identicon&r=PG
p1498
sVuser_type
p1499
Vregistered
p1500
sVreputation
p1501
I22102
sVlink
p1502
Vhttp://stackoverflow.com/users/262667/olivier-verdier
p1503
sVaccept_rate
p1504
I86
sVdisplay_name
p1505
VOlivier Verdier
p1506
ssVtitle
p1507
VRevert the `--no-site-packages` option with virtualenv
p1508
sVlast_edit_date
p1509
I1280499676
sVquestion_id
p1510
I3371136
sa(dp1511
Vbody
p1512
V<p>What is the difference between Numpy's <a href="http://docs.scipy.org/doc/numpy/reference/generated/numpy.array.html#numpy.array"><code>array()</code></a> and <a href="http://docs.scipy.org/doc/numpy/reference/generated/numpy.asarray.html#numpy.asarray"><code>asarray()</code></a> functions? When should you use one rather than the other? They seem to generate identical output for all the inputs I can think of.</p>\u000a
p1513
sVis_answered
p1514
I01
sVview_count
p1515
I26517
sVtags
p1516
(lp1517
Vpython
p1518
aVarrays
p1519
aVnumpy
p1520
asVlast_activity_date
p1521
I1481160222
sVanswer_count
p1522
I3
sVcreation_date
p1523
I1358608726
sVscore
p1524
I93
sVlink
p1525
Vhttp://stackoverflow.com/questions/14415741/numpy-array-vs-asarray
p1526
sVaccepted_answer_id
p1527
I14415801
sVowner
p1528
(dp1529
Vuser_id
p1530
I1523776
sVprofile_image
p1531
Vhttps://www.gravatar.com/avatar/b3e0b5c8e42a8c38009ef2d969f8dabb?s=128&d=identicon&r=PG
p1532
sVuser_type
p1533
Vmoderator
p1534
sVreputation
p1535
I18873
sVlink
p1536
Vhttp://stackoverflow.com/users/1523776/benjamin-hodgson
p1537
sVaccept_rate
p1538
I86
sVdisplay_name
p1539
VBenjamin Hodgson
p1540
ssVtitle
p1541
VNumpy - array vs asarray
p1542
sVlast_edit_date
p1543
I1447889949
sVquestion_id
p1544
I14415741
sa(dp1545
Vbody
p1546
V<p>Intrigued by this question about infinite loops in perl: <a href="http://stackoverflow.com/questions/885908/while-1-vs-for-is-there-a-speed-difference">http://stackoverflow.com/questions/885908/while-1-vs-for-is-there-a-speed-difference</a>, I decided to run a similar comparison in python. I expected that the compiler would generate the same byte code for <code>while(True): pass</code> and <code>while(1): pass</code>, but this is actually not the case in python2.7.</p>\u000a\u000a<p>The following script:</p>\u000a\u000a<pre><code>import dis\u000a\u000adef while_one():\u000a    while 1:\u000a        pass\u000a\u000adef while_true():\u000a    while True:\u000a        pass\u000a\u000aprint("while 1")\u000aprint("----------------------------")\u000adis.dis(while_one)\u000a\u000aprint("while True")\u000aprint("----------------------------")\u000adis.dis(while_true)\u000a</code></pre>\u000a\u000a<p>produces the following results:</p>\u000a\u000a<pre><code>while 1\u000a----------------------------\u000a  4           0 SETUP_LOOP               3 (to 6)\u000a\u000a  5     &gt;&gt;    3 JUMP_ABSOLUTE            3\u000a        &gt;&gt;    6 LOAD_CONST               0 (None)\u000a              9 RETURN_VALUE        \u000awhile True\u000a----------------------------\u000a  8           0 SETUP_LOOP              12 (to 15)\u000a        &gt;&gt;    3 LOAD_GLOBAL              0 (True)\u000a              6 JUMP_IF_FALSE            4 (to 13)\u000a              9 POP_TOP             \u000a\u000a  9          10 JUMP_ABSOLUTE            3\u000a        &gt;&gt;   13 POP_TOP             \u000a             14 POP_BLOCK           \u000a        &gt;&gt;   15 LOAD_CONST               0 (None)\u000a             18 RETURN_VALUE        \u000a</code></pre>\u000a\u000a<p>Using <code>while True</code> is noticeably more complicated. Why is this?</p>\u000a\u000a<p>In other contexts, python acts as though <code>True</code> equals 1:</p>\u000a\u000a<pre><code>&gt;&gt;&gt; True == 1\u000aTrue\u000a\u000a&gt;&gt;&gt; True + True\u000a2\u000a</code></pre>\u000a\u000a<p>Why does <code>while</code> distinguish the two?</p>\u000a\u000a<p>I noticed that python3 does evaluate the statements using identical operations:</p>\u000a\u000a<pre><code>while 1\u000a----------------------------\u000a  4           0 SETUP_LOOP               3 (to 6) \u000a\u000a  5     &gt;&gt;    3 JUMP_ABSOLUTE            3 \u000a        &gt;&gt;    6 LOAD_CONST               0 (None) \u000a              9 RETURN_VALUE         \u000awhile True\u000a----------------------------\u000a  8           0 SETUP_LOOP               3 (to 6) \u000a\u000a  9     &gt;&gt;    3 JUMP_ABSOLUTE            3 \u000a        &gt;&gt;    6 LOAD_CONST               0 (None) \u000a              9 RETURN_VALUE         \u000a</code></pre>\u000a\u000a<p>Is there a change in python3 to the way booleans are evaluated?</p>\u000a
p1547
sVis_answered
p1548
I01
sVview_count
p1549
I34128
sVtags
p1550
(lp1551
Vpython
p1552
asVlast_activity_date
p1553
I1454557108
sVanswer_count
p1554
I2
sVcreation_date
p1555
I1285694385
sVscore
p1556
I93
sVlink
p1557
Vhttp://stackoverflow.com/questions/3815359/while-1-vs-for-whiletrue-why-is-there-a-difference
p1558
sVaccepted_answer_id
p1559
I3815387
sVowner
p1560
(dp1561
Vuser_id
p1562
I440260
sVprofile_image
p1563
Vhttps://www.gravatar.com/avatar/5a20e33118dcb373b15683466c8a0c6b?s=128&d=identicon&r=PG
p1564
sVuser_type
p1565
Vregistered
p1566
sVreputation
p1567
I3454
sVlink
p1568
Vhttp://stackoverflow.com/users/440260/andrewf
p1569
sVaccept_rate
p1570
I91
sVdisplay_name
p1571
VAndrewF
p1572
ssVtitle
p1573
Vwhile (1) Vs. for while(True) -- Why is there a difference?
p1574
sVlast_edit_date
p1575
I1285697457
sVquestion_id
p1576
I3815359
sa(dp1577
Vclosed_date
p1578
I1348145352
sVis_answered
p1579
I01
sVclosed_reason
p1580
Vexact duplicate
p1581
sVview_count
p1582
I246550
sVtags
p1583
(lp1584
Vpython
p1585
aVlist
p1586
aVdictionary
p1587
asVbody
p1588
V<blockquote>\u000a  <p><strong>Possible Duplicate:</strong><br>\u000a  <a href="http://stackoverflow.com/questions/674519/how-can-i-convert-a-python-dictionary-to-a-list-of-tuples">How can I convert a Python dictionary to a list of tuples?</a>  </p>\u000a</blockquote>\u000a\u000a\u000a\u000a<p>I'm trying to convert a Python dictionary into a Python list, in order to perform some calculations.</p>\u000a\u000a<pre><code>#My dictionary\u000adict = {}\u000adict['Capital']="London"\u000adict['Food']="Fish&amp;Chips"\u000adict['2012']="Olympics"\u000a\u000a#lists\u000atemp = []\u000adictList = []\u000a\u000a#My attempt:\u000afor key, value in dict.iteritems():\u000a    aKey = key\u000a    aValue = value\u000a    temp.append(aKey)\u000a    temp.append(aValue)\u000a    dictList.append(temp) \u000a    aKey = ""\u000a    aValue = ""\u000a</code></pre>\u000a\u000a<p>That's my attempt at it... but I can't work out what's wrong?</p>\u000a
p1589
sVlast_activity_date
p1590
I1441313617
sVaccepted_answer_id
p1591
I1679406
sVcreation_date
p1592
I1257413658
sVscore
p1593
I92
sVlink
p1594
Vhttp://stackoverflow.com/questions/1679384/converting-python-dictionary-to-list
p1595
sVanswer_count
p1596
I7
sVowner
p1597
(dp1598
Vuser_id
p1599
I154280
sVprofile_image
p1600
Vhttps://i.stack.imgur.com/i895E.jpg?s=128&g=1
p1601
sVuser_type
p1602
Vregistered
p1603
sVreputation
p1604
I9215
sVlink
p1605
Vhttp://stackoverflow.com/users/154280/federer
p1606
sVaccept_rate
p1607
I100
sVdisplay_name
p1608
VFederer
p1609
ssVtitle
p1610
VConverting Python Dictionary to List
p1611
sVlast_edit_date
p1612
I1359387162
sVquestion_id
p1613
I1679384
sa(dp1614
Vbody
p1615
V<p>Does anybody know how to extract a column from a multi-dimensional array in Python?</p>\u000a
p1616
sVis_answered
p1617
I01
sVview_count
p1618
I236432
sVtags
p1619
(lp1620
Vpython
p1621
aVarrays
p1622
aVmultidimensional-array
p1623
aVextraction
p1624
asVlast_activity_date
p1625
I1479676115
sVanswer_count
p1626
I13
sVcreation_date
p1627
I1243174787
sVscore
p1628
I92
sVlink
p1629
Vhttp://stackoverflow.com/questions/903853/how-do-you-extract-a-column-from-a-multi-dimensional-array
p1630
sVowner
p1631
(dp1632
Vdisplay_name
p1633
Vjaweria
p1634
sVuser_type
p1635
Vdoes_not_exist
p1636
ssVtitle
p1637
VHow do you extract a column from a multi-dimensional array?
p1638
sVlast_edit_date
p1639
I1454268564
sVquestion_id
p1640
I903853
sa(dp1641
Vclosed_date
p1642
I1474664749
sVis_answered
p1643
I01
sVclosed_reason
p1644
Vduplicate
p1645
sVview_count
p1646
I37563
sVtags
p1647
(lp1648
Vpython
p1649
aVipython
p1650
asVbody
p1651
V<p>Is there a way to have IPython automatically reload all changed code? Either before each line is executed in the shell or failing that when it is specifically requested to. I'm doing a lot of exploratory programming using IPython and SciPy and it's quite a pain to have to manually reload each module whenever I change it.</p>\u000a
p1652
sVlast_activity_date
p1653
I1487700472
sVaccepted_answer_id
p1654
I4765191
sVcreation_date
p1655
I1260888951
sVscore
p1656
I92
sVlink
p1657
Vhttp://stackoverflow.com/questions/1907993/autoreload-of-modules-in-ipython
p1658
sVanswer_count
p1659
I6
sVowner
p1660
(dp1661
Vuser_id
p1662
I65130
sVprofile_image
p1663
Vhttps://www.gravatar.com/avatar/f54f1980fe7515d4924dff9287b7b83b?s=128&d=identicon&r=PG
p1664
sVuser_type
p1665
Vregistered
p1666
sVreputation
p1667
I1951
sVlink
p1668
Vhttp://stackoverflow.com/users/65130/thomas-parslow
p1669
sVaccept_rate
p1670
I87
sVdisplay_name
p1671
VThomas Parslow
p1672
ssVtitle
p1673
VAutoreload of modules in IPython
p1674
sVlast_edit_date
p1675
I1336832950
sVquestion_id
p1676
I1907993
sa(dp1677
Vbody
p1678
V<p>In Python 2.5, is there a way to create a decorator that decorates a class?  Specifically, I want to use a decorator to add a member to a class and change the constructor to take a value for that member.</p>\u000a\u000a<p>Looking for something like the following (which has a syntax error on 'class Foo:':</p>\u000a\u000a<pre><code>def getId(self): return self.__id\u000a\u000aclass addID(original_class):\u000a    def __init__(self, id, *args, **kws):\u000a        self.__id = id\u000a        self.getId = getId\u000a        original_class.__init__(self, *args, **kws)\u000a\u000a@addID\u000aclass Foo:\u000a    def __init__(self, value1):\u000a        self.value1 = value1\u000a\u000aif __name__ == '__main__':\u000a    foo1 = Foo(5,1)\u000a    print foo1.value1, foo1.getId()\u000a    foo2 = Foo(15,2)\u000a    print foo2.value1, foo2.getId()\u000a</code></pre>\u000a\u000a<p>Thanks,\u000aRob</p>\u000a\u000a<p><strong>Edit:</strong>\u000aRereading this question, I guess what I'm really after is a way to do something like a C# interface in Python.  I need to switch my paradigm I suppose.</p>\u000a
p1679
sVis_answered
p1680
I01
sVview_count
p1681
I71754
sVtags
p1682
(lp1683
Vpython
p1684
aVdecorator
p1685
aVpython-2.5
p1686
asVlast_activity_date
p1687
I1379801641
sVanswer_count
p1688
I5
sVcreation_date
p1689
I1237992722
sVscore
p1690
I92
sVlink
p1691
Vhttp://stackoverflow.com/questions/681953/python-class-decorator
p1692
sVaccepted_answer_id
p1693
I682052
sVowner
p1694
(dp1695
Vuser_id
p1696
I20570
sVprofile_image
p1697
Vhttps://www.gravatar.com/avatar/9c442a8c9a92d9a365a0ee36e7a637d0?s=128&d=identicon&r=PG
p1698
sVuser_type
p1699
Vregistered
p1700
sVreputation
p1701
I3669
sVlink
p1702
Vhttp://stackoverflow.com/users/20570/robert-gowland
p1703
sVaccept_rate
p1704
I97
sVdisplay_name
p1705
VRobert Gowland
p1706
ssVtitle
p1707
VPython Class Decorator
p1708
sVlast_edit_date
p1709
I1253036922
sVquestion_id
p1710
I681953
sa(dp1711
Vbody
p1712
V<p>My background is in C# and I've just recently started programming in Python. When an exception is thrown I typically want to wrap it in another exception that adds more information, while still showing the full stack trace. It's quite easy in C#, but how do I do it in Python?</p>\u000a\u000a<p>Eg. in C# I would do something like this:</p>\u000a\u000a<pre><code>try\u000a{\u000a  ProcessFile(filePath);\u000a}\u000acatch (Exception ex)\u000a{\u000a  throw new ApplicationException("Failed to process file " + filePath, ex);\u000a}\u000a</code></pre>\u000a\u000a<p>In Python I can do something similar:</p>\u000a\u000a<pre><code>try:\u000a  ProcessFile(filePath)\u000aexcept Exception as e:\u000a  raise Exception('Failed to process file ' + filePath, e)\u000a</code></pre>\u000a\u000a<p>...but this loses the traceback of the inner exception!</p>\u000a\u000a<p><strong>Edit:</strong> I'd like to see both exception messages and both stack traces and correlate the two. That is, I want to see in the output that exception X occurred here and then exception Y there - same as I would in C#. Is this possible in Python 2.6? Looks like the best I can do so far (based on Glenn Maynard's answer) is:</p>\u000a\u000a<pre><code>try:\u000a  ProcessFile(filePath)\u000aexcept Exception as e:\u000a  raise Exception('Failed to process file' + filePath, e), None, sys.exc_info()[2]\u000a</code></pre>\u000a\u000a<p>This includes both the messages and both the tracebacks, but it doesn't show which exception occurred where in the traceback.</p>\u000a
p1713
sVis_answered
p1714
I01
sVview_count
p1715
I19438
sVtags
p1716
(lp1717
Vpython
p1718
aVexception
p1719
aVerror-handling
p1720
asVlast_activity_date
p1721
I1491296719
sVanswer_count
p1722
I8
sVcreation_date
p1723
I1251527717
sVscore
p1724
I92
sVlink
p1725
Vhttp://stackoverflow.com/questions/1350671/inner-exception-with-traceback-in-python
p1726
sVaccepted_answer_id
p1727
I1350981
sVowner
p1728
(dp1729
Vuser_id
p1730
I20336
sVprofile_image
p1731
Vhttps://www.gravatar.com/avatar/696f6384023e94212e42a4b6c2ad046d?s=128&d=identicon&r=PG
p1732
sVuser_type
p1733
Vregistered
p1734
sVreputation
p1735
I25051
sVlink
p1736
Vhttp://stackoverflow.com/users/20336/emp
p1737
sVaccept_rate
p1738
I58
sVdisplay_name
p1739
VEMP
p1740
ssVtitle
p1741
V&quot;Inner exception&quot; (with traceback) in Python?
p1742
sVlast_edit_date
p1743
I1251677790
sVquestion_id
p1744
I1350671
sa(dp1745
Vbody
p1746
V<p>I would like to increase the width of the ipython notebook in my browser. I have a high-resolution screen, and I would like to expand the cell width/size to make use of this extra space.</p>\u000a\u000a<p>Thanks!</p>\u000a
p1747
sVis_answered
p1748
I01
sVview_count
p1749
I25811
sVtags
p1750
(lp1751
Vpython
p1752
aVipython
p1753
aVipython-notebook
p1754
aVjupyter-notebook
p1755
aVjupyter
p1756
asVlast_activity_date
p1757
I1485788541
sVanswer_count
p1758
I5
sVcreation_date
p1759
I1393175298
sVscore
p1760
I92
sVlink
p1761
Vhttp://stackoverflow.com/questions/21971449/how-do-i-increase-the-cell-width-of-the-jupyter-ipython-notebook-in-my-browser
p1762
sVaccepted_answer_id
p1763
I24207353
sVowner
p1764
(dp1765
Vuser_id
p1766
I190894
sVprofile_image
p1767
Vhttps://i.stack.imgur.com/xkknZ.jpg?s=128&g=1
p1768
sVuser_type
p1769
Vregistered
p1770
sVreputation
p1771
I1456
sVlink
p1772
Vhttp://stackoverflow.com/users/190894/vgoklani
p1773
sVaccept_rate
p1774
I50
sVdisplay_name
p1775
Vvgoklani
p1776
ssVtitle
p1777
VHow do I increase the cell width of the Jupyter/ipython notebook in my browser?
p1778
sVlast_edit_date
p1779
I1479476703
sVquestion_id
p1780
I21971449
sa(dp1781
Vbody
p1782
V<p>I am using Flask and I return an XML file from a get request. How do I set the content type?</p>\u000a\u000a<p>e.g.</p>\u000a\u000a<pre><code>@app.route('/ajax_ddl')\u000adef ajax_ddl():\u000a    xml = 'foo'\u000a    header("Content-type: text/xml")\u000a    return xml\u000a</code></pre>\u000a
p1783
sVis_answered
p1784
I01
sVview_count
p1785
I57394
sVtags
p1786
(lp1787
Vpython
p1788
aVflask
p1789
asVlast_activity_date
p1790
I1486227121
sVanswer_count
p1791
I6
sVcreation_date
p1792
I1343894596
sVscore
p1793
I92
sVlink
p1794
Vhttp://stackoverflow.com/questions/11773348/python-flask-how-to-set-content-type
p1795
sVaccepted_answer_id
p1796
I11774026
sVowner
p1797
(dp1798
Vuser_id
p1799
I1203556
sVprofile_image
p1800
Vhttps://www.gravatar.com/avatar/aca772bc8ed79a86894211c7efd920aa?s=128&d=identicon&r=PG
p1801
sVuser_type
p1802
Vregistered
p1803
sVreputation
p1804
I13018
sVlink
p1805
Vhttp://stackoverflow.com/users/1203556/tampa
p1806
sVaccept_rate
p1807
I59
sVdisplay_name
p1808
VTampa
p1809
ssVtitle
p1810
VPython Flask, how to set content type
p1811
sVlast_edit_date
p1812
I1351179922
sVquestion_id
p1813
I11773348
sa(dp1814
Vclosed_date
p1815
I1264791609
sVis_answered
p1816
I01
sVclosed_reason
p1817
Vexact duplicate
p1818
sVview_count
p1819
I96653
sVtags
p1820
(lp1821
Vpython
p1822
aVconstructor
p1823
asVbody
p1824
V<blockquote>\u000a  <p><strong>Possible Duplicate:</strong><br>\u000a  <a href="http://stackoverflow.com/questions/682504/what-is-a-clean-pythonic-way-to-have-multiple-constructors-in-python">What is a clean, pythonic way to have multiple constructors in Python?</a>  </p>\u000a</blockquote>\u000a\u000a\u000a\u000a<p>Is it not possible to define multiple constructors in Python, with different signatures?  If not, what's the general way of getting around it?</p>\u000a\u000a<p>For example, let's say you wanted to define a class <code>City</code></p>\u000a\u000a<p>I'd like to be able to say <code>someCity = City()</code> or <code>someCity = City("Berlin")</code>, where the first just gives a default name value, and the second defines it.</p>\u000a
p1825
sVlast_activity_date
p1826
I1476207700
sVaccepted_answer_id
p1827
I2164279
sVcreation_date
p1828
I1264790293
sVscore
p1829
I92
sVlink
p1830
Vhttp://stackoverflow.com/questions/2164258/multiple-constructors-in-python
p1831
sVanswer_count
p1832
I5
sVowner
p1833
(dp1834
Vuser_id
p1835
I104060
sVprofile_image
p1836
Vhttps://www.gravatar.com/avatar/c4f6bdabaa3fc338779a568bff36a1f2?s=128&d=identicon&r=PG
p1837
sVuser_type
p1838
Vregistered
p1839
sVreputation
p1840
I6674
sVlink
p1841
Vhttp://stackoverflow.com/users/104060/chris
p1842
sVaccept_rate
p1843
I82
sVdisplay_name
p1844
VChris
p1845
ssVtitle
p1846
VMultiple constructors in python?
p1847
sVlast_edit_date
p1848
I1264790542
sVquestion_id
p1849
I2164258
sa(dp1850
Vbody
p1851
V<p>I don't understand how looping over a dictionary or set in python is done by 'arbitrary' order.</p>\u000a\u000a<p>I mean, it's a programming language so everything in the language must be 100% determined, correct? Python must have some kind of algorithm that decides which part of the dictionary or set is chosen, 1st, second and so on. </p>\u000a\u000a<p>What am I missing?</p>\u000a
p1852
sVis_answered
p1853
I01
sVview_count
p1854
I7458
sVtags
p1855
(lp1856
Vpython
p1857
aVdictionary
p1858
aVset
p1859
aVpython-internals
p1860
asVlast_activity_date
p1861
I1485697291
sVanswer_count
p1862
I5
sVcreation_date
p1863
I1363618746
sVscore
p1864
I92
sVlink
p1865
Vhttp://stackoverflow.com/questions/15479928/why-is-the-order-in-dictionaries-and-sets-arbitrary
p1866
sVaccepted_answer_id
p1867
I15479974
sVowner
p1868
(dp1869
Vuser_id
p1870
I1971598
sVprofile_image
p1871
Vhttps://www.gravatar.com/avatar/2dadb39a8fbedbdb2c473a162c251b2a?s=128&d=identicon&r=PG
p1872
sVuser_type
p1873
Vregistered
p1874
sVreputation
p1875
I2944
sVlink
p1876
Vhttp://stackoverflow.com/users/1971598/edgar-aroutiounian
p1877
sVaccept_rate
p1878
I98
sVdisplay_name
p1879
VEdgar Aroutiounian
p1880
ssVtitle
p1881
VWhy is the order in dictionaries and sets arbitrary?
p1882
sVlast_edit_date
p1883
I1475533077
sVquestion_id
p1884
I15479928
sa(dp1885
Vbody
p1886
V<p>Basically I want to do this:</p>\u000a\u000a<pre><code>obj = 'str'\u000atype ( obj ) == string\u000a</code></pre>\u000a\u000a<p>I tried:</p>\u000a\u000a<pre><code>type ( obj ) == type ( string )\u000a</code></pre>\u000a\u000a<p>and it didn't work.</p>\u000a\u000a<p>Also, what about the other types? For example, I couldn't replicate <code>NoneType</code>.</p>\u000a
p1887
sVis_answered
p1888
I01
sVview_count
p1889
I110437
sVtags
p1890
(lp1891
Vpython
p1892
aVtypes
p1893
aVcompare
p1894
asVlast_activity_date
p1895
I1462433119
sVanswer_count
p1896
I13
sVcreation_date
p1897
I1238626985
sVscore
p1898
I92
sVlink
p1899
Vhttp://stackoverflow.com/questions/707674/how-to-compare-type-of-an-object-in-python
p1900
sVaccepted_answer_id
p1901
I707685
sVowner
p1902
(dp1903
Vuser_id
p1904
I51816
sVprofile_image
p1905
Vhttps://www.gravatar.com/avatar/0e54bb28182bcd9df39704751306df27?s=128&d=identicon&r=PG
p1906
sVuser_type
p1907
Vregistered
p1908
sVreputation
p1909
I72615
sVlink
p1910
Vhttp://stackoverflow.com/users/51816/joan-venge
p1911
sVaccept_rate
p1912
I82
sVdisplay_name
p1913
VJoan Venge
p1914
ssVtitle
p1915
VHow to compare type of an object in Python?
p1916
sVlast_edit_date
p1917
I1441973390
sVquestion_id
p1918
I707674
sa(dp1919
Vbody
p1920
V<p>I have a django site with lots of models and forms. I have many custom forms and formsets and inlineformsets and custom validation and custom querysets. Hence the add model action depends on forms that need other things, and the 'add model' in the django admin throughs a 500 from a custom queryset.</p>\u000a\u000a<p>Is there anyway to disable the 'Add $MODEL' functionality for a certain models?</p>\u000a\u000a<p>I want <code>/admin/appname/modelname/add/</code> to give a 404 (or suitable 'go away' error message), I don't want the 'Add $MODELNAME' button to be on <code>/admin/appname/modelname</code> view.</p>\u000a\u000a<p>Django admin provides a way to disable admin actions (http://docs.djangoproject.com/en/dev/ref/contrib/admin/actions/#disabling-actions) however the only action for this model is 'delete_selected'. i.e. the admin actions only act on existing models. Is there some django-esque way to do this?</p>\u000a
p1921
sVis_answered
p1922
I01
sVview_count
p1923
I24656
sVtags
p1924
(lp1925
Vpython
p1926
aVdjango
p1927
aVdjango-admin
p1928
asVlast_activity_date
p1929
I1384979376
sVanswer_count
p1930
I2
sVcreation_date
p1931
I1289387883
sVscore
p1932
I92
sVlink
p1933
Vhttp://stackoverflow.com/questions/4143886/django-admin-disable-the-add-action-for-a-specific-model
p1934
sVaccepted_answer_id
p1935
I4144088
sVowner
p1936
(dp1937
Vuser_id
p1938
I161922
sVprofile_image
p1939
Vhttps://www.gravatar.com/avatar/16e12e337f6edc3750681492656097ed?s=128&d=identicon&r=PG
p1940
sVuser_type
p1941
Vregistered
p1942
sVreputation
p1943
I15954
sVlink
p1944
Vhttp://stackoverflow.com/users/161922/rory
p1945
sVaccept_rate
p1946
I68
sVdisplay_name
p1947
VRory
p1948
ssVtitle
p1949
VDjango Admin - Disable the &#39;Add&#39; action for a specific model
p1950
sVquestion_id
p1951
I4143886
sa(dp1952
Vbody
p1953
V<p>How can I build a numpy array out of a generator object?</p>\u000a\u000a<p>Let me illustrate the problem:</p>\u000a\u000a<pre><code>&gt;&gt;&gt; import numpy\u000a&gt;&gt;&gt; def gimme():\u000a...   for x in xrange(10):\u000a...     yield x\u000a...\u000a&gt;&gt;&gt; gimme()\u000a&lt;generator object at 0x28a1758&gt;\u000a&gt;&gt;&gt; list(gimme())\u000a[0, 1, 2, 3, 4, 5, 6, 7, 8, 9]\u000a&gt;&gt;&gt; numpy.array(xrange(10))\u000aarray([0, 1, 2, 3, 4, 5, 6, 7, 8, 9])\u000a&gt;&gt;&gt; numpy.array(gimme())\u000aarray(&lt;generator object at 0x28a1758&gt;, dtype=object)\u000a&gt;&gt;&gt; numpy.array(list(gimme()))\u000aarray([0, 1, 2, 3, 4, 5, 6, 7, 8, 9])\u000a</code></pre>\u000a\u000a<p>In this instance, gimme() is the generator whose output I'd like to turn into an array. However, the array constructor does not iterate over the generator, it simply stores the generator itself. The behaviour I desire is that from numpy.array(list(gimme())), but I don't want to pay the memory overhead of having the intermediate list and the final array in memory at the same time. Is there a more space-efficient way?</p>\u000a
p1954
sVis_answered
p1955
I01
sVview_count
p1956
I24158
sVtags
p1957
(lp1958
Vpython
p1959
aVnumpy
p1960
aVgenerator
p1961
asVlast_activity_date
p1962
I1479389461
sVanswer_count
p1963
I3
sVcreation_date
p1964
I1229319871
sVscore
p1965
I92
sVlink
p1966
Vhttp://stackoverflow.com/questions/367565/how-do-i-build-a-numpy-array-from-a-generator
p1967
sVaccepted_answer_id
p1968
I367599
sVowner
p1969
(dp1970
Vuser_id
p1971
I37984
sVprofile_image
p1972
Vhttps://www.gravatar.com/avatar/7248c0f60179a3da4f600e89ce68ba07?s=128&d=identicon&r=PG
p1973
sVuser_type
p1974
Vregistered
p1975
sVreputation
p1976
I6417
sVlink
p1977
Vhttp://stackoverflow.com/users/37984/saffsd
p1978
sVaccept_rate
p1979
I81
sVdisplay_name
p1980
Vsaffsd
p1981
ssVtitle
p1982
VHow do I build a numpy array from a generator?
p1983
sVquestion_id
p1984
I367565
sa(dp1985
Vbody
p1986
V<p>I have a browser which sends utf-8 characters to my python server, but when I retrieve it from the query string, the encoding that python returns is ascii I think, how can I convert the plain string to utf-8?</p>\u000a\u000a<p>NOTE: the string passed from the web is already UTF-8 encoded, I just want to make python to treat it as UTF-8 not ascii(otherwise there are some errors pop up)</p>\u000a
p1987
sVis_answered
p1988
I01
sVview_count
p1989
I230672
sVtags
p1990
(lp1991
Vpython
p1992
aVunicode
p1993
aVutf-8
p1994
asVlast_activity_date
p1995
I1492703625
sVanswer_count
p1996
I6
sVcreation_date
p1997
I1289809584
sVscore
p1998
I92
sVlink
p1999
Vhttp://stackoverflow.com/questions/4182603/python-how-to-convert-a-string-to-utf-8
p2000
sVaccepted_answer_id
p2001
I4182635
sVowner
p2002
(dp2003
Vuser_id
p2004
I197036
sVprofile_image
p2005
Vhttps://www.gravatar.com/avatar/9ceba53b9e84cd835c0f2bd2790d5adb?s=128&d=identicon&r=PG
p2006
sVuser_type
p2007
Vregistered
p2008
sVreputation
p2009
I14758
sVlink
p2010
Vhttp://stackoverflow.com/users/197036/bin-chen
p2011
sVaccept_rate
p2012
I91
sVdisplay_name
p2013
VBin Chen
p2014
ssVtitle
p2015
Vpython: how to convert a string to utf-8
p2016
sVlast_edit_date
p2017
I1378071894
sVquestion_id
p2018
I4182603
sa(dp2019
Vbody
p2020
V<p>How would you get only the first line of a file as a string with Python?</p>\u000a
p2021
sVis_answered
p2022
I01
sVprotected_date
p2023
I1434269223
sVview_count
p2024
I138903
sVtags
p2025
(lp2026
Vpython
p2027
aVfile
p2028
asVlast_activity_date
p2029
I1477795791
sVanswer_count
p2030
I8
sVcreation_date
p2031
I1260835248
sVscore
p2032
I92
sVlink
p2033
Vhttp://stackoverflow.com/questions/1904394/read-only-the-first-line-of-a-file
p2034
sVowner
p2035
(dp2036
Vuser_id
p2037
I231656
sVprofile_image
p2038
Vhttps://www.gravatar.com/avatar/b2d71ff83e9afae7e3744a9a95499de8?s=128&d=identicon&r=PG
p2039
sVuser_type
p2040
Vregistered
p2041
sVreputation
p2042
I487
sVlink
p2043
Vhttp://stackoverflow.com/users/231656/harpalss
p2044
sVaccept_rate
p2045
I12
sVdisplay_name
p2046
Vharpalss
p2047
ssVtitle
p2048
VRead only the first line of a file?
p2049
sVlast_edit_date
p2050
I1477795791
sVquestion_id
p2051
I1904394
sa(dp2052
Vclosed_date
p2053
I1280685872
sVis_answered
p2054
I01
sVclosed_reason
p2055
Vexact duplicate
p2056
sVview_count
p2057
I212100
sVtags
p2058
(lp2059
Vpython
p2060
aVsyntax
p2061
aVscripting
p2062
aVexit
p2063
asVbody
p2064
V<blockquote>\u000a  <p><strong>Possible Duplicate:</strong><br>\u000a  <a href="http://stackoverflow.com/questions/73663/terminating-a-python-script">Terminating a Python script</a>  </p>\u000a</blockquote>\u000a\u000a\u000a\u000a<p>I have a simple Python script that I want to stop executing if a condition is met.</p>\u000a\u000a<p>For example:</p>\u000a\u000a<pre><code>done = True\u000aif done:\u000a    # quit/stop/exit\u000aelse:\u000a    # do other stuff\u000a</code></pre>\u000a\u000a<p>Essentially, I am looking for something that behaves equivalently to the 'return' keyword in the body of a function which allows the flow of the code to exit the function and not execute the remaining code.</p>\u000a
p2065
sVlast_activity_date
p2066
I1264505187
sVaccepted_answer_id
p2067
I179608
sVcreation_date
p2068
I1223397996
sVscore
p2069
I92
sVlink
p2070
Vhttp://stackoverflow.com/questions/179369/how-do-i-abort-the-execution-of-a-python-script
p2071
sVanswer_count
p2072
I9
sVowner
p2073
(dp2074
Vuser_id
p2075
I4872
sVprofile_image
p2076
Vhttps://www.gravatar.com/avatar/2da21199d56ce93c5092f1c386d5a577?s=128&d=identicon&r=PG
p2077
sVuser_type
p2078
Vregistered
p2079
sVreputation
p2080
I59243
sVlink
p2081
Vhttp://stackoverflow.com/users/4872/ray-vega
p2082
sVaccept_rate
p2083
I90
sVdisplay_name
p2084
VRay Vega
p2085
ssVtitle
p2086
VHow do I abort the execution of a Python script?
p2087
sVquestion_id
p2088
I179369
sa(dp2089
Vbody
p2090
V<p>I have a sub-string:</p>\u000a\u000a<pre><code>substring = "please help me out"\u000a</code></pre>\u000a\u000a<p>I have another string:</p>\u000a\u000a<pre><code>string = "please help me out so that I could solve this"\u000a</code></pre>\u000a\u000a<p>How do I find if <code>substring</code> is a subset of <code>string</code> using Python?</p>\u000a
p2091
sVis_answered
p2092
I01
sVprotected_date
p2093
I1435031474
sVview_count
p2094
I185977
sVtags
p2095
(lp2096
Vpython
p2097
aVstring
p2098
asVlast_activity_date
p2099
I1479742691
sVaccepted_answer_id
p2100
I7361274
sVcreation_date
p2101
I1315569339
sVscore
p2102
I92
sVlink
p2103
Vhttp://stackoverflow.com/questions/7361253/how-to-determine-whether-a-substring-is-in-a-different-string
p2104
sVanswer_count
p2105
I9
sVowner
p2106
(dp2107
Vuser_id
p2108
I936208
sVprofile_image
p2109
Vhttps://www.gravatar.com/avatar/8131a9fdfb1c742251f10bb8a1c47918?s=128&d=identicon&r=PG
p2110
sVuser_type
p2111
Vunregistered
p2112
sVreputation
p2113
I463
sVlink
p2114
Vhttp://stackoverflow.com/users/936208/sunny
p2115
sVdisplay_name
p2116
Vsunny
p2117
ssVtitle
p2118
VHow to determine whether a substring is in a different string
p2119
sVlast_edit_date
p2120
I1473382235
sVquestion_id
p2121
I7361253
sa(dp2122
Vbody
p2123
V<p>I have two python modules:</p>\u000a\u000a<p>a.py</p>\u000a\u000a<pre><code>import b\u000a\u000adef hello():\u000a  print "hello"\u000a\u000aprint "a.py"\u000aprint hello()\u000aprint b.hi()\u000a</code></pre>\u000a\u000a<p>b.py</p>\u000a\u000a<pre><code>import a\u000a\u000adef hi():\u000a  print "hi"\u000a</code></pre>\u000a\u000a<p>When I run <code>a.py</code>, I get:</p>\u000a\u000a<pre><code>AttributeError: 'module' object has no attribute 'hi'\u000a</code></pre>\u000a\u000a<p>What does the error mean?  How do I fix it?</p>\u000a
p2124
sVis_answered
p2125
I01
sVview_count
p2126
I309808
sVtags
p2127
(lp2128
Vpython
p2129
aVattributeerror
p2130
asVlast_activity_date
p2131
I1466800005
sVanswer_count
p2132
I5
sVcreation_date
p2133
I1249773140
sVscore
p2134
I92
sVlink
p2135
Vhttp://stackoverflow.com/questions/1250103/attributeerror-module-object-has-no-attribute
p2136
sVaccepted_answer_id
p2137
I1250135
sVowner
p2138
(dp2139
Vuser_id
p2140
I151627
sVprofile_image
p2141
Vhttps://www.gravatar.com/avatar/216d1f44966ba40e987145e833592975?s=128&d=identicon&r=PG
p2142
sVuser_type
p2143
Vregistered
p2144
sVreputation
p2145
I1802
sVlink
p2146
Vhttp://stackoverflow.com/users/151627/stephen-hsu
p2147
sVaccept_rate
p2148
I64
sVdisplay_name
p2149
VStephen Hsu
p2150
ssVtitle
p2151
VAttributeError: &#39;module&#39; object has no attribute
p2152
sVlast_edit_date
p2153
I1386453950
sVquestion_id
p2154
I1250103
sa(dp2155
Vbody
p2156
V<p>I need a queue which multiple threads can put stuff into, and multiple threads may read from.</p>\u000a\u000a<p>Python has at least two queue classes, Queue.Queue and collections.deque, with the former seemingly using the latter internally. Both claim to be thread-safe in the documentation.</p>\u000a\u000a<p>However, the Queue docs also state:</p>\u000a\u000a<blockquote>\u000a  <p>collections.deque is an alternative\u000a  implementation of unbounded queues\u000a  with fast atomic append() and\u000a  popleft() operations that do not\u000a  require locking.</p>\u000a</blockquote>\u000a\u000a<p>Which I guess I don't quite unterstand: Does this mean deque isn't fully thread-safe after all?</p>\u000a\u000a<p>If it is, I may not fully understand the difference between the two classes. I can see that Queue adds blocking functionality. On the other hand, it loses some deque features like support for the in-operator.</p>\u000a\u000a<p>Accessing the internal deque object directly, is</p>\u000a\u000a<blockquote>\u000a  <p>x in Queue().deque</p>\u000a</blockquote>\u000a\u000a<p>thread-safe?</p>\u000a\u000a<p>Also, why does Queue employ a mutex for it's operations when deque is thread-safe already?</p>\u000a
p2157
sVis_answered
p2158
I01
sVview_count
p2159
I31110
sVtags
p2160
(lp2161
Vpython
p2162
aVthread-safety
p2163
aVqueue
p2164
asVlast_activity_date
p2165
I1492618111
sVanswer_count
p2166
I6
sVcreation_date
p2167
I1238853789
sVscore
p2168
I92
sVlink
p2169
Vhttp://stackoverflow.com/questions/717148/queue-queue-vs-collections-deque
p2170
sVaccepted_answer_id
p2171
I717261
sVowner
p2172
(dp2173
Vuser_id
p2174
I15677
sVprofile_image
p2175
Vhttps://www.gravatar.com/avatar/6d694c8bf7fbebd7a67ddc74a5018133?s=128&d=identicon&r=PG
p2176
sVuser_type
p2177
Vregistered
p2178
sVreputation
p2179
I7582
sVlink
p2180
Vhttp://stackoverflow.com/users/15677/miracle2k
p2181
sVaccept_rate
p2182
I57
sVdisplay_name
p2183
Vmiracle2k
p2184
ssVtitle
p2185
VQueue.Queue vs. collections.deque
p2186
sVlast_edit_date
p2187
I1431279185
sVquestion_id
p2188
I717148
sa(dp2189
Vbody
p2190
V<p>I'm trying to collect some of my default settings, and one thing I realized I don't have a standard for is .gitignore files. There's a great thread showing a <a href="http://stackoverflow.com/questions/2143956/gitignore-for-visual-studio-projects-and-solutions">good .gitignore for Visual Studio projects</a>, but I don't see many recommendations for Python and related tools (PyGTK, Django).</p>\u000a\u000a<p>So far, I have...</p>\u000a\u000a<pre><code>*.pyc\u000a*.pyo\u000a</code></pre>\u000a\u000a<p>...for the compiled objects and...</p>\u000a\u000a<pre><code>build/\u000adist/\u000a</code></pre>\u000a\u000a<p>...for the setuptools output.</p>\u000a\u000a<p>Any more recommendations for me?</p>\u000a
p2191
sVis_answered
p2192
I01
sVview_count
p2193
I69231
sVtags
p2194
(lp2195
Vpython
p2196
aVdjango
p2197
aVgit
p2198
aVpygtk
p2199
aVgitignore
p2200
asVlast_activity_date
p2201
I1390578015
sVanswer_count
p2202
I5
sVcreation_date
p2203
I1284564762
sVscore
p2204
I92
sVlink
p2205
Vhttp://stackoverflow.com/questions/3719243/recommended-gitignore-file-for-python-projects
p2206
sVaccepted_answer_id
p2207
I3719679
sVowner
p2208
(dp2209
Vuser_id
p2210
I147320
sVprofile_image
p2211
Vhttps://www.gravatar.com/avatar/bde11522cb4c83bfb7b5e7835b318ba8?s=128&d=identicon&r=PG
p2212
sVuser_type
p2213
Vregistered
p2214
sVreputation
p2215
I15845
sVlink
p2216
Vhttp://stackoverflow.com/users/147320/ewall
p2217
sVaccept_rate
p2218
I94
sVdisplay_name
p2219
Vewall
p2220
ssVtitle
p2221
VRecommended .gitignore file for Python projects?
p2222
sVquestion_id
p2223
I3719243
sa(dp2224
Vbody
p2225
V<p>I have a this list:</p>\u000a\u000a<pre><code>l = [['40', '20', '10', '30'], ['20', '20', '20', '20', '20', '30', '20'], ['30', '20', '30', '50', '10', '30', '20', '20', '20'], ['100', '100'], ['100', '100', '100', '100', '100'], ['100', '100', '100', '100']]\u000a</code></pre>\u000a\u000a<p>Now, what I want to do is convert each element in a list to float. My solution is this:</p>\u000a\u000a<pre><code>newList = []\u000afor x in l:\u000a  for y in x:\u000a    newList.append(float(y))\u000a</code></pre>\u000a\u000a<p>But can this be done using nested list comprehension, right?</p>\u000a\u000a<p>what I've done is:</p>\u000a\u000a<pre><code>[float(y) for y in x for x in l]\u000a</code></pre>\u000a\u000a<p>But then the result is bunch of 100's with the sum of 2400.</p>\u000a\u000a<p>any solution, an explanation would be much appreciated. Thanks!</p>\u000a
p2226
sVis_answered
p2227
I01
sVview_count
p2228
I57110
sVtags
p2229
(lp2230
Vpython
p2231
aVlist
p2232
aVlist-comprehension
p2233
asVlast_activity_date
p2234
I1493275975
sVanswer_count
p2235
I7
sVcreation_date
p2236
I1375768963
sVscore
p2237
I92
sVlink
p2238
Vhttp://stackoverflow.com/questions/18072759/python-nested-list-comprehension
p2239
sVaccepted_answer_id
p2240
I18072799
sVowner
p2241
(dp2242
Vuser_id
p2243
I1214293
sVprofile_image
p2244
Vhttps://www.gravatar.com/avatar/1992df352264a1cbfd4296a66f65d286?s=128&d=identicon&r=PG
p2245
sVuser_type
p2246
Vregistered
p2247
sVreputation
p2248
I2048
sVlink
p2249
Vhttp://stackoverflow.com/users/1214293/boy-pasmo
p2250
sVaccept_rate
p2251
I84
sVdisplay_name
p2252
VBoy Pasmo
p2253
ssVtitle
p2254
Vpython nested list comprehension
p2255
sVlast_edit_date
p2256
I1456018135
sVquestion_id
p2257
I18072759
sa(dp2258
Vbody
p2259
V<p>A Python MD5 hash is different than the one created by the md5sum command on the shell. Why?</p>\u000a\u000a<pre><code>&gt;&gt;&gt; import hashlib\u000a&gt;&gt;&gt; h = hashlib.md5()\u000a&gt;&gt;&gt; h.update("mystringforhash")\u000a&gt;&gt;&gt; print h.hexdigest()\u000a86b6423cb6d211734fc7d81bbc5e11d3 # Result from Python\u000a\u000a\u000a$ echo mystringforhash | md5sum\u000a686687dd68c5de717b34569dbfb8d3c3  - # Result on the shell\u000a</code></pre>\u000a
p2260
sVis_answered
p2261
I01
sVview_count
p2262
I5898
sVtags
p2263
(lp2264
Vpython
p2265
aVshell
p2266
aVmd5sum
p2267
asVlast_activity_date
p2268
I1334776453
sVanswer_count
p2269
I1
sVcreation_date
p2270
I1303041245
sVscore
p2271
I92
sVlink
p2272
Vhttp://stackoverflow.com/questions/5693360/why-is-an-md5-hash-created-by-python-different-from-one-created-using-echo-and-m
p2273
sVaccepted_answer_id
p2274
I5693363
sVowner
p2275
(dp2276
Vuser_id
p2277
I712081
sVprofile_image
p2278
Vhttps://www.gravatar.com/avatar/0b8c8aa391ba52fb364a0051adf75c58?s=128&d=identicon&r=PG
p2279
sVuser_type
p2280
Vunregistered
p2281
sVreputation
p2282
I469
sVlink
p2283
Vhttp://stackoverflow.com/users/712081/mailgo
p2284
sVdisplay_name
p2285
VmailGO
p2286
ssVtitle
p2287
VWhy is an MD5 hash created by Python different from one created using echo and md5sum in the shell?
p2288
sVlast_edit_date
p2289
I1332030678
sVquestion_id
p2290
I5693360
sa(dp2291
Vbody
p2292
V<p>I installed Python Anaconda on Mac (OS Mavericks). I wanted to revert to the default version of Python on my Mac. What's the best way to do this? Should I delete the ~/anaconda directory? Any other changes required? </p>\u000a\u000a<p>Currently when I run which python I get this path:</p>\u000a\u000a<p>/Users/username/anaconda/bin/python </p>\u000a
p2293
sVis_answered
p2294
I01
sVview_count
p2295
I154626
sVtags
p2296
(lp2297
Vpython
p2298
aVanaconda
p2299
asVlast_activity_date
p2300
I1486041857
sVanswer_count
p2301
I6
sVcreation_date
p2302
I1395532314
sVscore
p2303
I92
sVlink
p2304
Vhttp://stackoverflow.com/questions/22585235/python-anaconda-how-to-safely-uninstall
p2305
sVowner
p2306
(dp2307
Vuser_id
p2308
I537259
sVprofile_image
p2309
Vhttps://www.gravatar.com/avatar/4fee4f7aa9372efc386155773104ffb9?s=128&d=identicon&r=PG
p2310
sVuser_type
p2311
Vregistered
p2312
sVreputation
p2313
I972
sVlink
p2314
Vhttp://stackoverflow.com/users/537259/william-tell
p2315
sVaccept_rate
p2316
I65
sVdisplay_name
p2317
Vwilliam tell
p2318
ssVtitle
p2319
VPython Anaconda - How to Safely Uninstall
p2320
sVquestion_id
p2321
I22585235
sa(dp2322
Vbody
p2323
V<p>I know there's a similar topic about python console, but I do not know if they are the same. I tried system("clear") and it didn't work here.</p>\u000a\u000a<p>How do I clear python's IDLE window?</p>\u000a
p2324
sVis_answered
p2325
I01
sVprotected_date
p2326
I1428250535
sVview_count
p2327
I222926
sVtags
p2328
(lp2329
Vpython
p2330
aVpython-idle
p2331
asVlast_activity_date
p2332
I1488597428
sVanswer_count
p2333
I22
sVcreation_date
p2334
I1253101776
sVscore
p2335
I92
sVlink
p2336
Vhttp://stackoverflow.com/questions/1432480/any-way-to-clear-pythons-idle-window
p2337
sVowner
p2338
(dp2339
Vuser_id
p2340
I130758
sVprofile_image
p2341
Vhttps://i.stack.imgur.com/MbIFT.jpg?s=128&g=1
p2342
sVuser_type
p2343
Vregistered
p2344
sVreputation
p2345
I31549
sVlink
p2346
Vhttp://stackoverflow.com/users/130758/devoured-elysium
p2347
sVaccept_rate
p2348
I76
sVdisplay_name
p2349
Vdevoured elysium
p2350
ssVtitle
p2351
VAny way to clear python&#39;s IDLE window?
p2352
sVlast_edit_date
p2353
I1397868164
sVquestion_id
p2354
I1432480
sa(dp2355
Vbody
p2356
V<p>Is there a way to open a file for both reading and writing? I thought "r+" was for that.<br>\u000aBecause I'm working on binary files I tried the mode "r+b", but I get an error that the file is not open for reading.</p>\u000a
p2357
sVis_answered
p2358
I01
sVview_count
p2359
I114775
sVtags
p2360
(lp2361
Vpython
p2362
aVfile
p2363
aVbinary
p2364
asVlast_activity_date
p2365
I1481088994
sVanswer_count
p2366
I4
sVcreation_date
p2367
I1310378366
sVscore
p2368
I92
sVlink
p2369
Vhttp://stackoverflow.com/questions/6648493/open-file-for-both-reading-and-writing
p2370
sVowner
p2371
(dp2372
Vuser_id
p2373
I838640
sVprofile_image
p2374
Vhttps://www.gravatar.com/avatar/61dd3c8c9838a6fc438d7883cf753038?s=128&d=identicon&r=PG
p2375
sVuser_type
p2376
Vunregistered
p2377
sVreputation
p2378
I461
sVlink
p2379
Vhttp://stackoverflow.com/users/838640/bigredhat
p2380
sVdisplay_name
p2381
Vbigredhat
p2382
ssVtitle
p2383
Vopen file for both reading and writing?
p2384
sVlast_edit_date
p2385
I1392002333
sVquestion_id
p2386
I6648493
sa(dp2387
Vbody
p2388
V<p>I run a python shell from crontab every minute:</p>\u000a\u000a<pre><code>* * * * * /home/udi/foo/bar.py\u000a</code></pre>\u000a\u000a<p><code>/home/udi/foo</code> has some necessary subdirectories, like <code>/home/udi/foo/log</code> and <code>/home/udi/foo/config</code>, which <code>/home/udi/foo/bar.py</code> refers to.</p>\u000a\u000a<p>The problem is that <code>crontab</code> runs the script from a different working directory, so trying to open <code>./log/bar.log</code> fails.</p>\u000a\u000a<p>Is there a nice way to tell the script to change the working directory to the script's own directory? I would fancy a solution that would work for any script location, rather than explicitly telling the script where it is.</p>\u000a\u000a<p><strong>EDIT:</strong></p>\u000a\u000a<pre><code>os.chdir(os.path.dirname(sys.argv[0]))\u000a</code></pre>\u000a\u000a<p>Was the most compact elegant solution. Thanks for your answers and explanations!</p>\u000a
p2389
sVis_answered
p2390
I01
sVview_count
p2391
I77301
sVtags
p2392
(lp2393
Vpython
p2394
aVworking-directory
p2395
asVlast_activity_date
p2396
I1431279824
sVanswer_count
p2397
I4
sVcreation_date
p2398
I1253107311
sVscore
p2399
I92
sVlink
p2400
Vhttp://stackoverflow.com/questions/1432924/python-change-the-scripts-working-directory-to-the-scripts-own-directory
p2401
sVaccepted_answer_id
p2402
I1432949
sVowner
p2403
(dp2404
Vuser_id
p2405
I51197
sVprofile_image
p2406
Vhttps://i.stack.imgur.com/QG9pG.jpg?s=128&g=1
p2407
sVuser_type
p2408
Vregistered
p2409
sVreputation
p2410
I34569
sVlink
p2411
Vhttp://stackoverflow.com/users/51197/adam-matan
p2412
sVaccept_rate
p2413
I85
sVdisplay_name
p2414
VAdam Matan
p2415
ssVtitle
p2416
Vpython: Change the scripts working directory to the script&#39;s own directory
p2417
sVlast_edit_date
p2418
I1253108499
sVquestion_id
p2419
I1432924
sa(dp2420
Vclosed_date
p2421
I1483559537
sVis_answered
p2422
I01
sVclosed_reason
p2423
Vduplicate
p2424
sVview_count
p2425
I16214
sVtags
p2426
(lp2427
Vpython
p2428
aVloops
p2429
aVnumpy
p2430
aVoperators
p2431
asVbody
p2432
V<p>I found out a curious thing today and was wondering if somebody could shed some light into what the difference is here?</p>\u000a\u000a<pre><code>import numpy as np\u000a\u000aA = np.arange(12).reshape(4,3)\u000afor a in A:\u000a    a = a + 1\u000a\u000aB = np.arange(12).reshape(4,3)\u000afor b in B:\u000a    b += 1\u000a</code></pre>\u000a\u000a<p>After running each <code>for</code> loop, <code>A</code> has not changed, but <code>B</code> has had one added to each element. I actually use the <code>B</code> version to write to a initialized NumPy array within a <code>for</code> loop.</p>\u000a
p2433
sVlast_activity_date
p2434
I1484091902
sVaccepted_answer_id
p2435
I41446882
sVcreation_date
p2436
I1483457220
sVscore
p2437
I92
sVlink
p2438
Vhttp://stackoverflow.com/questions/41446833/what-is-the-difference-between-i-i-1-and-i-1-in-a-for-loop
p2439
sVanswer_count
p2440
I6
sVowner
p2441
(dp2442
Vuser_id
p2443
I2758652
sVprofile_image
p2444
Vhttps://www.gravatar.com/avatar/a3bef0e8b6f6f76b2d18a5a612755e52?s=128&d=identicon&r=PG&f=1
p2445
sVuser_type
p2446
Vregistered
p2447
sVreputation
p2448
I577
sVlink
p2449
Vhttp://stackoverflow.com/users/2758652/dammi
p2450
sVaccept_rate
p2451
I75
sVdisplay_name
p2452
VDammi
p2453
ssVtitle
p2454
VWhat is the difference between i = i + 1 and i += 1 in a &#39;for&#39; loop?
p2455
sVlast_edit_date
p2456
I1483470100
sVquestion_id
p2457
I41446833
sa(dp2458
Vbody
p2459
V<p>I'm new to Python and am trying to understand its approach to variable scope. In this example, why is <code>f()</code> able to alter the value of <code>x</code>, as perceived within <code>main()</code>, but not the value of <code>n</code>?</p>\u000a\u000a<pre><code>def f(n, x):\u000a    n = 2\u000a    x.append(4)\u000a    print 'In f():', n, x\u000a\u000adef main():\u000a    n = 1\u000a    x = [0,1,2,3]\u000a    print 'Before:', n, x\u000a    f(n, x)\u000a    print 'After: ', n, x\u000a\u000amain()\u000a</code></pre>\u000a\u000a<p>Output:</p>\u000a\u000a<pre><code>Before: 1 [0, 1, 2, 3]\u000aIn f(): 2 [0, 1, 2, 3, 4]\u000aAfter:  1 [0, 1, 2, 3, 4]\u000a</code></pre>\u000a
p2460
sVis_answered
p2461
I01
sVview_count
p2462
I62511
sVtags
p2463
(lp2464
Vpython
p2465
asVlast_activity_date
p2466
I1452961833
sVanswer_count
p2467
I8
sVcreation_date
p2468
I1235320971
sVscore
p2469
I92
sVlink
p2470
Vhttp://stackoverflow.com/questions/575196/in-python-why-can-a-function-modify-some-arguments-as-perceived-by-the-caller
p2471
sVaccepted_answer_id
p2472
I575337
sVowner
p2473
(dp2474
Vuser_id
p2475
I55857
sVprofile_image
p2476
Vhttps://www.gravatar.com/avatar/9cc59902c5433de334920d378626b9d8?s=128&d=identicon&r=PG
p2477
sVuser_type
p2478
Vregistered
p2479
sVreputation
p2480
I29588
sVlink
p2481
Vhttp://stackoverflow.com/users/55857/fmc
p2482
sVaccept_rate
p2483
I89
sVdisplay_name
p2484
VFMc
p2485
ssVtitle
p2486
VIn Python, why can a function modify some arguments as perceived by the caller, but not others?
p2487
sVlast_edit_date
p2488
I1277213817
sVquestion_id
p2489
I575196
sa(dp2490
Vclosed_date
p2491
I1373309538
sVis_answered
p2492
I01
sVclosed_reason
p2493
Vduplicate
p2494
sVview_count
p2495
I16961
sVtags
p2496
(lp2497
Vpython
p2498
aVconsole
p2499
aVterminal
p2500
asVbody
p2501
V<p>Is there a way to detect whether <code>sys.stdout</code> is attached to a console terminal or not? For example, I want to be able to detect if foo.py is run via:</p>\u000a\u000a<pre><code>$ python foo.py  # user types this on console\u000a</code></pre>\u000a\u000a<p>OR</p>\u000a\u000a<pre><code>$ python foo.py &gt; output.txt # redirection\u000a$ python foo.py | grep ....  # pipe\u000a</code></pre>\u000a\u000a<p>The reason I ask this question is that I want to make sure that my progressbar display happens only in the former case (real console).</p>\u000a
p2502
sVlast_activity_date
p2503
I1246575745
sVaccepted_answer_id
p2504
I1077118
sVcreation_date
p2505
I1246575666
sVscore
p2506
I92
sVlink
p2507
Vhttp://stackoverflow.com/questions/1077113/how-do-i-detect-whether-sys-stdout-is-attached-to-terminal-or-not
p2508
sVanswer_count
p2509
I1
sVowner
p2510
(dp2511
Vuser_id
p2512
I55246
sVprofile_image
p2513
Vhttps://i.stack.imgur.com/b1zkZ.jpg?s=128&g=1
p2514
sVuser_type
p2515
Vregistered
p2516
sVreputation
p2517
I26038
sVlink
p2518
Vhttp://stackoverflow.com/users/55246/sridhar-ratnakumar
p2519
sVaccept_rate
p2520
I70
sVdisplay_name
p2521
VSridhar Ratnakumar
p2522
ssVtitle
p2523
VHow do I detect whether sys.stdout is attached to terminal or not?
p2524
sVquestion_id
p2525
I1077113
sa(dp2526
Vbody
p2527
V<p>I'd like to make a heatmap like this (shown on <a href="http://flowingdata.com/2010/01/21/how-to-make-a-heatmap-a-quick-and-easy-solution/" rel="noreferrer">FlowingData</a>):\u000a<img src="https://i.stack.imgur.com/pjnUL.png" alt="heatmap"></p>\u000a\u000a<p>The source data is <a href="http://datasets.flowingdata.com/ppg2008.csv" rel="noreferrer">here</a>, but random data and labels would be fine to use, i.e.</p>\u000a\u000a<pre><code>import numpy\u000acolumn_labels = list('ABCD')\u000arow_labels = list('WXYZ')\u000adata = numpy.random.rand(4,4)\u000a</code></pre>\u000a\u000a<p>Making the heatmap is easy enough in matplotlib:</p>\u000a\u000a<pre><code>from matplotlib import pyplot as plt\u000aheatmap = plt.pcolor(data)\u000a</code></pre>\u000a\u000a<p>And I even found a <a href="http://www.scipy.org/Cookbook/Matplotlib/Show_colormaps" rel="noreferrer">colormap</a> arguments that look about right: <code>heatmap = plt.pcolor(data, cmap=matplotlib.cm.Blues)</code></p>\u000a\u000a<p>But beyond that, I can't figure out how to display labels for the columns and rows and display the data in the proper orientation (origin at the top left instead of bottom left).</p>\u000a\u000a<p>Attempts to manipulate <code>heatmap.axes</code> (e.g. <code>heatmap.axes.set_xticklabels = column_labels</code>) have all failed. What am I missing here?</p>\u000a
p2528
sVis_answered
p2529
I01
sVview_count
p2530
I93564
sVtags
p2531
(lp2532
Vpython
p2533
aVmatplotlib
p2534
aVdata-visualization
p2535
aVheatmap
p2536
asVlast_activity_date
p2537
I1474535449
sVanswer_count
p2538
I4
sVcreation_date
p2539
I1358479877
sVscore
p2540
I92
sVlink
p2541
Vhttp://stackoverflow.com/questions/14391959/heatmap-in-matplotlib-with-pcolor
p2542
sVaccepted_answer_id
p2543
I16124677
sVowner
p2544
(dp2545
Vuser_id
p2546
I2683
sVprofile_image
p2547
Vhttps://www.gravatar.com/avatar/d4a6fedba56c0767d6e8613007fb188e?s=128&d=identicon&r=PG
p2548
sVuser_type
p2549
Vregistered
p2550
sVreputation
p2551
I5062
sVlink
p2552
Vhttp://stackoverflow.com/users/2683/jason-sundram
p2553
sVaccept_rate
p2554
I69
sVdisplay_name
p2555
VJason Sundram
p2556
ssVtitle
p2557
VHeatmap in matplotlib with pcolor?
p2558
sVlast_edit_date
p2559
I1474501461
sVquestion_id
p2560
I14391959
sa(dp2561
Vbody
p2562
V<p>I have a large source repository split across multiple projects. I would like to produce a report about the health of the source code, identifying problem areas that need to be addressed.</p>\u000a\u000a<p>Specifically, I'd like to call out routines with a high cyclomatic complexity, identify repetition, and perhaps run some lint-like static analysis to spot suspicious (and thus likely erroneous) constructs.</p>\u000a\u000a<p>How might I go about constructing such a report?</p>\u000a
p2563
sVis_answered
p2564
I01
sVprotected_date
p2565
I1441134784
sVview_count
p2566
I35693
sVtags
p2567
(lp2568
Vpython
p2569
aVstatic-analysis
p2570
aVcyclomatic-complexity
p2571
asVlast_activity_date
p2572
I1478244597
sVaccepted_answer_id
p2573
I105473
sVcreation_date
p2574
I1221810022
sVscore
p2575
I92
sVlink
p2576
Vhttp://stackoverflow.com/questions/100298/how-can-i-analyze-python-code-to-identify-problematic-areas
p2577
sVanswer_count
p2578
I8
sVowner
p2579
(dp2580
Vuser_id
p2581
I14648
sVprofile_image
p2582
Vhttps://www.gravatar.com/avatar/84965d0d894b45875d8045bc5762ba57?s=128&d=identicon&r=PG
p2583
sVuser_type
p2584
Vregistered
p2585
sVreputation
p2586
I27307
sVlink
p2587
Vhttp://stackoverflow.com/users/14648/jerub
p2588
sVaccept_rate
p2589
I91
sVdisplay_name
p2590
VJerub
p2591
ssVtitle
p2592
VHow can I analyze Python code to identify problematic areas?
p2593
sVlast_edit_date
p2594
I1440785541
sVquestion_id
p2595
I100298
sa(dp2596
Vclosed_date
p2597
I1315786392
sVis_answered
p2598
I01
sVclosed_reason
p2599
Vexact duplicate
p2600
sVview_count
p2601
I123854
sVtags
p2602
(lp2603
Vpython
p2604
aVdesign-patterns
p2605
aVsingleton
p2606
asVbody
p2607
V<blockquote>\u000a  <p><strong>Possible Duplicate:</strong><br>\u000a  <a href="http://stackoverflow.com/questions/31875/is-there-a-simple-elegant-way-to-define-singletons-in-python">Is there a simple, elegant way to define Singletons in Python?</a>  </p>\u000a</blockquote>\u000a\u000a\u000a\u000a<p>What is the best way to implement the singleton pattern in Python?  It seems impossible to declare the constructor private or protected as is normally done with the Singleton pattern...</p>\u000a
p2608
sVlast_activity_date
p2609
I1337003844
sVanswer_count
p2610
I0
sVcreation_date
p2611
I1220475199
sVscore
p2612
I92
sVlink
p2613
Vhttp://stackoverflow.com/questions/42558/python-and-the-singleton-pattern
p2614
sVowner
p2615
(dp2616
Vuser_id
p2617
I4316
sVprofile_image
p2618
Vhttps://www.gravatar.com/avatar/dc91d4e8c035283347ba673168770cea?s=128&d=identicon&r=PG
p2619
sVuser_type
p2620
Vregistered
p2621
sVreputation
p2622
I15928
sVlink
p2623
Vhttp://stackoverflow.com/users/4316/dmanxiii
p2624
sVaccept_rate
p2625
I100
sVdisplay_name
p2626
Vdmanxiii
p2627
ssVtitle
p2628
VPython and the Singleton Pattern
p2629
sVlocked_date
p2630
I1422566976
sVquestion_id
p2631
I42558
sa(dp2632
Vbody
p2633
V<p>I have the following list created from a sorted csv</p>\u000a\u000a<pre><code>list1 = sorted(csv1, key=operator.itemgetter(1))\u000a</code></pre>\u000a\u000a<p>I would actually like to sort the list by two criteria: first by the value in field 1 and then by the value in field 2. How do I do this?</p>\u000a
p2634
sVis_answered
p2635
I01
sVview_count
p2636
I62966
sVtags
p2637
(lp2638
Vpython
p2639
aVsorting
p2640
asVlast_activity_date
p2641
I1474559429
sVanswer_count
p2642
I5
sVcreation_date
p2643
I1299440168
sVscore
p2644
I91
sVlink
p2645
Vhttp://stackoverflow.com/questions/5212870/sorting-a-python-list-by-two-criteria
p2646
sVaccepted_answer_id
p2647
I5212885
sVowner
p2648
(dp2649
Vuser_id
p2650
I647180
sVprofile_image
p2651
Vhttps://www.gravatar.com/avatar/b438cf4b6a80295d87cfac2dd0607936?s=128&d=identicon&r=PG
p2652
sVuser_type
p2653
Vunregistered
p2654
sVreputation
p2655
I572
sVlink
p2656
Vhttp://stackoverflow.com/users/647180/half-full
p2657
sVdisplay_name
p2658
Vhalf full
p2659
ssVtitle
p2660
VSorting a Python list by two criteria
p2661
sVquestion_id
p2662
I5212870
sa(dp2663
Vbody
p2664
V<p>I am working on Django project with virtualenv and connect it to local postgres database. when i run the project is says,</p>\u000a\u000a<pre><code>ImportError: No module named psycopg2.extensions\u000a</code></pre>\u000a\u000a<p>then i used this command to install </p>\u000a\u000a<pre><code>pip install psycopg2\u000a</code></pre>\u000a\u000a<p>then during the installation it gives following error.</p>\u000a\u000a<pre><code>Downloading/unpacking psycopg2==2.4.4\u000a  Downloading psycopg2-2.4.4.tar.gz (648kB): 648kB downloaded\u000a  Running setup.py (path:/home/muhammadtaqi/Projects/MyProjects/OnlineElectionCampaign/venv/build/psycopg2/setup.py) egg_info for package psycopg2\u000a\u000a    Error: You need to install postgresql-server-dev-X.Y for building a server-side extension or libpq-dev for building a client-side application.\u000a\u000a    Complete output from command python setup.py egg_info:\u000a    running egg_info\u000a\u000acreating pip-egg-info/psycopg2.egg-info\u000a\u000awriting pip-egg-info/psycopg2.egg-info/PKG-INFO\u000a\u000awriting top-level names to pip-egg-info/psycopg2.egg-info/top_level.txt\u000a\u000awriting dependency_links to pip-egg-info/psycopg2.egg-info/dependency_links.txt\u000a\u000awriting manifest file 'pip-egg-info/psycopg2.egg-info/SOURCES.txt'\u000a\u000awarning: manifest_maker: standard file '-c' not found\u000a\u000a\u000a\u000aError: You need to install postgresql-server-dev-X.Y for building a server-side extension or libpq-dev for building a client-side application.\u000a\u000a\u000a\u000a----------------------------------------\u000aCleaning up...\u000aCommand python setup.py egg_info failed with error code 1 in /home/muhammadtaqi/Projects/MyProjects/OnlineElectionCampaign/venv/build/psycopg2\u000aStoring debug log for failure in /home/muhammadtaqi/.pip/pip.log\u000a</code></pre>\u000a
p2665
sVis_answered
p2666
I01
sVview_count
p2667
I51625
sVtags
p2668
(lp2669
Vpython
p2670
aVdjango
p2671
aVpostgresql
p2672
asVlast_activity_date
p2673
I1494920262
sVanswer_count
p2674
I4
sVcreation_date
p2675
I1422720629
sVscore
p2676
I91
sVlink
p2677
Vhttp://stackoverflow.com/questions/28253681/you-need-to-install-postgresql-server-dev-x-y-for-building-a-server-side-extensi
p2678
sVowner
p2679
(dp2680
Vuser_id
p2681
I2852807
sVprofile_image
p2682
Vhttps://i.stack.imgur.com/pggtn.jpg?s=128&g=1
p2683
sVuser_type
p2684
Vregistered
p2685
sVreputation
p2686
I1410
sVlink
p2687
Vhttp://stackoverflow.com/users/2852807/mtaqi
p2688
sVaccept_rate
p2689
I29
sVdisplay_name
p2690
Vmtaqi
p2691
ssVtitle
p2692
VYou need to install postgresql-server-dev-X.Y for building a server-side extension or libpq-dev for building a client-side application
p2693
sVlast_edit_date
p2694
I1422721298
sVquestion_id
p2695
I28253681
sa(dp2696
Vbody
p2697
V<p>I have looked through the information that the <a href="https://docs.python.org/3/library/pickle.html" rel="noreferrer">Python docs</a> give, but I'm still a little confused. Could somebody post sample code that would write a new file then use pickle to dump a dictionary into it?</p>\u000a
p2698
sVis_answered
p2699
I01
sVview_count
p2700
I77662
sVtags
p2701
(lp2702
Vpython
p2703
aVdictionary
p2704
aVpickle
p2705
asVlast_activity_date
p2706
I1494931983
sVanswer_count
p2707
I7
sVcreation_date
p2708
I1340763164
sVscore
p2709
I91
sVlink
p2710
Vhttp://stackoverflow.com/questions/11218477/how-can-i-use-pickle-to-save-a-dict
p2711
sVaccepted_answer_id
p2712
I11218504
sVowner
p2713
(dp2714
Vuser_id
p2715
I1429351
sVprofile_image
p2716
Vhttps://www.gravatar.com/avatar/af2d829fb28b3c80181231292cac2e6a?s=128&d=identicon&r=PG&f=1
p2717
sVuser_type
p2718
Vregistered
p2719
sVreputation
p2720
I1059
sVlink
p2721
Vhttp://stackoverflow.com/users/1429351/chachmu
p2722
sVaccept_rate
p2723
I100
sVdisplay_name
p2724
VChachmu
p2725
ssVtitle
p2726
VHow can I use pickle to save a dict?
p2727
sVlast_edit_date
p2728
I1433785257
sVquestion_id
p2729
I11218477
sa(dp2730
Vbody
p2731
V<p>Given a string of a Python class, e.g. <code>my_package.my_module.MyClass</code>, what is the best possible way to load it?</p>\u000a\u000a<p>In other words I am looking for a equivalent <code>Class.forName()</code> in Java, function in Python. It needs to work on Google App Engine.</p>\u000a\u000a<p>Preferably this would be a function that accepts the FQN of the class as a string, and returns a reference to the class:</p>\u000a\u000a<pre><code>my_class = load_class('my_package.my_module.MyClass')\u000amy_instance = my_class()\u000a</code></pre>\u000a
p2732
sVis_answered
p2733
I01
sVview_count
p2734
I69089
sVtags
p2735
(lp2736
Vpython
p2737
aVreflection
p2738
aVpython-import
p2739
asVlast_activity_date
p2740
I1446301561
sVanswer_count
p2741
I6
sVcreation_date
p2742
I1234561744
sVscore
p2743
I91
sVlink
p2744
Vhttp://stackoverflow.com/questions/547829/how-to-dynamically-load-a-python-class
p2745
sVaccepted_answer_id
p2746
I547867
sVowner
p2747
(dp2748
Vuser_id
p2749
I1296737
sVprofile_image
p2750
Vhttps://www.gravatar.com/avatar/9ed1b76f2d0a33fbe265a213d27b2663?s=128&d=identicon&r=PG
p2751
sVuser_type
p2752
Vregistered
p2753
sVreputation
p2754
I1686
sVlink
p2755
Vhttp://stackoverflow.com/users/1296737/pjesi
p2756
sVaccept_rate
p2757
I83
sVdisplay_name
p2758
Vpjesi
p2759
ssVtitle
p2760
VHow to dynamically load a Python class
p2761
sVlast_edit_date
p2762
I1380490033
sVquestion_id
p2763
I547829
sa(dp2764
Vbody
p2765
V<p>I am walking a directory that contains eggs to add those eggs to the <code>sys.path</code>.  If there are two versions of the same .egg in the directory, I want to add only the latest one.</p>\u000a\u000a<p>I have a regular expression <code>r"^(?P&lt;eggName&gt;\u005cw+)-(?P&lt;eggVersion&gt;[\u005cd\u005c.]+)-.+\u005c.egg$</code> to extract the name and version from the filename.  The problem is comparing the version number, which is a string like <code>2.3.1</code>.</p>\u000a\u000a<p>Since I'm comparing strings, 2 sorts above 10, but that's not correct for versions.</p>\u000a\u000a<pre><code>&gt;&gt;&gt; "2.3.1" &gt; "10.1.1"\u000aTrue\u000a</code></pre>\u000a\u000a<p>I could do some splitting, parsing, casting to int, etc., and I would eventually get a workaround.  But this is Python, <a href="http://stackoverflow.com/questions/6701948/efficient-way-to-compare-version-strings-in-java">not Java</a>.  Is there an elegant way to compare version strings?</p>\u000a
p2766
sVis_answered
p2767
I01
sVview_count
p2768
I28752
sVtags
p2769
(lp2770
Vpython
p2771
aVversion
p2772
aVstring-comparison
p2773
asVlast_activity_date
p2774
I1488222302
sVanswer_count
p2775
I7
sVcreation_date
p2776
I1344529370
sVscore
p2777
I91
sVlink
p2778
Vhttp://stackoverflow.com/questions/11887762/compare-version-strings-in-python
p2779
sVaccepted_answer_id
p2780
I11887885
sVowner
p2781
(dp2782
Vuser_id
p2783
I289011
sVprofile_image
p2784
Vhttps://www.gravatar.com/avatar/7fabc4413849953957908f8690c2c24c?s=128&d=identicon&r=PG
p2785
sVuser_type
p2786
Vregistered
p2787
sVreputation
p2788
I6119
sVlink
p2789
Vhttp://stackoverflow.com/users/289011/borrajax
p2790
sVaccept_rate
p2791
I97
sVdisplay_name
p2792
VBorrajaX
p2793
ssVtitle
p2794
VCompare version strings in Python
p2795
sVlast_edit_date
p2796
I1488222302
sVquestion_id
p2797
I11887762
sa(dp2798
Vcommunity_owned_date
p2799
I1221816559
sVis_answered
p2800
I01
sVview_count
p2801
I56456
sVtags
p2802
(lp2803
Vpython
p2804
asVbody
p2805
V<p>I've seen several examples of code like this:</p>\u000a\u000a<pre><code>if not someobj:\u000a    #do something\u000a</code></pre>\u000a\u000a<p>But I'm wondering why not doing:</p>\u000a\u000a<pre><code>if someobj == None:\u000a    #do something\u000a</code></pre>\u000a\u000a<p>Is there any difference? Does one have an advantage over the other?</p>\u000a
p2806
sVlast_activity_date
p2807
I1422314307
sVanswer_count
p2808
I9
sVcreation_date
p2809
I1221816559
sVscore
p2810
I91
sVlink
p2811
Vhttp://stackoverflow.com/questions/100732/why-is-if-not-someobj-better-than-if-someobj-none-in-python
p2812
sVaccepted_answer_id
p2813
I100762
sVowner
p2814
(dp2815
Vuser_id
p2816
I10708
sVprofile_image
p2817
Vhttps://www.gravatar.com/avatar/815c125b51b677e6c531b7a988170b6b?s=128&d=identicon&r=PG
p2818
sVuser_type
p2819
Vregistered
p2820
sVreputation
p2821
I17299
sVlink
p2822
Vhttp://stackoverflow.com/users/10708/fuentesjr
p2823
sVaccept_rate
p2824
I96
sVdisplay_name
p2825
Vfuentesjr
p2826
ssVtitle
p2827
VWhy is &quot;if not someobj:&quot; better than &quot;if someobj == None:&quot; in Python?
p2828
sVlast_edit_date
p2829
I1402835377
sVquestion_id
p2830
I100732
sa(dp2831
Vbody
p2832
V<p>I can't seem to get the <a href="https://nose.readthedocs.org/en/latest/" rel="noreferrer">nose testing framework</a> to recognize modules beneath my test script in the file structure.  I've set up the simplest example that demonstrates the problem. I'll explain it below.</p>\u000a\u000a<p>Here's the the package file structure:</p>\u000a\u000a<pre><code>./__init__.py\u000a./foo.py\u000a./tests\u000a   ./__init__.py\u000a   ./test_foo.py\u000a</code></pre>\u000a\u000a<p>foo.py contains:</p>\u000a\u000a<pre><code>def dumb_true():\u000a    return True\u000a</code></pre>\u000a\u000a<p>tests/test_foo.py contains:</p>\u000a\u000a<pre><code>import foo\u000a\u000adef test_foo():\u000a    assert foo.dumb_true()\u000a</code></pre>\u000a\u000a<p>Both <strong>init</strong>.py files are empty</p>\u000a\u000a<p>If I run <code>nosetests -vv</code> in the main directory (where foo.py is), I get:</p>\u000a\u000a<pre><code>Failure: ImportError (No module named foo) ... ERROR\u000a\u000a======================================================================\u000aERROR: Failure: ImportError (No module named foo)\u000a----------------------------------------------------------------------\u000aTraceback (most recent call last):\u000a  File "/usr/lib/python/site-packages/nose-0.11.1-py2.6.egg/nose/loader.py", line 379, in loadTestsFromName\u000a    addr.filename, addr.module)\u000a  File "/usr/lib/python/site-packages/nose-0.11.1-py2.6.egg/nose/importer.py", line 39, in importFromPath\u000a    return self.importFromDir(dir_path, fqname)\u000a  File "/usr/lib/python/site-packages/nose-0.11.1-py2.6.egg/nose/importer.py", line 86, in importFromDir\u000a    mod = load_module(part_fqname, fh, filename, desc)\u000a  File "/home/user/nose_testing/tests/test_foo.py", line 1, in &lt;module&gt;\u000a    import foo\u000aImportError: No module named foo\u000a\u000a----------------------------------------------------------------------\u000aRan 1 test in 0.002s\u000a\u000aFAILED (errors=1)\u000a</code></pre>\u000a\u000a<p>I get the same error when I run from inside the tests/ directory.  According to the documentation and <a href="http://schettino72.wordpress.com/2008/01/19/11/" rel="noreferrer">an example</a> I found, nose is supposed to add all parent packages to the path as well as the directory from which it is called, but this doesn't seem to be happening in my case.  </p>\u000a\u000a<p>I'm running Ubuntu 8.04 with Python 2.6.2.  I've built and installed nose manually (not with setup_tools) if that matters. </p>\u000a
p2833
sVis_answered
p2834
I01
sVview_count
p2835
I30686
sVtags
p2836
(lp2837
Vpython
p2838
aVnose
p2839
aVpython-import
p2840
asVlast_activity_date
p2841
I1470165042
sVanswer_count
p2842
I8
sVcreation_date
p2843
I1276897578
sVscore
p2844
I91
sVlink
p2845
Vhttp://stackoverflow.com/questions/3073259/python-nose-import-error
p2846
sVaccepted_answer_id
p2847
I3073368
sVowner
p2848
(dp2849
Vuser_id
p2850
I301329
sVprofile_image
p2851
Vhttps://www.gravatar.com/avatar/de860ff075c038f5258f14c49c363013?s=128&d=identicon&r=PG
p2852
sVuser_type
p2853
Vregistered
p2854
sVreputation
p2855
I708
sVlink
p2856
Vhttp://stackoverflow.com/users/301329/halfak
p2857
sVaccept_rate
p2858
I67
sVdisplay_name
p2859
Vhalfak
p2860
ssVtitle
p2861
VPython Nose Import Error
p2862
sVlast_edit_date
p2863
I1366921198
sVquestion_id
p2864
I3073259
sa(dp2865
Vbody
p2866
V<p>I'm trying to set up a server with python from mac terminal. </p>\u000a\u000a<p>I navigate to folder location an use: </p>\u000a\u000a<pre><code>python -m SimpleHTTPServer\u000a</code></pre>\u000a\u000a<p>But this gives me error: </p>\u000a\u000a<pre><code>socket.error: [Errno 48] Address already in use\u000a</code></pre>\u000a\u000a<p>I had previously open a connection using the same command \u000afor a different website in a different location in my machine.</p>\u000a
p2867
sVis_answered
p2868
I01
sVview_count
p2869
I102163
sVtags
p2870
(lp2871
Vpython
p2872
aVsimplehttpserver
p2873
asVlast_activity_date
p2874
I1493992609
sVanswer_count
p2875
I5
sVcreation_date
p2876
I1380401288
sVscore
p2877
I91
sVlink
p2878
Vhttp://stackoverflow.com/questions/19071512/socket-error-errno-48-address-already-in-use
p2879
sVaccepted_answer_id
p2880
I19071568
sVowner
p2881
(dp2882
Vuser_id
p2883
I2129446
sVprofile_image
p2884
Vhttps://www.gravatar.com/avatar/88e59ef96706d6feaed48b1444fcca81?s=128&d=identicon&r=PG
p2885
sVuser_type
p2886
Vregistered
p2887
sVreputation
p2888
I680
sVlink
p2889
Vhttp://stackoverflow.com/users/2129446/irm
p2890
sVaccept_rate
p2891
I50
sVdisplay_name
p2892
Virm
p2893
ssVtitle
p2894
Vsocket.error: [Errno 48] Address already in use
p2895
sVlast_edit_date
p2896
I1424218786
sVquestion_id
p2897
I19071512
sa(dp2898
Vclosed_date
p2899
I1413693880
sVis_answered
p2900
I01
sVclosed_reason
p2901
Vduplicate
p2902
sVview_count
p2903
I36187
sVtags
p2904
(lp2905
Vpython
p2906
aVpredicate
p2907
asVbody
p2908
V<p>Stupid question ahead: I want an idiomatic way to find the first element in a list that matches a predicate.</p>\u000a\u000a<p>The current code is quite ugly:</p>\u000a\u000a<pre><code>[x for x in seq if predicate(x)][0]\u000a</code></pre>\u000a\u000a<p>I've thought about changing it to:</p>\u000a\u000a<pre><code>from itertools import dropwhile\u000adropwhile(lambda x: not predicate(x), seq).next()\u000a</code></pre>\u000a\u000a<p>But there must be something more elegant... And it would be nice if it returns a <code>None</code> value rather than raise an exception if no match is found.</p>\u000a\u000a<p>I know I could just define a function like:</p>\u000a\u000a<pre><code>def get_first(predicate, seq):\u000a    for i in seq:\u000a        if predicate(i): return i\u000a    return None\u000a</code></pre>\u000a\u000a<p>But it is quite tasteless to start filling the code with utility functions like this (and people will probably not notice that they are already there, so they tend to be repeated over time) if there are built ins that already provide the same.</p>\u000a
p2909
sVlast_activity_date
p2910
I1434126785
sVaccepted_answer_id
p2911
I8534381
sVcreation_date
p2912
I1324039006
sVscore
p2913
I91
sVlink
p2914
Vhttp://stackoverflow.com/questions/8534256/find-first-element-in-a-sequence-that-matches-a-predicate
p2915
sVanswer_count
p2916
I4
sVowner
p2917
(dp2918
Vuser_id
p2919
I106979
sVprofile_image
p2920
Vhttps://i.stack.imgur.com/XUWge.gif?s=128&g=1
p2921
sVuser_type
p2922
Vregistered
p2923
sVreputation
p2924
I42397
sVlink
p2925
Vhttp://stackoverflow.com/users/106979/fortran
p2926
sVaccept_rate
p2927
I83
sVdisplay_name
p2928
Vfortran
p2929
ssVtitle
p2930
Vfind first element in a sequence that matches a predicate
p2931
sVlast_edit_date
p2932
I1413693719
sVquestion_id
p2933
I8534256
sa(dp2934
Vbody
p2935
V<p>I am installing Python 2.7 on CentOS 5. I built and installed Python as follows</p>\u000a\u000a<pre><code>./configure --enable-shared --prefix=/usr/local\u000amake\u000amake install\u000a</code></pre>\u000a\u000a<p>When I try to run /usr/local/bin/python, I get this error message</p>\u000a\u000a<pre><code>/usr/local/bin/python: error while loading shared libraries: libpython2.7.so.1.0: cannot open shared object file: No such file or directory\u000a</code></pre>\u000a\u000a<p>When I run ldd on /usr/local/bin/python, I get</p>\u000a\u000a<pre><code>ldd /usr/local/bin/python\u000a    libpython2.7.so.1.0 =&gt; not found\u000a    libpthread.so.0 =&gt; /lib64/libpthread.so.0 (0x00000030e9a00000)\u000a    libdl.so.2 =&gt; /lib64/libdl.so.2 (0x00000030e9200000)\u000a    libutil.so.1 =&gt; /lib64/libutil.so.1 (0x00000030fa200000)\u000a    libm.so.6 =&gt; /lib64/libm.so.6 (0x00000030e9600000)\u000a    libc.so.6 =&gt; /lib64/libc.so.6 (0x00000030e8e00000)\u000a    /lib64/ld-linux-x86-64.so.2 (0x00000030e8a00000)\u000a</code></pre>\u000a\u000a<p>How do I tell Python where to find libpython?</p>\u000a
p2936
sVis_answered
p2937
I01
sVview_count
p2938
I122667
sVtags
p2939
(lp2940
Vpython
p2941
asVlast_activity_date
p2942
I1474988518
sVanswer_count
p2943
I5
sVcreation_date
p2944
I1319482716
sVscore
p2945
I91
sVlink
p2946
Vhttp://stackoverflow.com/questions/7880454/python-executable-not-finding-libpython-shared-library
p2947
sVaccepted_answer_id
p2948
I7880519
sVowner
p2949
(dp2950
Vuser_id
p2951
I272096
sVprofile_image
p2952
Vhttps://www.gravatar.com/avatar/984504817acc98f3c493bb60622c3d67?s=128&d=identicon&r=PG
p2953
sVuser_type
p2954
Vregistered
p2955
sVreputation
p2956
I821
sVlink
p2957
Vhttp://stackoverflow.com/users/272096/sans
p2958
sVaccept_rate
p2959
I100
sVdisplay_name
p2960
Vsans
p2961
ssVtitle
p2962
VPython executable not finding libpython shared library
p2963
sVlast_edit_date
p2964
I1319483183
sVquestion_id
p2965
I7880454
sa(dp2966
Vbody
p2967
V<p>Let's say I have a list <code>a</code> in Python whose entries conveniently map to a dictionary. Each even element represents the key to the dictionary, and the following odd element is the value</p>\u000a\u000a<p>for example,</p>\u000a\u000a<pre><code>a = ['hello','world','1','2']\u000a</code></pre>\u000a\u000a<p>and I'd like to convert it to a dictionary <code>b</code>, where </p>\u000a\u000a<pre><code>b['hello'] = 'world'\u000ab['1'] = '2'\u000a</code></pre>\u000a\u000a<p>What is the syntactically cleanest way to accomplish this?</p>\u000a
p2968
sVis_answered
p2969
I01
sVview_count
p2970
I200546
sVtags
p2971
(lp2972
Vpython
p2973
aVlist
p2974
aVdictionary
p2975
asVlast_activity_date
p2976
I1492722663
sVanswer_count
p2977
I11
sVcreation_date
p2978
I1293920940
sVscore
p2979
I91
sVlink
p2980
Vhttp://stackoverflow.com/questions/4576115/convert-a-list-to-a-dictionary-in-python
p2981
sVaccepted_answer_id
p2982
I4576128
sVowner
p2983
(dp2984
Vuser_id
p2985
I357024
sVprofile_image
p2986
Vhttps://www.gravatar.com/avatar/ddd1030da4440ea2f69d6421e538191c?s=128&d=identicon&r=PG&f=1
p2987
sVuser_type
p2988
Vregistered
p2989
sVreputation
p2990
I17353
sVlink
p2991
Vhttp://stackoverflow.com/users/357024/mike
p2992
sVaccept_rate
p2993
I91
sVdisplay_name
p2994
VMike
p2995
ssVtitle
p2996
VConvert a list to a dictionary in Python
p2997
sVlast_edit_date
p2998
I1461767116
sVquestion_id
p2999
I4576115
sa(dp3000
Vbody
p3001
V<p>How could I get the version defined in <code>setup.py</code> from my package (for <code>--version</code>, or other purposes)?</p>\u000a
p3002
sVis_answered
p3003
I01
sVview_count
p3004
I33069
sVtags
p3005
(lp3006
Vpython
p3007
aVsetuptools
p3008
asVlast_activity_date
p3009
I1488388730
sVanswer_count
p3010
I10
sVcreation_date
p3011
I1263403489
sVscore
p3012
I91
sVlink
p3013
Vhttp://stackoverflow.com/questions/2058802/how-can-i-get-the-version-defined-in-setup-py-setuptools-in-my-package
p3014
sVaccepted_answer_id
p3015
I2073599
sVowner
p3016
(dp3017
Vuser_id
p3018
I1277510
sVprofile_image
p3019
Vhttps://www.gravatar.com/avatar/8473546b3dd0a3488911a2590dea6103?s=128&d=identicon&r=PG
p3020
sVuser_type
p3021
Vregistered
p3022
sVreputation
p3023
I11519
sVlink
p3024
Vhttp://stackoverflow.com/users/1277510/elmarco
p3025
sVaccept_rate
p3026
I88
sVdisplay_name
p3027
Velmarco
p3028
ssVtitle
p3029
VHow can I get the version defined in setup.py (setuptools) in my package?
p3030
sVlast_edit_date
p3031
I1487619610
sVquestion_id
p3032
I2058802
sa(dp3033
Vbody
p3034
V<p>This code works and sends me an email just fine:  </p>\u000a\u000a<pre><code>import smtplib\u000a#SERVER = "localhost"\u000a\u000aFROM = 'monty@python.com'\u000a\u000aTO = ["jon@mycompany.com"] # must be a list\u000a\u000aSUBJECT = "Hello!"\u000a\u000aTEXT = "This message was sent with Python's smtplib."\u000a\u000a# Prepare actual message\u000a\u000amessage = """\u005c\u000aFrom: %s\u000aTo: %s\u000aSubject: %s\u000a\u000a%s\u000a""" % (FROM, ", ".join(TO), SUBJECT, TEXT)\u000a\u000a# Send the mail\u000a\u000aserver = smtplib.SMTP('myserver')\u000aserver.sendmail(FROM, TO, message)\u000aserver.quit()\u000a</code></pre>\u000a\u000a<p>However if I try to wrap it in a function like this:</p>\u000a\u000a<pre><code>def sendMail(FROM,TO,SUBJECT,TEXT,SERVER):\u000a    import smtplib\u000a    """this is some test documentation in the function"""\u000a    message = """\u005c\u000a        From: %s\u000a        To: %s\u000a        Subject: %s\u000a        %s\u000a        """ % (FROM, ", ".join(TO), SUBJECT, TEXT)\u000a    # Send the mail\u000a    server = smtplib.SMTP(SERVER)\u000a    server.sendmail(FROM, TO, message)\u000a    server.quit()\u000a</code></pre>\u000a\u000a<p>and call it I get the following errors:  </p>\u000a\u000a<pre><code> Traceback (most recent call last):\u000a  File "C:/Python31/mailtest1.py", line 8, in &lt;module&gt;\u000a    sendmail.sendMail(sender,recipients,subject,body,server)\u000a  File "C:/Python31\u005csendmail.py", line 13, in sendMail\u000a    server.sendmail(FROM, TO, message)\u000a  File "C:\u005cPython31\u005clib\u005csmtplib.py", line 720, in sendmail\u000a    self.rset()\u000a  File "C:\u005cPython31\u005clib\u005csmtplib.py", line 444, in rset\u000a    return self.docmd("rset")\u000a  File "C:\u005cPython31\u005clib\u005csmtplib.py", line 368, in docmd\u000a    return self.getreply()\u000a  File "C:\u005cPython31\u005clib\u005csmtplib.py", line 345, in getreply\u000a    raise SMTPServerDisconnected("Connection unexpectedly closed")\u000asmtplib.SMTPServerDisconnected: Connection unexpectedly closed\u000a</code></pre>\u000a\u000a<p>Can anyone help me understand why?  </p>\u000a
p3035
sVis_answered
p3036
I01
sVview_count
p3037
I165381
sVtags
p3038
(lp3039
Vpython
p3040
aVemail
p3041
aVfunction
p3042
aVsmtplib
p3043
asVlast_activity_date
p3044
I1465600228
sVanswer_count
p3045
I9
sVcreation_date
p3046
I1307476085
sVscore
p3047
I91
sVlink
p3048
Vhttp://stackoverflow.com/questions/6270782/how-to-send-an-email-with-python
p3049
sVaccepted_answer_id
p3050
I6270987
sVowner
p3051
(dp3052
Vuser_id
p3053
I556158
sVprofile_image
p3054
Vhttps://www.gravatar.com/avatar/1f72dd0fe6fad58b1a706964386e9adf?s=128&d=identicon&r=PG
p3055
sVuser_type
p3056
Vregistered
p3057
sVreputation
p3058
I561
sVlink
p3059
Vhttp://stackoverflow.com/users/556158/cloud311
p3060
sVaccept_rate
p3061
I80
sVdisplay_name
p3062
Vcloud311
p3063
ssVtitle
p3064
VHow to send an email with Python?
p3065
sVlast_edit_date
p3066
I1450786031
sVquestion_id
p3067
I6270782
sa(dp3068
Vbody
p3069
V<p>Simple example. Two methods, one called from another:</p>\u000a\u000a<pre><code>def method_a(arg):\u000a    some_data = method_b(arg)\u000a\u000adef method_b(arg):\u000a    return some_data\u000a</code></pre>\u000a\u000a<p>In Python we can declare <code>def</code> inside another <code>def</code>.  So, if <code>method_b</code> is required for and called only from <code>method_a</code>, should I declare <code>method_b</code> inside <code>method_a</code>? like this :</p>\u000a\u000a<pre><code>def method_a(arg):\u000a\u000a    def method_b(arg):\u000a        return some_data\u000a\u000a    some_data = method_b\u000a</code></pre>\u000a\u000a<p>Or should I avoid doing this?</p>\u000a
p3070
sVis_answered
p3071
I01
sVview_count
p3072
I173741
sVtags
p3073
(lp3074
Vpython
p3075
aVcoding-style
p3076
asVlast_activity_date
p3077
I1484357241
sVanswer_count
p3078
I10
sVcreation_date
p3079
I1296238990
sVscore
p3080
I91
sVlink
p3081
Vhttp://stackoverflow.com/questions/4831680/if-function-a-is-required-only-by-function-b-should-a-be-defined-inside-b
p3082
sVowner
p3083
(dp3084
Vuser_id
p3085
I277262
sVprofile_image
p3086
Vhttps://www.gravatar.com/avatar/ae51836730aa5aacc1f587f26ed0a162?s=128&d=identicon&r=PG
p3087
sVuser_type
p3088
Vregistered
p3089
sVreputation
p3090
I2372
sVlink
p3091
Vhttp://stackoverflow.com/users/277262/nukl
p3092
sVaccept_rate
p3093
I62
sVdisplay_name
p3094
Vnukl
p3095
ssVtitle
p3096
VIf function A is required only by function B should A be defined inside B?
p3097
sVlast_edit_date
p3098
I1484357241
sVquestion_id
p3099
I4831680
sa(dp3100
Vbody
p3101
V<p>In python pandas, what's the best way to check whether a DataFrame has one (or more) NaN values?</p>\u000a\u000a<p>I know about the function <code>pd.isnan</code>, but this returns a DataFrame of booleans for each element. <a href="http://stackoverflow.com/questions/27754891/python-nan-value-in-pandas">This post</a> right here doesn't exactly answer my question either.</p>\u000a
p3102
sVis_answered
p3103
I01
sVview_count
p3104
I101590
sVtags
p3105
(lp3106
Vpython
p3107
aVpandas
p3108
aVnan
p3109
asVlast_activity_date
p3110
I1493993844
sVanswer_count
p3111
I7
sVcreation_date
p3112
I1428556179
sVscore
p3113
I91
sVlink
p3114
Vhttp://stackoverflow.com/questions/29530232/python-pandas-check-if-any-value-is-nan-in-dataframe
p3115
sVaccepted_answer_id
p3116
I29530601
sVowner
p3117
(dp3118
Vuser_id
p3119
I2014591
sVprofile_image
p3120
Vhttps://www.gravatar.com/avatar/7d6cff955bb3f1865a419650bfe1372c?s=128&d=identicon&r=PG
p3121
sVuser_type
p3122
Vregistered
p3123
sVreputation
p3124
I2189
sVlink
p3125
Vhttp://stackoverflow.com/users/2014591/hlin117
p3126
sVaccept_rate
p3127
I74
sVdisplay_name
p3128
Vhlin117
p3129
ssVtitle
p3130
VPython pandas: check if any value is NaN in DataFrame
p3131
sVquestion_id
p3132
I29530232
sa(dp3133
Vbody
p3134
V<p>Is there a <code>goto</code> or any equivalent in Python to be able to jump to a specific line of code?</p>\u000a
p3135
sVis_answered
p3136
I01
sVview_count
p3137
I170681
sVtags
p3138
(lp3139
Vpython
p3140
aVgoto
p3141
asVlast_activity_date
p3142
I1484930403
sVanswer_count
p3143
I12
sVcreation_date
p3144
I1231851203
sVscore
p3145
I91
sVlink
p3146
Vhttp://stackoverflow.com/questions/438844/is-there-a-label-goto-in-python
p3147
sVowner
p3148
(dp3149
Vuser_id
p3150
I46646
sVprofile_image
p3151
Vhttps://www.gravatar.com/avatar/a1e278de9bdbf3ecd96d0d786fa97392?s=128&d=identicon&r=PG
p3152
sVuser_type
p3153
Vregistered
p3154
sVreputation
p3155
I32463
sVlink
p3156
Vhttp://stackoverflow.com/users/46646/user46646
p3157
sVaccept_rate
p3158
I33
sVdisplay_name
p3159
Vuser46646
p3160
ssVtitle
p3161
VIs there a label/goto in Python?
p3162
sVlast_edit_date
p3163
I1348374584
sVquestion_id
p3164
I438844
sa(dp3165
Vbody
p3166
V<p>Let's say that we have the following model:</p>\u000a\u000a<pre><code>class Classroom(models.Model):\u000a    room_number = [....]\u000a\u000aclass Teacher(models.Model):\u000a    name = [...]\u000a    tenure = [...]\u000a    classroom = models.ForeignKey(Classroom)\u000a</code></pre>\u000a\u000a<p>Let's say that instead of getting a result like this per the ManyRelatedPrimaryKeyField function:</p>\u000a\u000a<pre><code>{\u000a    "room_number": "42", \u000a    "teachers": [\u000a        27, \u000a        24, \u000a        7\u000a    ]\u000a},\u000a</code></pre>\u000a\u000a<p>have it return something that includes the full related model representation like: </p>\u000a\u000a<pre><code>{\u000a    "room_number": "42", \u000a    "teachers": [\u000a        {\u000a           'id':'27,\u000a           'name':'John',\u000a           'tenure':True\u000a        }, \u000a        {\u000a           'id':'24,\u000a           'name':'Sally',\u000a           'tenure':False\u000a        }, \u000a    ]\u000a},\u000a</code></pre>\u000a\u000a<p>Is this possible? If so, how? And is this a bad idea?</p>\u000a
p3167
sVis_answered
p3168
I01
sVview_count
p3169
I30151
sVtags
p3170
(lp3171
Vpython
p3172
aVdjango
p3173
aVdjango-rest-framework
p3174
asVlast_activity_date
p3175
I1485364986
sVanswer_count
p3176
I2
sVcreation_date
p3177
I1359415339
sVscore
p3178
I91
sVlink
p3179
Vhttp://stackoverflow.com/questions/14573102/how-do-i-include-related-model-fields-using-django-rest-framework
p3180
sVaccepted_answer_id
p3181
I14581826
sVowner
p3182
(dp3183
Vuser_id
p3184
I997040
sVprofile_image
p3185
Vhttps://www.gravatar.com/avatar/ed1960671105020dce2ffff5af572969?s=128&d=identicon&r=PG
p3186
sVuser_type
p3187
Vregistered
p3188
sVreputation
p3189
I712
sVlink
p3190
Vhttp://stackoverflow.com/users/997040/chaz
p3191
sVdisplay_name
p3192
VChaz
p3193
ssVtitle
p3194
VHow do I include related model fields using Django Rest Framework?
p3195
sVlast_edit_date
p3196
I1450512268
sVquestion_id
p3197
I14573102
sa(dp3198
Vbody
p3199
V<p>I am not sure whether this counts more as an OS issue, but I thought I would ask here in case anyone has some insight from the Python end of things.</p>\u000a\u000a<p>I've been trying to parallelise a CPU-heavy <code>for</code> loop using <code>joblib</code>, but I find that instead of each worker process being assigned to a different core, I end up with all of them being assigned to the same core and no performance gain.</p>\u000a\u000a<p>Here's a very trivial example...</p>\u000a\u000a<pre><code>from joblib import Parallel,delayed\u000aimport numpy as np\u000a\u000adef testfunc(data):\u000a    # some very boneheaded CPU work\u000a    for nn in xrange(1000):\u000a        for ii in data[0,:]:\u000a            for jj in data[1,:]:\u000a                ii*jj\u000a\u000adef run(niter=10):\u000a    data = (np.random.randn(2,100) for ii in xrange(niter))\u000a    pool = Parallel(n_jobs=-1,verbose=1,pre_dispatch='all')\u000a    results = pool(delayed(testfunc)(dd) for dd in data)\u000a\u000aif __name__ == '__main__':\u000a    run()\u000a</code></pre>\u000a\u000a<p>...and here's what I see in <code>htop</code> while this script is running:</p>\u000a\u000a<p><img src="https://i.stack.imgur.com/thg0Y.png" alt="htop"></p>\u000a\u000a<p>I'm running Ubuntu 12.10 (3.5.0-26) on a laptop with 4 cores. Clearly <code>joblib.Parallel</code> is spawning separate processes for the different workers, but is there any way that I can make these processes execute on different cores?</p>\u000a
p3200
sVis_answered
p3201
I01
sVview_count
p3202
I14505
sVtags
p3203
(lp3204
Vpython
p3205
aVlinux
p3206
aVnumpy
p3207
aVmultiprocessing
p3208
aVblas
p3209
asVlast_activity_date
p3210
I1436723787
sVanswer_count
p3211
I3
sVcreation_date
p3212
I1364308654
sVscore
p3213
I91
sVlink
p3214
Vhttp://stackoverflow.com/questions/15639779/why-does-multiprocessing-use-only-a-single-core-after-i-import-numpy
p3215
sVaccepted_answer_id
p3216
I15641148
sVowner
p3217
(dp3218
Vuser_id
p3219
I1461210
sVprofile_image
p3220
Vhttps://www.gravatar.com/avatar/fa93b9461ed24899945403cae69e02ee?s=128&d=identicon&r=PG
p3221
sVuser_type
p3222
Vregistered
p3223
sVreputation
p3224
I32047
sVlink
p3225
Vhttp://stackoverflow.com/users/1461210/ali-m
p3226
sVaccept_rate
p3227
I82
sVdisplay_name
p3228
Vali_m
p3229
ssVtitle
p3230
VWhy does multiprocessing use only a single core after I import numpy?
p3231
sVlast_edit_date
p3232
I1429192461
sVquestion_id
p3233
I15639779
sa(dp3234
Vbody
p3235
V<p>I am getting TransactionManagementError when trying to save a Django User model instance and in its post_save signal, I'm saving some models that have the user as the foreign key. </p>\u000a\u000a<p>The context and error is pretty similar to this question\u000a<a href="http://stackoverflow.com/questions/20130507/django-transactionmanagementerror-when-using-signals">django TransactionManagementError when using signals</a></p>\u000a\u000a<p>However, in this case, the error occurs <strong>only while unit testing</strong>.</p>\u000a\u000a<p>It works well in manual testing, but unit tests fails.</p>\u000a\u000a<p>Is there anything that I'm missing?</p>\u000a\u000a<p><strong>Here are the code snippets:</strong></p>\u000a\u000a<p>views.py</p>\u000a\u000a<pre><code>@csrf_exempt\u000adef mobileRegister(request):\u000a    if request.method == 'GET':\u000a        response = {"error": "GET request not accepted!!"}\u000a        return HttpResponse(json.dumps(response), content_type="application/json",status=500)\u000a    elif request.method == 'POST':\u000a        postdata = json.loads(request.body)\u000a        try:\u000a            # Get POST data which is to be used to save the user\u000a            username = postdata.get('phone')\u000a            password = postdata.get('password')\u000a            email = postdata.get('email',"")\u000a            first_name = postdata.get('first_name',"")\u000a            last_name = postdata.get('last_name',"")\u000a            user = User(username=username, email=email,\u000a                        first_name=first_name, last_name=last_name)\u000a            user._company = postdata.get('company',None)\u000a            user._country_code = postdata.get('country_code',"+91")\u000a            user.is_verified=True\u000a            user._gcm_reg_id = postdata.get('reg_id',None)\u000a            user._gcm_device_id = postdata.get('device_id',None)\u000a            # Set Password for the user\u000a            user.set_password(password)\u000a            # Save the user\u000a            user.save()\u000a</code></pre>\u000a\u000a<p>signal.py</p>\u000a\u000a<pre><code>def create_user_profile(sender, instance, created, **kwargs):\u000a    if created:\u000a        company = None\u000a        companycontact = None\u000a        try:   # Try to make userprofile with company and country code provided\u000a            user = User.objects.get(id=instance.id)\u000a            rand_pass = random.randint(1000, 9999)\u000a            company = Company.objects.get_or_create(name=instance._company,user=user)\u000a            companycontact = CompanyContact.objects.get_or_create(contact_type="Owner",company=company,contact_number=instance.username)\u000a            profile = UserProfile.objects.get_or_create(user=instance,phone=instance.username,verification_code=rand_pass,company=company,country_code=instance._country_code)\u000a            gcmDevice = GCMDevice.objects.create(registration_id=instance._gcm_reg_id,device_id=instance._gcm_reg_id,user=instance)\u000a        except Exception, e:\u000a            pass\u000a</code></pre>\u000a\u000a<p>tests.py</p>\u000a\u000a<pre><code>class AuthTestCase(TestCase):\u000a    fixtures = ['nextgencatalogs/fixtures.json']\u000a    def setUp(self):\u000a        self.user_data={\u000a            "phone":"0000000000",\u000a            "password":"123",\u000a            "first_name":"Gaurav",\u000a            "last_name":"Toshniwal"\u000a            }\u000a\u000a    def test_registration_api_get(self):\u000a        response = self.client.get("/mobileRegister/")\u000a        self.assertEqual(response.status_code,500)\u000a\u000a    def test_registration_api_post(self):\u000a        response = self.client.post(path="/mobileRegister/",\u000a                                    data=json.dumps(self.user_data),\u000a                                    content_type="application/json")\u000a        self.assertEqual(response.status_code,201)\u000a        self.user_data['username']=self.user_data['phone']\u000a        user = User.objects.get(username=self.user_data['username'])\u000a        # Check if the company was created\u000a        company = Company.objects.get(user__username=self.user_data['phone'])\u000a        self.assertIsInstance(company,Company)\u000a        # Check if the owner's contact is the same as the user's phone number\u000a        company_contact = CompanyContact.objects.get(company=company,contact_type="owner")\u000a        self.assertEqual(user.username,company_contact[0].contact_number)\u000a</code></pre>\u000a\u000a<p>Traceback:</p>\u000a\u000a<pre><code>======================================================================\u000aERROR: test_registration_api_post (nextgencatalogs.apps.catalogsapp.tests.AuthTestCase)\u000a----------------------------------------------------------------------\u000aTraceback (most recent call last):\u000a  File "/Users/gauravtoshniwal1989/Developer/Web/Server/ngc/nextgencatalogs/apps/catalogsapp/tests.py", line 29, in test_registration_api_post\u000a    user = User.objects.get(username=self.user_data['username'])\u000a  File "/Users/gauravtoshniwal1989/Developer/Web/Server/ngc/ngcvenv/lib/python2.7/site-packages/django/db/models/manager.py", line 151, in get\u000a    return self.get_queryset().get(*args, **kwargs)\u000a  File "/Users/gauravtoshniwal1989/Developer/Web/Server/ngc/ngcvenv/lib/python2.7/site-packages/django/db/models/query.py", line 301, in get\u000a    num = len(clone)\u000a  File "/Users/gauravtoshniwal1989/Developer/Web/Server/ngc/ngcvenv/lib/python2.7/site-packages/django/db/models/query.py", line 77, in __len__\u000a    self._fetch_all()\u000a  File "/Users/gauravtoshniwal1989/Developer/Web/Server/ngc/ngcvenv/lib/python2.7/site-packages/django/db/models/query.py", line 854, in _fetch_all\u000a    self._result_cache = list(self.iterator())\u000a  File "/Users/gauravtoshniwal1989/Developer/Web/Server/ngc/ngcvenv/lib/python2.7/site-packages/django/db/models/query.py", line 220, in iterator\u000a    for row in compiler.results_iter():\u000a  File "/Users/gauravtoshniwal1989/Developer/Web/Server/ngc/ngcvenv/lib/python2.7/site-packages/django/db/models/sql/compiler.py", line 710, in results_iter\u000a    for rows in self.execute_sql(MULTI):\u000a  File "/Users/gauravtoshniwal1989/Developer/Web/Server/ngc/ngcvenv/lib/python2.7/site-packages/django/db/models/sql/compiler.py", line 781, in execute_sql\u000a    cursor.execute(sql, params)\u000a  File "/Users/gauravtoshniwal1989/Developer/Web/Server/ngc/ngcvenv/lib/python2.7/site-packages/django/db/backends/util.py", line 47, in execute\u000a    self.db.validate_no_broken_transaction()\u000a  File "/Users/gauravtoshniwal1989/Developer/Web/Server/ngc/ngcvenv/lib/python2.7/site-packages/django/db/backends/__init__.py", line 365, in validate_no_broken_transaction\u000a    "An error occurred in the current transaction. You can't "\u000aTransactionManagementError: An error occurred in the current transaction. You can't execute queries until the end of the 'atomic' block.\u000a\u000a----------------------------------------------------------------------\u000a</code></pre>\u000a
p3236
sVis_answered
p3237
I01
sVview_count
p3238
I21731
sVtags
p3239
(lp3240
Vpython
p3241
aVdjango
p3242
aVunit-testing
p3243
aVdjango-signals
p3244
asVlast_activity_date
p3245
I1478086936
sVanswer_count
p3246
I4
sVcreation_date
p3247
I1391089946
sVscore
p3248
I91
sVlink
p3249
Vhttp://stackoverflow.com/questions/21458387/transactionmanagementerror-you-cant-execute-queries-until-the-end-of-the-atom
p3250
sVaccepted_answer_id
p3251
I23326971
sVowner
p3252
(dp3253
Vuser_id
p3254
I365374
sVprofile_image
p3255
Vhttps://www.gravatar.com/avatar/e960b340da56966e529f8b70efcba9d2?s=128&d=identicon&r=PG
p3256
sVuser_type
p3257
Vregistered
p3258
sVreputation
p3259
I853
sVlink
p3260
Vhttp://stackoverflow.com/users/365374/gaurav-toshniwal
p3261
sVaccept_rate
p3262
I42
sVdisplay_name
p3263
VGaurav Toshniwal
p3264
ssVtitle
p3265
VTransactionManagementError &quot;You can&#39;t execute queries until the end of the &#39;atomic&#39; block&quot; while using signals, but only during Unit Testing
p3266
sVlast_edit_date
p3267
I1391090697
sVquestion_id
p3268
I21458387
sa(dp3269
Vbody
p3270
V<p>I'm writing a django application in my spare time for a footy-tipping competition we're running at work. I figured I'd use this time wisely, and get up to speed on virtualenv, pip, packaging, django 1.3, and how to write an easily redistributable application. So far, so good.</p>\u000a\u000a<p>I'm up to the packaging part. A lot of the django apps on GitHub for instance are mostly bundled (roughly) the same way. I'll use <a href="https://github.com/pydanny/django-uni-form" rel="noreferrer">django-uni-forms</a> as an example.</p>\u000a\u000a<p>An assumption I'm making is that the <code>MANIFEST.in</code> and <code>setup.py</code> are the only required pieces that pip needs to do its job. Is that correct? What other components are necessary if my assumption is wrong?</p>\u000a\u000a<p>Are the required packaging files generally generated, or are they crafted by hand? Can dependencies be described and then installed also? My application depends on <code>django-uni-forms</code>, and I have it listed in a <code>requirements.txt</code> file within my app which I used to install the dependency; but is that something that the packaging system can take care of?</p>\u000a\u000a<p>What are the steps I need to follow to package my application in such a way that pip will be able to install it and any dependencies?</p>\u000a
p3271
sVis_answered
p3272
I01
sVview_count
p3273
I34274
sVtags
p3274
(lp3275
Vpython
p3276
aVdjango
p3277
aVdependencies
p3278
aVpip
p3279
asVlast_activity_date
p3280
I1453405728
sVanswer_count
p3281
I1
sVcreation_date
p3282
I1300521233
sVscore
p3283
I91
sVlink
p3284
Vhttp://stackoverflow.com/questions/5360873/how-do-i-package-a-python-application-to-make-it-pip-installable
p3285
sVaccepted_answer_id
p3286
I5364844
sVowner
p3287
(dp3288
Vuser_id
p3289
I10583
sVprofile_image
p3290
Vhttps://www.gravatar.com/avatar/3891f38e5165127cac92a4e9e4aba688?s=128&d=identicon&r=PG
p3291
sVuser_type
p3292
Vregistered
p3293
sVreputation
p3294
I26458
sVlink
p3295
Vhttp://stackoverflow.com/users/10583/josh-smeaton
p3296
sVaccept_rate
p3297
I88
sVdisplay_name
p3298
VJosh Smeaton
p3299
ssVtitle
p3300
VHow do I package a python application to make it pip-installable?
p3301
sVquestion_id
p3302
I5360873
sa(dp3303
Vbody
p3304
V<p>I have a <code>dataframe</code> with over 200 columns (don't ask why). The issue is as they were generated the order is</p>\u000a\u000a<pre><code>['Q1.3','Q6.1','Q1.2','Q1.1',......]\u000a</code></pre>\u000a\u000a<p>I need to re-order the columns as follows:</p>\u000a\u000a<pre><code>['Q1.1','Q1.2','Q1.3',.....'Q6.1',......]\u000a</code></pre>\u000a\u000a<p>Is there some way for me to do this within python?</p>\u000a
p3305
sVis_answered
p3306
I01
sVview_count
p3307
I63574
sVtags
p3308
(lp3309
Vpython
p3310
aVpandas
p3311
aVorder
p3312
asVlast_activity_date
p3313
I1490889605
sVanswer_count
p3314
I10
sVcreation_date
p3315
I1339880701
sVscore
p3316
I90
sVlink
p3317
Vhttp://stackoverflow.com/questions/11067027/python-pandas-re-ordering-columns-in-a-dataframe-based-on-column-name
p3318
sVaccepted_answer_id
p3319
I11067072
sVowner
p3320
(dp3321
Vuser_id
p3322
I1419123
sVprofile_image
p3323
Vhttps://www.gravatar.com/avatar/25cb9f9003f69639a4e3054d9aa84b3a?s=128&d=identicon&r=PG
p3324
sVuser_type
p3325
Vregistered
p3326
sVreputation
p3327
I906
sVlink
p3328
Vhttp://stackoverflow.com/users/1419123/pythonometrist
p3329
sVaccept_rate
p3330
I88
sVdisplay_name
p3331
VpythOnometrist
p3332
ssVtitle
p3333
VPython Pandas - Re-ordering columns in a dataframe based on column name
p3334
sVlast_edit_date
p3335
I1483572141
sVquestion_id
p3336
I11067027
sa(dp3337
Vbody
p3338
V<p>I have a script which reads a text file, pulls decimal numbers out of it as strings and places them into a list.</p>\u000a\u000a<p>So I have this list: <code>['0.49', '0.54', '0.54', '0.54', '0.54', '0.54', '0.55', '0.54', '0.54', '0.54', '0.55', '0.55', '0.55', '0.54', '0.55', '0.55', '0.54', '0.55', '0.55', '0.54']</code></p>\u000a\u000a<p>How do I convert each of the values in the list from a string to a float?</p>\u000a\u000a<p>I have tried:</p>\u000a\u000a<pre><code>for item in list:\u000a    float(item)\u000a</code></pre>\u000a\u000a<p>But this doesn't seem to work for me.</p>\u000a
p3339
sVis_answered
p3340
I01
sVview_count
p3341
I188917
sVtags
p3342
(lp3343
Vpython
p3344
asVlast_activity_date
p3345
I1488937138
sVanswer_count
p3346
I4
sVcreation_date
p3347
I1256311980
sVscore
p3348
I90
sVlink
p3349
Vhttp://stackoverflow.com/questions/1614236/in-python-how-do-i-convert-all-of-the-items-in-a-list-to-floats
p3350
sVaccepted_answer_id
p3351
I1614247
sVowner
p3352
(dp3353
Vdisplay_name
p3354
Vsnk
p3355
sVuser_type
p3356
Vdoes_not_exist
p3357
ssVtitle
p3358
VIn Python, how do I convert all of the items in a list to floats?
p3359
sVlast_edit_date
p3360
I1478782869
sVquestion_id
p3361
I1614236
sasVquota_max
p3362
I300
sVquota_remaining
p3363
I218
s.