(dp0
Vhas_more
p1
I01
sVitems
p2
(lp3
(dp4
Vclosed_date
p5
I1460550946
sVis_answered
p6
I01
sVclosed_reason
p7
Vduplicate
p8
sVview_count
p9
I80094
sVtags
p10
(lp11
Vpython
p12
asVbody
p13
V<p>I'm new to Python and I have a simple question, say I have a list of items:</p>\u000a\u000a<pre><code>['apple','red','apple','red','red','pear']\u000a</code></pre>\u000a\u000a<p>Whats the simpliest way to add the list items to a dictionary and count how many times the item appears in the list.</p>\u000a\u000a<p>So for the list above I would like the output to be:</p>\u000a\u000a<pre><code>{'apple': 2, 'red': 3, 'pear': 1}\u000a</code></pre>\u000a
p14
sVlast_activity_date
p15
I1459254297
sVanswer_count
p16
I8
sVcreation_date
p17
I1281986376
sVscore
p18
I77
sVlink
p19
Vhttp://stackoverflow.com/questions/3496518/python-using-a-dictionary-to-count-the-items-in-a-list
p20
sVowner
p21
(dp22
Vuser_id
p23
I422082
sVprofile_image
p24
Vhttps://www.gravatar.com/avatar/ce49626bea8d1e4949e87cacce662153?s=128&d=identicon&r=PG
p25
sVuser_type
p26
Vunregistered
p27
sVreputation
p28
I386
sVlink
p29
Vhttp://stackoverflow.com/users/422082/sophie
p30
sVdisplay_name
p31
VSophie
p32
ssVtitle
p33
VPython: Using a dictionary to count the items in a list
p34
sVlast_edit_date
p35
I1448415774
sVquestion_id
p36
I3496518
sa(dp37
Vbody
p38
V<p>From the <a href="http://docs.python.org/2/library/functions.html#open" rel="noreferrer">doc</a>, </p>\u000a\u000a<blockquote>\u000a  <p>Modes 'r+', 'w+' and 'a+' open the file for updating (note that 'w+' truncates the file). Append 'b' to the mode to open the file in binary mode, on systems that differentiate between binary and text files; on systems that don\u2019t have this distinction, adding the 'b' has no effect.</p>\u000a</blockquote>\u000a\u000a<p>and <a href="http://www.tutorialspoint.com/python/python_files_io.htm" rel="noreferrer">here</a></p>\u000a\u000a<blockquote>\u000a  <p>w+ :  Opens a file for both writing and reading. Overwrites the existing file if the file exists. If the file does not exist, creates a new file for reading and writing.</p>\u000a</blockquote>\u000a\u000a<p>But, how to read a file open with <code>w+</code>? </p>\u000a
p39
sVis_answered
p40
I01
sVview_count
p41
I87696
sVtags
p42
(lp43
Vpython
p44
aVfile
p45
aVio
p46
asVlast_activity_date
p47
I1469756525
sVanswer_count
p48
I6
sVcreation_date
p49
I1366872694
sVscore
p50
I77
sVlink
p51
Vhttp://stackoverflow.com/questions/16208206/confused-by-python-file-mode-w
p52
sVaccepted_answer_id
p53
I16208298
sVowner
p54
(dp55
Vuser_id
p56
I1297203
sVprofile_image
p57
Vhttps://www.gravatar.com/avatar/b213707b2fdedeacf904335b540f1e8f?s=128&d=identicon&r=PG
p58
sVuser_type
p59
Vregistered
p60
sVreputation
p61
I2825
sVlink
p62
Vhttp://stackoverflow.com/users/1297203/holys
p63
sVaccept_rate
p64
I46
sVdisplay_name
p65
Vholys
p66
ssVtitle
p67
VConfused by python file mode &quot;w+&quot;
p68
sVquestion_id
p69
I16208206
sa(dp70
Vbody
p71
V<p>There has to be an easier way to do this. I have objects that want to be refreshed every so often, so I want to record when they were created, check against the current timestamp, and refresh as necessary. </p>\u000a\u000a<p>datetime.datetime has proven to be difficult, and I don't want to dive into the ctime library. Is there anything easier for this sort of thing? </p>\u000a
p72
sVis_answered
p73
I01
sVview_count
p74
I70078
sVtags
p75
(lp76
Vpython
p77
aVtime
p78
aVdatediff
p79
asVlast_activity_date
p80
I1386968092
sVanswer_count
p81
I4
sVcreation_date
p82
I1291598923
sVscore
p83
I77
sVlink
p84
Vhttp://stackoverflow.com/questions/4362491/how-do-i-check-the-difference-in-seconds-between-two-dates
p85
sVaccepted_answer_id
p86
I17191361
sVowner
p87
(dp88
Vuser_id
p89
I265629
sVprofile_image
p90
Vhttps://www.gravatar.com/avatar/0d7ec20e0051d2428e8e2069059d9846?s=128&d=identicon&r=PG
p91
sVuser_type
p92
Vregistered
p93
sVreputation
p94
I7802
sVlink
p95
Vhttp://stackoverflow.com/users/265629/alex
p96
sVaccept_rate
p97
I97
sVdisplay_name
p98
VAlex 
p99
ssVtitle
p100
VHow do I check the difference, in seconds, between two dates?
p101
sVlast_edit_date
p102
I1372104106
sVquestion_id
p103
I4362491
sa(dp104
Vbody
p105
V<p>How do I save a trained <strong>Naive Bayes classifier</strong> to <strong>disk</strong> and use it to <strong>predict</strong> data?</p>\u000a\u000a<p>I have the following sample program from the scikit-learn website:</p>\u000a\u000a<pre><code>from sklearn import datasets\u000airis = datasets.load_iris()\u000afrom sklearn.naive_bayes import GaussianNB\u000agnb = GaussianNB()\u000ay_pred = gnb.fit(iris.data, iris.target).predict(iris.data)\u000aprint "Number of mislabeled points : %d" % (iris.target != y_pred).sum()\u000a</code></pre>\u000a
p106
sVis_answered
p107
I01
sVview_count
p108
I36100
sVtags
p109
(lp110
Vpython
p111
aVmachine-learning
p112
aVscikit-learn
p113
aVclassification
p114
asVlast_activity_date
p115
I1479871803
sVanswer_count
p116
I4
sVcreation_date
p117
I1337040371
sVscore
p118
I77
sVlink
p119
Vhttp://stackoverflow.com/questions/10592605/save-classifier-to-disk-in-scikit-learn
p120
sVaccepted_answer_id
p121
I10593176
sVowner
p122
(dp123
Vuser_id
p124
I702937
sVprofile_image
p125
Vhttps://www.gravatar.com/avatar/22b62a59749991af35e023f4d02b0f55?s=128&d=identicon&r=PG
p126
sVuser_type
p127
Vregistered
p128
sVreputation
p129
I1482
sVlink
p130
Vhttp://stackoverflow.com/users/702937/garak
p131
sVaccept_rate
p132
I85
sVdisplay_name
p133
Vgarak
p134
ssVtitle
p135
VSave classifier to disk in scikit-learn
p136
sVlast_edit_date
p137
I1460391973
sVquestion_id
p138
I10592605
sa(dp139
Vbody
p140
V<p>I have been through search and tried various alternatives without success and spent several days on it now - driving me mad.</p>\u000a\u000a<p>Running on Red Hat Linux with Python 2.5.2\u000aBegan using most recent Virtualenv but could not activate it, I found somewhere suggesting needed earlier version so I have used Virtualenv 1.6.4 as that should work with Python 2.6.</p>\u000a\u000a<h2>It seems to install the virtual environment ok</h2>\u000a\u000a<pre><code>[necrailk@server6 ~]$ python virtualenv-1.6.4/virtualenv.py virtual\u000aNew python executable in virtual/bin/python\u000aInstalling setuptools............done.\u000aInstalling pip...............done.\u000a</code></pre>\u000a\u000a<h2>Environment looks ok</h2>\u000a\u000a<pre><code>[necrailk@server6 ~]$ cd virtual\u000a[necrailk@server6 ~/virtual]$ dir\u000abin  include  lib\u000a</code></pre>\u000a\u000a<h2>Trying to activate</h2>\u000a\u000a<pre><code>[necrailk@server6 ~/virtual]$ . bin/activate\u000a/bin/.: Permission denied.\u000a</code></pre>\u000a\u000a<h2>Checked chmod</h2>\u000a\u000a<pre><code>[necrailk@server6 ~/virtual]$ cd bin\u000a[necrailk@server6 bin]$ ls -l\u000atotal 3160\u000a-rw-r--r--    1 necrailk biz12        2130 Jan 30 11:38 activate\u000a-rw-r--r--    1 necrailk biz12        1050 Jan 30 11:38 activate.csh\u000a-rw-r--r--    1 necrailk biz12        2869 Jan 30 11:38 activate.fish\u000a-rw-r--r-\u000a</code></pre>\u000a\u000a<h2>Problem, so I changed it</h2>\u000a\u000a<pre><code>[necrailk@server6 bin]$ ls -l\u000atotal 3160\u000a-rwxr--r--    1 necrailk biz12        2130 Jan 30 11:38 activate\u000a-rw-r--r--    1 necrailk biz12        1050 Jan 30 11:38 activate.csh\u000a-rw-r--r--    1 necrailk biz12        2869 Jan 30 11:38 activate.fish\u000a-rw-r--r--    1 necrailk biz12        1005 Jan 30 11:38 activate_this.py\u000a-rwxr-xr-x    1 necrailk biz\u000a</code></pre>\u000a\u000a<h2>Try <code>activate</code> again</h2>\u000a\u000a<pre><code>[necrailk@server6 ~/virtual]$ . bin/activate\u000a/bin/.: Permission denied.\u000a</code></pre>\u000a\u000a<p>Still no joy...</p>\u000a
p141
sVis_answered
p142
I01
sVview_count
p143
I138462
sVtags
p144
(lp145
Vpython
p146
aVvirtualenv
p147
asVlast_activity_date
p148
I1490892079
sVanswer_count
p149
I9
sVcreation_date
p150
I1359550955
sVscore
p151
I77
sVlink
p152
Vhttp://stackoverflow.com/questions/14604699/how-to-activate-virtualenv
p153
sVowner
p154
(dp155
Vuser_id
p156
I2025073
sVprofile_image
p157
Vhttps://www.gravatar.com/avatar/f7ad8cd5e8e96ac31b266a97880e6b42?s=128&d=identicon&r=PG
p158
sVuser_type
p159
Vregistered
p160
sVreputation
p161
I389
sVlink
p162
Vhttp://stackoverflow.com/users/2025073/larry
p163
sVdisplay_name
p164
Vlarry
p165
ssVtitle
p166
VHow to activate virtualenv?
p167
sVlast_edit_date
p168
I1480807473
sVquestion_id
p169
I14604699
sa(dp170
Vbody
p171
V<p>I have a class like the following:</p>\u000a\u000a<pre><code>class User:\u000a    def __init__(self):\u000a        self.data = []\u000a        self.other_data = []\u000a\u000a    def doSomething(self, source):\u000a        // if source = 'other_data' how to access self.other_data\u000a</code></pre>\u000a\u000a<p>I want to pass a string for the source variable in <code>doSomething</code> and access the class member of the same name.</p>\u000a\u000a<p>I have tried <code>getattr</code> which only works on functions (from what I can tell) as well as having <code>User</code> extend <code>dict</code> and using <code>self.__getitem__</code>, but that doesn't work either. What is the best way to do this?</p>\u000a
p172
sVis_answered
p173
I01
sVview_count
p174
I41978
sVtags
p175
(lp176
Vpython
p177
aVsyntax
p178
asVlast_activity_date
p179
I1476072090
sVanswer_count
p180
I4
sVcreation_date
p181
I1248288734
sVscore
p182
I77
sVlink
p183
Vhttp://stackoverflow.com/questions/1167398/python-access-class-property-from-string
p184
sVaccepted_answer_id
p185
I1167419
sVowner
p186
(dp187
Vdisplay_name
p188
Vanon
p189
sVuser_type
p190
Vdoes_not_exist
p191
ssVtitle
p192
VPython: access class property from string
p193
sVlast_edit_date
p194
I1248295226
sVquestion_id
p195
I1167398
sa(dp196
Vbody
p197
V<p>I need a cross platform method of determining the MAC address of a computer at run time.  For windows the 'wmi' module can be used and the only method under Linux I could find was to run ifconfig and run a regex across its output.  I don't like using a package that only works on one OS, and parsing the output of another program doesn't seem very elegant not to mention error prone. </p>\u000a\u000a<p>Does anyone know a cross platform method (windows and linux) method to get the MAC address?    If not, does anyone know any more elegant methods then those I listed above?</p>\u000a
p198
sVis_answered
p199
I01
sVprotected_date
p200
I1390559813
sVview_count
p201
I76443
sVtags
p202
(lp203
Vpython
p204
aVwindows
p205
aVlinux
p206
aVnetworking
p207
asVlast_activity_date
p208
I1481381606
sVaccepted_answer_id
p209
I159195
sVcreation_date
p210
I1222887096
sVscore
p211
I77
sVlink
p212
Vhttp://stackoverflow.com/questions/159137/getting-mac-address
p213
sVanswer_count
p214
I12
sVowner
p215
(dp216
Vuser_id
p217
I9940
sVprofile_image
p218
Vhttps://www.gravatar.com/avatar/5e3705020a9aa98ef44c24a204b47841?s=128&d=identicon&r=PG
p219
sVuser_type
p220
Vregistered
p221
sVreputation
p222
I11957
sVlink
p223
Vhttp://stackoverflow.com/users/9940/mark-roddy
p224
sVaccept_rate
p225
I78
sVdisplay_name
p226
VMark Roddy
p227
ssVtitle
p228
VGetting MAC Address
p229
sVlast_edit_date
p230
I1222887286
sVquestion_id
p231
I159137
sa(dp232
Vbody
p233
V<p>I understand that Flask has the int, float and path converters, but the application we're developing has more complex patterns in its URLs.</p>\u000a\u000a<p>Is there a way we can use regular expressions, as in Django?</p>\u000a
p234
sVis_answered
p235
I01
sVview_count
p236
I21911
sVtags
p237
(lp238
Vpython
p239
aVregex
p240
aVflask
p241
asVlast_activity_date
p242
I1427047105
sVanswer_count
p243
I3
sVcreation_date
p244
I1304429282
sVscore
p245
I77
sVlink
p246
Vhttp://stackoverflow.com/questions/5870188/does-flask-support-regular-expressions-in-its-url-routing
p247
sVaccepted_answer_id
p248
I5872904
sVowner
p249
(dp250
Vuser_id
p251
I11324
sVprofile_image
p252
Vhttps://www.gravatar.com/avatar/dca5d128e87793d471460d1c3a46617b?s=128&d=identicon&r=PG
p253
sVuser_type
p254
Vregistered
p255
sVreputation
p256
I2219
sVlink
p257
Vhttp://stackoverflow.com/users/11324/alistair
p258
sVaccept_rate
p259
I79
sVdisplay_name
p260
VAlistair
p261
ssVtitle
p262
VDoes Flask support regular expressions in its URL routing?
p263
sVquestion_id
p264
I5870188
sa(dp265
Vbody
p266
V<p>I'm trying to write a simple Python script that will copy a index.tpl to index.html in all of the subdirectories (with a few exceptions). </p>\u000a\u000a<p>I'm getting bogged down by trying to get the list of subdirectories.</p>\u000a
p267
sVis_answered
p268
I01
sVview_count
p269
I74903
sVtags
p270
(lp271
Vpython
p272
aVfile
p273
asVlast_activity_date
p274
I1476995850
sVanswer_count
p275
I9
sVcreation_date
p276
I1240959551
sVscore
p277
I77
sVlink
p278
Vhttp://stackoverflow.com/questions/800197/how-to-get-all-of-the-immediate-subdirectories-in-python
p279
sVaccepted_answer_id
p280
I800201
sVowner
p281
(dp282
Vuser_id
p283
I10393
sVprofile_image
p284
Vhttps://www.gravatar.com/avatar/179dd478f871d63cba9b6427eee28113?s=128&d=identicon&r=PG
p285
sVuser_type
p286
Vregistered
p287
sVreputation
p288
I3884
sVlink
p289
Vhttp://stackoverflow.com/users/10393/steven-noble
p290
sVaccept_rate
p291
I95
sVdisplay_name
p292
VSteven Noble
p293
ssVtitle
p294
VHow to get all of the immediate subdirectories in Python
p295
sVlast_edit_date
p296
I1466113689
sVquestion_id
p297
I800197
sa(dp298
Vbody
p299
V<p>I'm used that in Objective-C I've got this construct:</p>\u000a\u000a<pre><code>- (void)init {\u000a    if (self = [super init]) {\u000a        // init class\u000a    }\u000a    return self;\u000a}\u000a</code></pre>\u000a\u000a<p>Should Python also call the parent class's implementation for <code>__init__</code>?</p>\u000a\u000a<pre><code>class NewClass(SomeOtherClass):\u000a    def __init__(self):\u000a        SomeOtherClass.__init__(self)\u000a        # init class\u000a</code></pre>\u000a\u000a<p>Is this also true/false for <code>__new__()</code> and <code>__del__()</code>?</p>\u000a\u000a<p><strong>Edit:</strong> There's a very similar question: <a href="http://stackoverflow.com/questions/753640/inheritance-and-overriding-init-in-python">Inheritance and Overriding <code>__init__</code> in Python</a></p>\u000a
p300
sVis_answered
p301
I01
sVview_count
p302
I87222
sVtags
p303
(lp304
Vpython
p305
asVlast_activity_date
p306
I1411520664
sVanswer_count
p307
I6
sVcreation_date
p308
I1252245863
sVscore
p309
I77
sVlink
p310
Vhttp://stackoverflow.com/questions/1385759/should-init-call-the-parent-classs-init
p311
sVaccepted_answer_id
p312
I1385778
sVowner
p313
(dp314
Vuser_id
p315
I24587
sVprofile_image
p316
Vhttps://www.gravatar.com/avatar/859e513beefbf5b330a8842d9d39b00e?s=128&d=identicon&r=PG&f=1
p317
sVuser_type
p318
Vregistered
p319
sVreputation
p320
I87361
sVlink
p321
Vhttp://stackoverflow.com/users/24587/georg-sch%c3%b6lly
p322
sVaccept_rate
p323
I84
sVdisplay_name
p324
VGeorg Sch&#246;lly
p325
ssVtitle
p326
VShould __init__() call the parent class&#39;s __init__()?
p327
sVlast_edit_date
p328
I1254570302
sVquestion_id
p329
I1385759
sa(dp330
Vbody
p331
V<p>Just starting out with Python, so this is probably my mistake, but...</p>\u000a\u000a<p>I'm trying out Python. I like to use it as a calculator, and I'm slowly working through some tutorials.</p>\u000a\u000a<p>I ran into something weird today. I wanted to find out 2013*2013, but I wrote the wrong thing and wrote 2013*013, and got this:</p>\u000a\u000a<pre><code>&gt;&gt;&gt; 2013*013\u000a22143\u000a</code></pre>\u000a\u000a<p>I checked with my calculator, and 22143 is the wrong answer! 2013 * 13 is supposed to be 26169.</p>\u000a\u000a<p>Why is Python giving me a wrong answer? My old Casio calculator doesn't do this...</p>\u000a
p332
sVis_answered
p333
I01
sVprotected_date
p334
I1374083104
sVview_count
p335
I3987
sVtags
p336
(lp337
Vpython
p338
aVmath
p339
asVlast_activity_date
p340
I1374082603
sVaccepted_answer_id
p341
I15894199
sVcreation_date
p342
I1365486400
sVscore
p343
I77
sVlink
p344
Vhttp://stackoverflow.com/questions/15894182/wrong-math-with-python
p345
sVanswer_count
p346
I4
sVowner
p347
(dp348
Vuser_id
p349
I2174862
sVprofile_image
p350
Vhttps://www.gravatar.com/avatar/a10d15165961871c59b0a681367c0f0c?s=128&d=identicon&r=PG
p351
sVuser_type
p352
Vregistered
p353
sVreputation
p354
I603
sVlink
p355
Vhttp://stackoverflow.com/users/2174862/james-elegan
p356
sVdisplay_name
p357
VJames Elegan
p358
ssVtitle
p359
VWrong math with Python?
p360
sVlast_edit_date
p361
I1365486717
sVquestion_id
p362
I15894182
sa(dp363
Vbody
p364
V<p>I have the following code:</p>\u000a\u000a<pre><code>r = numpy.zeros(shape = (width, height, 9))\u000a</code></pre>\u000a\u000a<p>It creates a width x height x 9 matrix filled with zeros. Instead, I'd like to know if there's a function or way to initialize them instead to NaN.</p>\u000a\u000a<p>Is there any? Without having to resort to manually doing loops and such?</p>\u000a\u000a<p>Thanks</p>\u000a
p365
sVis_answered
p366
I01
sVview_count
p367
I74591
sVtags
p368
(lp369
Vpython
p370
aVnumpy
p371
asVlast_activity_date
p372
I1490569252
sVanswer_count
p373
I5
sVcreation_date
p374
I1257811807
sVscore
p375
I77
sVlink
p376
Vhttp://stackoverflow.com/questions/1704823/initializing-numpy-matrix-to-something-other-than-zero-or-one
p377
sVaccepted_answer_id
p378
I1704853
sVowner
p379
(dp380
Vuser_id
p381
I130758
sVprofile_image
p382
Vhttps://i.stack.imgur.com/MbIFT.jpg?s=128&g=1
p383
sVuser_type
p384
Vregistered
p385
sVreputation
p386
I31549
sVlink
p387
Vhttp://stackoverflow.com/users/130758/devoured-elysium
p388
sVaccept_rate
p389
I76
sVdisplay_name
p390
Vdevoured elysium
p391
ssVtitle
p392
VInitializing numpy matrix to something other than zero or one
p393
sVlast_edit_date
p394
I1257812250
sVquestion_id
p395
I1704823
sa(dp396
Vbody
p397
V<p>Python is my first dynamic language. I recently coded a function call incorrectly supplying a wrong number of arguments. This failed with an exception at the time that function was called. I expected that even in a dynamic language, this kind of error can be detected when the source file is parsed.</p>\u000a\u000a<p>I understand that the <strong>type</strong> of actual arguments is not known until the function is called, because the same variable may contain values of any type at different times. But the <strong>number</strong> of arguments is known as soon as the source file is parsed. It is not going to change while the program is running.</p>\u000a\u000a<h3>So that this is not a philosophical question</h3>\u000a\u000a<p>To keep this in scope of Stack Overflow, let me phrase the question like this. Is there some feature, that Python offers, that requires it to delay checking the number of arguments in a function call until the code actually executes?</p>\u000a
p398
sVis_answered
p399
I01
sVview_count
p400
I3463
sVtags
p401
(lp402
Vpython
p403
asVlast_activity_date
p404
I1451830054
sVanswer_count
p405
I2
sVcreation_date
p406
I1451750292
sVscore
p407
I77
sVlink
p408
Vhttp://stackoverflow.com/questions/34567770/why-does-python-allow-function-calls-with-wrong-number-of-arguments
p409
sVaccepted_answer_id
p410
I34567789
sVowner
p411
(dp412
Vuser_id
p413
I5738453
sVprofile_image
p414
Vhttps://www.gravatar.com/avatar/c8f476e081ede62d2166260093ddf061?s=128&d=identicon&r=PG&f=1
p415
sVuser_type
p416
Vregistered
p417
sVreputation
p418
I498
sVlink
p419
Vhttp://stackoverflow.com/users/5738453/hello
p420
sVdisplay_name
p421
Vhello
p422
ssVtitle
p423
VWhy does Python allow function calls with wrong number of arguments?
p424
sVlast_edit_date
p425
I1451829763
sVquestion_id
p426
I34567770
sa(dp427
Vbody
p428
V<h2>Problem</h2>\u000a\u000a<p>I would like to know how to get the <strong>distance and bearing between 2 GPS points</strong>.\u000aI have researched on the haversine formula.\u000aSomeone told me that I could also find the bearing using the same data.</p>\u000a\u000a<h2>Edit</h2>\u000a\u000a<p>Everything is working fine but the bearing doesn't quite work right yet. The bearing outputs negative but should be between 0 - 360 degrees.\u000aThe set data should make the horizontal bearing <code>96.02166666666666</code>\u000aand is:</p>\u000a\u000a<pre><code>Start point: 53.32055555555556 , -1.7297222222222221   \u000aBearing:  96.02166666666666  \u000aDistance: 2 km  \u000aDestination point: 53.31861111111111, -1.6997222222222223  \u000aFinal bearing: 96.04555555555555\u000a</code></pre>\u000a\u000a<p>Here is my new code:</p>\u000a\u000a<pre><code>from math import *\u000a\u000aAaltitude = 2000\u000aOppsite  = 20000\u000a\u000alat1 = 53.32055555555556\u000alat2 = 53.31861111111111\u000alon1 = -1.7297222222222221\u000alon2 = -1.6997222222222223\u000a\u000alon1, lat1, lon2, lat2 = map(radians, [lon1, lat1, lon2, lat2])\u000a\u000adlon = lon2 - lon1\u000adlat = lat2 - lat1\u000aa = sin(dlat/2)**2 + cos(lat1) * cos(lat2) * sin(dlon/2)**2\u000ac = 2 * atan2(sqrt(a), sqrt(1-a))\u000aBase = 6371 * c\u000a\u000a\u000aBearing =atan2(cos(lat1)*sin(lat2)-sin(lat1)*cos(lat2)*cos(lon2-lon1), sin(lon2-lon1)*cos(lat2)) \u000a\u000aBearing = degrees(Bearing)\u000aprint ""\u000aprint ""\u000aprint "--------------------"\u000aprint "Horizontal Distance:"\u000aprint Base\u000aprint "--------------------"\u000aprint "Bearing:"\u000aprint Bearing\u000aprint "--------------------"\u000a\u000a\u000aBase2 = Base * 1000\u000adistance = Base * 2 + Oppsite * 2 / 2\u000aCaltitude = Oppsite - Aaltitude\u000a\u000aa = Oppsite/Base\u000ab = atan(a)\u000ac = degrees(b)\u000a\u000adistance = distance / 1000\u000a\u000aprint "The degree of vertical angle is:"\u000aprint c\u000aprint "--------------------"\u000aprint "The distance between the Balloon GPS and the Antenna GPS is:"\u000aprint distance\u000aprint "--------------------"\u000a</code></pre>\u000a
p429
sVis_answered
p430
I01
sVview_count
p431
I63364
sVtags
p432
(lp433
Vpython
p434
aVgps
p435
aVdistance
p436
aVhaversine
p437
aVbearing
p438
asVlast_activity_date
p439
I1494921920
sVanswer_count
p440
I9
sVcreation_date
p441
I1296996105
sVscore
p442
I77
sVlink
p443
Vhttp://stackoverflow.com/questions/4913349/haversine-formula-in-python-bearing-and-distance-between-two-gps-points
p444
sVaccepted_answer_id
p445
I4913653
sVowner
p446
(dp447
Vuser_id
p448
I605191
sVprofile_image
p449
Vhttps://i.stack.imgur.com/J9LJf.jpg?s=128&g=1
p450
sVuser_type
p451
Vregistered
p452
sVreputation
p453
I869
sVlink
p454
Vhttp://stackoverflow.com/users/605191/avitex
p455
sVaccept_rate
p456
I100
sVdisplay_name
p457
Vavitex
p458
ssVtitle
p459
VHaversine Formula in Python (Bearing and Distance between two GPS points)
p460
sVlast_edit_date
p461
I1494921920
sVquestion_id
p462
I4913349
sa(dp463
Vbody
p464
V<p>I have a data frame with a hierarchical index in axis 1 (columns) (from a groupby.agg operation):</p>\u000a\u000a<pre><code>     USAF   WBAN  year  month  day  s_PC  s_CL  s_CD  s_CNT  tempf       \u000a                                     sum   sum   sum    sum   amax   amin\u000a0  702730  26451  1993      1    1     1     0    12     13  30.92  24.98\u000a1  702730  26451  1993      1    2     0     0    13     13  32.00  24.98\u000a2  702730  26451  1993      1    3     1    10     2     13  23.00   6.98\u000a3  702730  26451  1993      1    4     1     0    12     13  10.04   3.92\u000a4  702730  26451  1993      1    5     3     0    10     13  19.94  10.94\u000a</code></pre>\u000a\u000a<p>I want to flatten it, so that it looks like this (names aren't critical - I could rename):</p>\u000a\u000a<pre><code>     USAF   WBAN  year  month  day  s_PC  s_CL  s_CD  s_CNT  tempf_amax  tmpf_amin   \u000a0  702730  26451  1993      1    1     1     0    12     13  30.92          24.98\u000a1  702730  26451  1993      1    2     0     0    13     13  32.00          24.98\u000a2  702730  26451  1993      1    3     1    10     2     13  23.00          6.98\u000a3  702730  26451  1993      1    4     1     0    12     13  10.04          3.92\u000a4  702730  26451  1993      1    5     3     0    10     13  19.94          10.94\u000a</code></pre>\u000a\u000a<p>How do I do this? (I've tried a lot, to no avail.) </p>\u000a\u000a<p>Per a suggestion, here is the head in dict form</p>\u000a\u000a<pre><code>{('USAF', ''): {0: '702730',\u000a  1: '702730',\u000a  2: '702730',\u000a  3: '702730',\u000a  4: '702730'},\u000a ('WBAN', ''): {0: '26451', 1: '26451', 2: '26451', 3: '26451', 4: '26451'},\u000a ('day', ''): {0: 1, 1: 2, 2: 3, 3: 4, 4: 5},\u000a ('month', ''): {0: 1, 1: 1, 2: 1, 3: 1, 4: 1},\u000a ('s_CD', 'sum'): {0: 12.0, 1: 13.0, 2: 2.0, 3: 12.0, 4: 10.0},\u000a ('s_CL', 'sum'): {0: 0.0, 1: 0.0, 2: 10.0, 3: 0.0, 4: 0.0},\u000a ('s_CNT', 'sum'): {0: 13.0, 1: 13.0, 2: 13.0, 3: 13.0, 4: 13.0},\u000a ('s_PC', 'sum'): {0: 1.0, 1: 0.0, 2: 1.0, 3: 1.0, 4: 3.0},\u000a ('tempf', 'amax'): {0: 30.920000000000002,\u000a  1: 32.0,\u000a  2: 23.0,\u000a  3: 10.039999999999999,\u000a  4: 19.939999999999998},\u000a ('tempf', 'amin'): {0: 24.98,\u000a  1: 24.98,\u000a  2: 6.9799999999999969,\u000a  3: 3.9199999999999982,\u000a  4: 10.940000000000001},\u000a ('year', ''): {0: 1993, 1: 1993, 2: 1993, 3: 1993, 4: 1993}}\u000a</code></pre>\u000a
p465
sVis_answered
p466
I01
sVview_count
p467
I39832
sVtags
p468
(lp469
Vpython
p470
aVpandas
p471
asVlast_activity_date
p472
I1480508981
sVanswer_count
p473
I7
sVcreation_date
p474
I1359050591
sVscore
p475
I77
sVlink
p476
Vhttp://stackoverflow.com/questions/14507794/python-pandas-how-to-flatten-a-hierarchical-index-in-columns
p477
sVaccepted_answer_id
p478
I14508355
sVowner
p479
(dp480
Vuser_id
p481
I1400991
sVprofile_image
p482
Vhttps://i.stack.imgur.com/E6d3D.jpg?s=128&g=1
p483
sVuser_type
p484
Vregistered
p485
sVreputation
p486
I1247
sVlink
p487
Vhttp://stackoverflow.com/users/1400991/ross-r
p488
sVaccept_rate
p489
I50
sVdisplay_name
p490
VRoss R
p491
ssVtitle
p492
VPython Pandas - How to flatten a hierarchical index in columns
p493
sVlast_edit_date
p494
I1368532427
sVquestion_id
p495
I14507794
sa(dp496
Vbody
p497
V<p>Given the following format (<strong>.properties</strong> or <strong>.ini</strong>):</p>\u000a\u000a<pre><code>propertyName1=propertyValue1\u000apropertyName2=propertyValue2\u000a...\u000apropertyNameN=propertyValueN\u000a</code></pre>\u000a\u000a<p>For <strong>Java</strong> there is the <a href="http://docs.oracle.com/javase/6/docs/api/java/util/Properties.html" rel="noreferrer">Properties</a> class that offers functionality to parse / interact with the above format.</p>\u000a\u000a<p>Is there something similar in <strong>python</strong>'s <strong>standard</strong> library (2.x) ?</p>\u000a\u000a<p>If not, what other alternatives do I have ?</p>\u000a
p498
sVis_answered
p499
I01
sVview_count
p500
I75165
sVtags
p501
(lp502
Vpython
p503
aVproperties
p504
asVlast_activity_date
p505
I1495218080
sVanswer_count
p506
I15
sVcreation_date
p507
I1283096189
sVscore
p508
I77
sVlink
p509
Vhttp://stackoverflow.com/questions/3595363/properties-file-in-python-similar-to-java-properties
p510
sVaccepted_answer_id
p511
I3595383
sVowner
p512
(dp513
Vuser_id
p514
I211701
sVprofile_image
p515
Vhttps://www.gravatar.com/avatar/42eed48cf40911e777564b3963b4cf01?s=128&d=identicon&r=PG
p516
sVuser_type
p517
Vregistered
p518
sVreputation
p519
I4833
sVlink
p520
Vhttp://stackoverflow.com/users/211701/andrei-ciobanu
p521
sVaccept_rate
p522
I94
sVdisplay_name
p523
VAndrei Ciobanu
p524
ssVtitle
p525
VProperties file in python (similar to Java Properties)
p526
sVlast_edit_date
p527
I1428720864
sVquestion_id
p528
I3595363
sa(dp529
Vbody
p530
V<p>I have a matplotlib figure which I am plotting data that is always referred to as nanoseconds (1e-9).  On the y-axis, if I have data that is tens of nanoseconds, ie. 44e-9, the value on the axis shows as 4.4 with a +1e-8 as an offset.  Is there anyway to force the axis to show 44 with a +1e-9 offset?</p>\u000a\u000a<p>The same goes for my x-axis where the axis is showing +5.54478e4, where I would rather it show an offset of +55447 (whole number, no decimal - the value here is in days).</p>\u000a\u000a<p>I've tried a couple things like this:</p>\u000a\u000a<pre><code>p = axes.plot(x,y)\u000ap.ticklabel_format(style='plain')\u000a</code></pre>\u000a\u000a<p>for the x-axis, but this doesn't work, though I'm probably using it incorrectly or misinterpreting something from the docs, can someone point me in the correct direction?</p>\u000a\u000a<p>Thanks,\u000aJonathan</p>\u000a\u000a<p><img src="https://i.stack.imgur.com/Gg00z.png" alt="Problem illustration"></p>\u000a\u000a<hr>\u000a\u000a<p>I tried doing something with formatters but haven't found any solution yet...:</p>\u000a\u000a<pre><code>myyfmt = ScalarFormatter(useOffset=True)\u000amyyfmt._set_offset(1e9)\u000aaxes.get_yaxis().set_major_formatter(myyfmt)\u000a</code></pre>\u000a\u000a<p>and</p>\u000a\u000a<pre><code>myxfmt = ScalarFormatter(useOffset=True)\u000amyxfmt.set_portlimits((-9,5))\u000aaxes.get_xaxis().set_major_formatter(myxfmt)\u000a</code></pre>\u000a\u000a<p>On a side note, I'm actually confused as to where the 'offset number' object actually resides...is it part of the major/minor ticks?</p>\u000a
p531
sVis_answered
p532
I01
sVview_count
p533
I63399
sVtags
p534
(lp535
Vpython
p536
aVmatplotlib
p537
asVlast_activity_date
p538
I1480071255
sVanswer_count
p539
I7
sVcreation_date
p540
I1284041351
sVscore
p541
I77
sVlink
p542
Vhttp://stackoverflow.com/questions/3677368/matplotlib-format-axis-offset-values-to-whole-numbers-or-specific-number
p543
sVowner
p544
(dp545
Vuser_id
p546
I277241
sVprofile_image
p547
Vhttps://www.gravatar.com/avatar/ab88649a1f470c0bdc5684aee42f1a53?s=128&d=identicon&r=PG
p548
sVuser_type
p549
Vregistered
p550
sVreputation
p551
I545
sVlink
p552
Vhttp://stackoverflow.com/users/277241/jonathan
p553
sVaccept_rate
p554
I50
sVdisplay_name
p555
VJonathan
p556
ssVtitle
p557
Vmatplotlib: format axis offset-values to whole numbers or specific number
p558
sVlast_edit_date
p559
I1480071255
sVquestion_id
p560
I3677368
sa(dp561
Vbody
p562
V<p>Is there some way in Python to capture <code>KeyboardInterrupt</code> event without putting all the code inside a <code>try</code>-<code>except</code> statement?\u000aI want to cleanly exit without trace if user presses <kbd>ctrl</kbd>-<kbd>c</kbd>.</p>\u000a
p563
sVis_answered
p564
I01
sVview_count
p565
I62808
sVtags
p566
(lp567
Vpython
p568
aVkeyboardinterrupt
p569
asVlast_activity_date
p570
I1476954784
sVanswer_count
p571
I5
sVcreation_date
p572
I1290003891
sVscore
p573
I77
sVlink
p574
Vhttp://stackoverflow.com/questions/4205317/capture-keyboardinterrupt-in-python-without-try-except
p575
sVaccepted_answer_id
p576
I4205386
sVowner
p577
(dp578
Vuser_id
p579
I483265
sVprofile_image
p580
Vhttps://www.gravatar.com/avatar/586b48298b8e7603940100a879e0a4d0?s=128&d=identicon&r=PG
p581
sVuser_type
p582
Vregistered
p583
sVreputation
p584
I544
sVlink
p585
Vhttp://stackoverflow.com/users/483265/alex
p586
sVaccept_rate
p587
I60
sVdisplay_name
p588
VAlex
p589
ssVtitle
p590
VCapture keyboardinterrupt in Python without try-except
p591
sVlast_edit_date
p592
I1316711913
sVquestion_id
p593
I4205317
sa(dp594
Vbody
p595
V<p>I am new to Python. I need to write some data from my program to a spreadsheet. I've searched online and there seems to be many packages available (xlwt, XlsXcessive, openpyxl). Others suggest to write to a csv file (never used csv &amp; don't really understand what it is).</p>\u000a\u000a<p>The program is very simple. I have two lists (float) and three variables (strings). I don't know the lengths of the two lists and they probably won't be the same length.</p>\u000a\u000a<p>I want the layout to be as in the picture below:</p>\u000a\u000a<p><img src="https://i.stack.imgur.com/Ih3fa.png" alt="enter image description here"></p>\u000a\u000a<p>The pink column will have the values of the first list and the green column will have the values of the second list.</p>\u000a\u000a<p>So what's the best way to do this? Thanks.</p>\u000a\u000a<p>P.S. I am running Windows 7 but I won't necessarily have Office installed on the computers running this program.</p>\u000a\u000a<p><strong>EDIT</strong></p>\u000a\u000a<pre><code>import xlwt\u000a\u000ax=1\u000ay=2\u000az=3\u000a\u000alist1=[2.34,4.346,4.234]\u000a\u000abook = xlwt.Workbook(encoding="utf-8")\u000a\u000asheet1 = book.add_sheet("Sheet 1")\u000a\u000asheet1.write(0, 0, "Display")\u000asheet1.write(1, 0, "Dominance")\u000asheet1.write(2, 0, "Test")\u000a\u000asheet1.write(0, 1, x)\u000asheet1.write(1, 1, y)\u000asheet1.write(2, 1, z)\u000a\u000asheet1.write(4, 0, "Stimulus Time")\u000asheet1.write(4, 1, "Reaction Time")\u000a\u000ai=4\u000a\u000afor n in list1:\u000a    i = i+1\u000a    sheet1.write(i, 0, n)\u000a\u000a\u000a\u000abook.save("trial.xls")\u000a</code></pre>\u000a\u000a<p>I wrote this using all your suggestions. It gets the job done but it can be slightly improved. How do I format the cells created in the for loop (list1 values) as scientific or number? I do not want to truncate the values. The actual values used in the program would have around 10 digits after the decimal.</p>\u000a
p596
sVis_answered
p597
I01
sVprotected_date
p598
I1446819752
sVview_count
p599
I242901
sVtags
p600
(lp601
Vpython
p602
aVexcel
p603
aVcsv
p604
aVspreadsheet
p605
asVlast_activity_date
p606
I1491194802
sVaccepted_answer_id
p607
I13437772
sVcreation_date
p608
I1353216053
sVscore
p609
I77
sVlink
p610
Vhttp://stackoverflow.com/questions/13437727/python-write-to-excel-spreadsheet
p611
sVanswer_count
p612
I8
sVowner
p613
(dp614
Vuser_id
p615
I1818975
sVprofile_image
p616
Vhttps://www.gravatar.com/avatar/9dc4d6833b2923433825bf18eeb60b04?s=128&d=identicon&r=PG
p617
sVuser_type
p618
Vregistered
p619
sVreputation
p620
I556
sVlink
p621
Vhttp://stackoverflow.com/users/1818975/jey
p622
sVaccept_rate
p623
I67
sVdisplay_name
p624
VJey
p625
ssVtitle
p626
VPython - Write to Excel Spreadsheet
p627
sVlast_edit_date
p628
I1353219565
sVquestion_id
p629
I13437727
sa(dp630
Vbody
p631
V<p>I've been using the request/application context for some time without fully understanding how it works or why it was designed the way it was. What is the purpose of the "stack" when it comes to the request or application context? Are these two separate stacks, or are they both part of one stack? Is the request context pushed onto a stack, or is it a stack itself? Am I able to push/pop multiple contexts on top of eachother? If so, why would I want to do that?</p>\u000a\u000a<p>Sorry for all the questions, but I'm still confused after reading the documentation for Request Context and Application Context.</p>\u000a
p632
sVis_answered
p633
I01
sVview_count
p634
I10924
sVtags
p635
(lp636
Vpython
p637
aVflask
p638
asVlast_activity_date
p639
I1472293987
sVanswer_count
p640
I4
sVcreation_date
p641
I1384724354
sVscore
p642
I77
sVlink
p643
Vhttp://stackoverflow.com/questions/20036520/what-is-the-purpose-of-flasks-context-stacks
p644
sVaccepted_answer_id
p645
I20041823
sVowner
p646
(dp647
Vuser_id
p648
I953218
sVprofile_image
p649
Vhttps://i.stack.imgur.com/eZ9uT.jpg?s=128&g=1
p650
sVuser_type
p651
Vregistered
p652
sVreputation
p653
I5066
sVlink
p654
Vhttp://stackoverflow.com/users/953218/ben-davis
p655
sVaccept_rate
p656
I70
sVdisplay_name
p657
VBen Davis
p658
ssVtitle
p659
VWhat is the purpose of Flask&#39;s context stacks?
p660
sVquestion_id
p661
I20036520
sa(dp662
Vbody
p663
V<p>I'd like to use a <code>variable</code> inside a <code>regex</code>, how can I achieve this in <code>Python</code>?</p>\u000a\u000a<pre><code>TEXTO = sys.argv[1]\u000a\u000aif re.search(r"\u005cb(?=\u005cw)TEXTO\u005cb(?!\u005cw)", subject, re.IGNORECASE):\u000a    # Successful match\u000aelse:\u000a    # Match attempt failed\u000a</code></pre>\u000a
p664
sVis_answered
p665
I01
sVview_count
p666
I65903
sVtags
p667
(lp668
Vpython
p669
aVregex
p670
aVvariables
p671
aVpython-3.x
p672
asVlast_activity_date
p673
I1484681746
sVanswer_count
p674
I6
sVcreation_date
p675
I1312394381
sVscore
p676
I77
sVlink
p677
Vhttp://stackoverflow.com/questions/6930982/how-to-use-a-variable-inside-a-regular-expression
p678
sVaccepted_answer_id
p679
I6931070
sVowner
p680
(dp681
Vuser_id
p682
I797495
sVprofile_image
p683
Vhttps://i.stack.imgur.com/gtTcm.png?s=128&g=1
p684
sVuser_type
p685
Vregistered
p686
sVreputation
p687
I34579
sVlink
p688
Vhttp://stackoverflow.com/users/797495/pedro-lobito
p689
sVaccept_rate
p690
I74
sVdisplay_name
p691
VPedro Lobito
p692
ssVtitle
p693
VHow to use a variable inside a regular expression?
p694
sVlast_edit_date
p695
I1484681746
sVquestion_id
p696
I6930982
sa(dp697
Vbody
p698
V<p>I am in the process of migrating an application from django 1.2 To 1.4.</p>\u000a\u000a<p>I have a daily task object which contains a time of day that task should be completed:</p>\u000a\u000a<pre><code>class DailyTask(models.Model):\u000a    time = models.TimeField()\u000a    last_completed = models.DateTimeField()\u000a    name = models.CharField(max_length=100)\u000a    description = models.CharField(max_length=1000)\u000a    weekends = models.BooleanField()\u000a\u000a    def __unicode__(self):\u000a        return '%s' % (self.name)\u000a\u000a    class Meta:\u000a        db_table = u'dailytask'\u000a        ordering = ['name']\u000a</code></pre>\u000a\u000a<p>In order to check if a task is still required to be completed today, I have the following code:</p>\u000a\u000a<pre><code>def getDueDailyTasks():\u000a    dueDailyTasks=[]\u000a    now = datetime.datetime.now()\u000a    try:\u000a        dailyTasks = DailyTask.objects.all()\u000a    except dailyTask.DoesNotExist:\u000a        return None\u000a    for dailyTask in dailyTasks:\u000a        timeDue = datetime.datetime(now.year,now.month,now.day,dailyTask.time.hour,dailyTask.time.minute,dailyTask.time.second)\u000a        if timeDue&lt;now and timeDue&gt;dailyTask.last_completed:\u000a            if dailyTask.weekends==False and now.weekday()&gt;4:\u000a                pass\u000a            else:\u000a                dueDailyTasks.append({'id':dailyTask.id,\u000a                            'due':timeDue,\u000a                             'name': dailyTask.name,\u000a                             'description':dailyTask.description})\u000a    return dueDailyTasks\u000a</code></pre>\u000a\u000a<p>This worked fine under 1.2, But under 1.4 I get the error:</p>\u000a\u000a<pre><code>can't compare offset-naive and offset-aware datetimes\u000a</code></pre>\u000a\u000a<p>due to the line</p>\u000a\u000a<pre><code>if timeDue&lt;now and timeDue&gt;dailyTask.last_completed\u000a</code></pre>\u000a\u000a<p>and both comparison clauses throw this error.</p>\u000a\u000a<p>I have tried making timeDue timezone aware by adding pytz.UTC as an argument, but this still raises the same error.</p>\u000a\u000a<p>I've read some of the docs on timezones but am confused as to whether I just need to make timeDue timezone aware, or whether I need to make a fundamental change to my db and existing data.</p>\u000a
p699
sVis_answered
p700
I01
sVview_count
p701
I43903
sVtags
p702
(lp703
Vpython
p704
aVdjango
p705
aVtimezone
p706
asVlast_activity_date
p707
I1450704807
sVanswer_count
p708
I1
sVcreation_date
p709
I1337344791
sVscore
p710
I77
sVlink
p711
Vhttp://stackoverflow.com/questions/10652819/django-1-4-cant-compare-offset-naive-and-offset-aware-datetimes
p712
sVaccepted_answer_id
p713
I10653144
sVowner
p714
(dp715
Vuser_id
p716
I91616
sVprofile_image
p717
Vhttps://www.gravatar.com/avatar/1d83b50fd3f1fa633be54e4e7ff9605c?s=128&d=identicon&r=PG
p718
sVuser_type
p719
Vregistered
p720
sVreputation
p721
I1133
sVlink
p722
Vhttp://stackoverflow.com/users/91616/meepmeep
p723
sVaccept_rate
p724
I80
sVdisplay_name
p725
Vmeepmeep
p726
ssVtitle
p727
Vdjango 1.4 - can&#39;t compare offset-naive and offset-aware datetimes
p728
sVlast_edit_date
p729
I1450704807
sVquestion_id
p730
I10652819
sa(dp731
Vbody
p732
V<p>I've been trying to find a more pythonic way of generating random string in python that can scale as well. Typically, I see something similar to</p>\u000a\u000a<pre><code>''.join(random.choice(string.letters) for i in xrange(len))\u000a</code></pre>\u000a\u000a<p>It sucks if you want to generate long string.</p>\u000a\u000a<p>I've been thinking about random.getrandombits for a while, and figuring out how to convert that to an array of bits, then hex encode that. Using python 2.6 I came across the bitarray object, which isn't documented.  Somehow I got it to work, and it seems really fast.</p>\u000a\u000a<p>It generates a 50mil random string on my notebook in just about 3 seconds.</p>\u000a\u000a<pre><code>def rand1(leng):\u000a    nbits = leng * 6 + 1\u000a    bits = random.getrandbits(nbits)\u000a    uc = u"%0x" % bits\u000a    newlen = int(len(uc) / 2) * 2 # we have to make the string an even length\u000a    ba = bytearray.fromhex(uc[:newlen])\u000a    return base64.urlsafe_b64encode(str(ba))[:leng]\u000a</code></pre>\u000a\u000a<hr>\u000a\u000a<p><strong>edit</strong></p>\u000a\u000a<p>heikogerlach pointed out that it was an odd number of characters causing the issue. New code added to make sure it always sent fromhex an even number of hex digits.</p>\u000a\u000a<p>Still curious if there's a better way of doing this that's just as fast.</p>\u000a
p733
sVis_answered
p734
I01
sVview_count
p735
I43131
sVtags
p736
(lp737
Vpython
p738
aVrandom
p739
aVpython-2.6
p740
asVlast_activity_date
p741
I1481664314
sVanswer_count
p742
I5
sVcreation_date
p743
I1240563689
sVscore
p744
I77
sVlink
p745
Vhttp://stackoverflow.com/questions/785058/random-strings-in-python-2-6-is-this-ok
p746
sVaccepted_answer_id
p747
I785086
sVowner
p748
(dp749
Vuser_id
p750
I64941
sVprofile_image
p751
Vhttps://www.gravatar.com/avatar/2250d6c1b0ce837a63362ffd21e73176?s=128&d=identicon&r=PG
p752
sVuser_type
p753
Vregistered
p754
sVreputation
p755
I3360
sVlink
p756
Vhttp://stackoverflow.com/users/64941/mikelikespie
p757
sVaccept_rate
p758
I89
sVdisplay_name
p759
Vmikelikespie
p760
ssVtitle
p761
VRandom strings in Python 2.6 (Is this OK?)
p762
sVlast_edit_date
p763
I1240565843
sVquestion_id
p764
I785058
sa(dp765
Vbody
p766
V<p>Directions from my supervisor:\u000a"I want to avoid putting any logic in the <code>models.py</code>.  From here on out, let's use that as only classes for accessing the database, and keep all logic in external classes that use the models classes, or wrap them."</p>\u000a\u000a<p>I feel like this is the wrong way to go. I feel that keeping logic out of the models just to keep the file small is a bad idea. If the logic is best in the model, that's where it really should go regardless of file size.</p>\u000a\u000a<p>So is there a simple way to just use includes? In PHP-speak, I'd like to propose to the supervisor that we just have <code>models.py</code> include() the model classes from other places. Conceptually, this would allow the models to have all the logic we want, yet keep file size down via increasing the number of files (which leads to less revision control problems like conflicts, etc.).</p>\u000a\u000a<p>So, is there a simple way to remove model classes from the models.py file, but still have the models work with all of the Django tools? Or, is there a completely different yet elegant solution to the general problem of a "large" models.py file? Any input would be appreciated.</p>\u000a
p767
sVis_answered
p768
I01
sVview_count
p769
I12626
sVtags
p770
(lp771
Vpython
p772
aVdjango
p773
aVdjango-models
p774
aVmodels
p775
asVlast_activity_date
p776
I1439017564
sVanswer_count
p777
I3
sVcreation_date
p778
I1248197231
sVscore
p779
I77
sVlink
p780
Vhttp://stackoverflow.com/questions/1160579/models-py-getting-huge-what-is-the-best-way-to-break-it-up
p781
sVaccepted_answer_id
p782
I1160607
sVowner
p783
(dp784
Vuser_id
p785
I88821
sVprofile_image
p786
Vhttps://www.gravatar.com/avatar/e91f37709d482e3545e74d76971e1510?s=128&d=identicon&r=PG
p787
sVuser_type
p788
Vregistered
p789
sVreputation
p790
I1171
sVlink
p791
Vhttp://stackoverflow.com/users/88821/eddified
p792
sVaccept_rate
p793
I95
sVdisplay_name
p794
VEddified
p795
ssVtitle
p796
Vmodels.py getting huge, what is the best way to break it up?
p797
sVlast_edit_date
p798
I1264850504
sVquestion_id
p799
I1160579
sa(dp800
Vbody
p801
V<p>I am using pandas as a db substitute as I have multiple databases (oracle, mssql, etc) and I am unable to make a sequence of commands to a SQL equivalent.</p>\u000a\u000a<p>I have a table loaded in a DataFrame with some columns:</p>\u000a\u000a<pre><code>YEARMONTH, CLIENTCODE, SIZE, .... etc etc\u000a</code></pre>\u000a\u000a<p>In SQL, to count the amount of different clients per year would be:</p>\u000a\u000a<pre><code>SELECT count(distinct CLIENTCODE) FROM table GROUP BY YEARMONTH;\u000a</code></pre>\u000a\u000a<p>And the result would be </p>\u000a\u000a<pre><code>201301    5000\u000a201302    13245\u000a</code></pre>\u000a\u000a<p>How can I do that in pandas? </p>\u000a
p802
sVis_answered
p803
I01
sVview_count
p804
I82106
sVtags
p805
(lp806
Vpython
p807
aVpandas
p808
aVcount
p809
aVgroup-by
p810
aVdistinct
p811
asVlast_activity_date
p812
I1468878986
sVanswer_count
p813
I2
sVcreation_date
p814
I1363269003
sVscore
p815
I77
sVlink
p816
Vhttp://stackoverflow.com/questions/15411158/pandas-countdistinct-equivalent
p817
sVaccepted_answer_id
p818
I15411596
sVowner
p819
(dp820
Vuser_id
p821
I1879940
sVprofile_image
p822
Vhttps://www.gravatar.com/avatar/a7f1687599d1c712aec1c91a8c883d37?s=128&d=identicon&r=PG
p823
sVuser_type
p824
Vregistered
p825
sVreputation
p826
I961
sVlink
p827
Vhttp://stackoverflow.com/users/1879940/adriano-almeida
p828
sVaccept_rate
p829
I56
sVdisplay_name
p830
VAdriano Almeida
p831
ssVtitle
p832
VPandas count(distinct) equivalent
p833
sVlast_edit_date
p834
I1450596716
sVquestion_id
p835
I15411158
sa(dp836
Vclosed_date
p837
I1375513734
sVis_answered
p838
I01
sVclosed_reason
p839
Vduplicate
p840
sVview_count
p841
I249894
sVtags
p842
(lp843
Vpython
p844
aVaudio
p845
aVplatform-independent
p846
asVbody
p847
V<p>What's the easiest way to play a sound file (.wav) in Python? By easiest I mean both most platform independent and requiring the least dependencies. pygame is certainly an option, but it seems overkill for just sound.</p>\u000a
p848
sVlast_activity_date
p849
I1468247583
sVaccepted_answer_id
p850
I307501
sVcreation_date
p851
I1227224434
sVscore
p852
I77
sVlink
p853
Vhttp://stackoverflow.com/questions/307305/play-a-sound-with-python
p854
sVanswer_count
p855
I10
sVowner
p856
(dp857
Vuser_id
p858
I15055
sVprofile_image
p859
Vhttps://www.gravatar.com/avatar/7f71287b47b7189d11fe6d3fbc7ed2fe?s=128&d=identicon&r=PG
p860
sVuser_type
p861
Vregistered
p862
sVreputation
p863
I103525
sVlink
p864
Vhttp://stackoverflow.com/users/15055/claudiu
p865
sVaccept_rate
p866
I80
sVdisplay_name
p867
VClaudiu
p868
ssVtitle
p869
VPlay a Sound with Python
p870
sVquestion_id
p871
I307305
sa(dp872
Vbody
p873
V<p>I come from OOP background and trying to learn python.\u000aI am using the <code>max</code> function which uses a lambda expression to return the instance of type <code>Player</code> having maximum <code>totalScore</code> among the list <code>players</code>.</p>\u000a\u000a<pre><code>def winner():\u000a    w = max(players, key=lambda p: p.totalScore)\u000a</code></pre>\u000a\u000a<p>The function correctly returns instance of type <code>Player</code> having maximum <code>totalScore</code>.\u000aI am confused about the following three things:</p>\u000a\u000a<ol>\u000a<li>How does the <code>max</code> function work? What are the arguments it is taking? I looked at the documentation but failed to understand.</li>\u000a<li>What is use of the keyword <code>key</code> in max function? I know it is also used in context of <code>sort</code> function</li>\u000a<li>Meaning of the lambda expression? How to read them? How do they work?</li>\u000a</ol>\u000a\u000a<p>These are all very noobish conceptual questions but will help me understand the language. It would help if you could give examples to explain.\u000aThanks</p>\u000a
p874
sVis_answered
p875
I01
sVview_count
p876
I77940
sVtags
p877
(lp878
Vpython
p879
aVfunction
p880
aVlambda
p881
asVlast_activity_date
p882
I1453459765
sVanswer_count
p883
I5
sVcreation_date
p884
I1376811192
sVscore
p885
I77
sVlink
p886
Vhttp://stackoverflow.com/questions/18296755/python-max-function-using-key-and-lambda-expression
p887
sVaccepted_answer_id
p888
I18296814
sVowner
p889
(dp890
Vuser_id
p891
I2291562
sVprofile_image
p892
Vhttps://www.gravatar.com/avatar/a760213895f24e1d815402f22887f19f?s=128&d=identicon&r=PG
p893
sVuser_type
p894
Vregistered
p895
sVreputation
p896
I556
sVlink
p897
Vhttp://stackoverflow.com/users/2291562/vijay
p898
sVaccept_rate
p899
I58
sVdisplay_name
p900
VVijay
p901
ssVtitle
p902
Vpython max function using &#39;key&#39; and lambda expression
p903
sVlast_edit_date
p904
I1447389334
sVquestion_id
p905
I18296755
sa(dp906
Vbody
p907
V<p>I have an integer value <code>x</code>, and I need to check if it is between a <code>start</code> and <code>end</code> values, so I write the following statements:</p>\u000a\u000a<pre><code>if x &gt;= start and x &lt;= end:\u000a    # do stuff\u000a</code></pre>\u000a\u000a<p>This statement gets underlined, and the tooltip tells me that I must </p>\u000a\u000a<blockquote>\u000a  <p>simplify chained comparison</p>\u000a</blockquote>\u000a\u000a<p>As far as I can tell, that comparison is about as simple as they come.  What have I missed here?</p>\u000a
p908
sVis_answered
p909
I01
sVview_count
p910
I19673
sVtags
p911
(lp912
Vpython
p913
aVpycharm
p914
asVlast_activity_date
p915
I1491139695
sVanswer_count
p916
I3
sVcreation_date
p917
I1413964928
sVscore
p918
I77
sVlink
p919
Vhttp://stackoverflow.com/questions/26502775/pycharm-simplify-chained-comparison
p920
sVaccepted_answer_id
p921
I26502847
sVowner
p922
(dp923
Vuser_id
p924
I2588122
sVprofile_image
p925
Vhttps://graph.facebook.com/722635650/picture?type=large
p926
sVuser_type
p927
Vregistered
p928
sVreputation
p929
I708
sVlink
p930
Vhttp://stackoverflow.com/users/2588122/brynn-mccullagh
p931
sVdisplay_name
p932
VBrynn McCullagh
p933
ssVtitle
p934
VPyCharm: &quot;Simplify Chained Comparison&quot;
p935
sVlast_edit_date
p936
I1441846125
sVquestion_id
p937
I26502775
sa(dp938
Vbody
p939
V<p>How can I convert data after processing <code>urllib.urlencode</code> to dict?\u000a<code>urllib.urldecode</code> does not exist.</p>\u000a
p940
sVis_answered
p941
I01
sVview_count
p942
I37749
sVtags
p943
(lp944
Vpython
p945
aVurllib
p946
asVlast_activity_date
p947
I1464518684
sVanswer_count
p948
I3
sVcreation_date
p949
I1282503555
sVscore
p950
I77
sVlink
p951
Vhttp://stackoverflow.com/questions/3542881/python-opposite-function-urllib-urlencode
p952
sVaccepted_answer_id
p953
I3542894
sVowner
p954
(dp955
Vuser_id
p956
I427580
sVprofile_image
p957
Vhttps://www.gravatar.com/avatar/414ab7a0f4cbe25c51e6a81ab4e40e01?s=128&d=identicon&r=PG
p958
sVuser_type
p959
Vregistered
p960
sVreputation
p961
I708
sVlink
p962
Vhttp://stackoverflow.com/users/427580/artyom
p963
sVaccept_rate
p964
I73
sVdisplay_name
p965
VArtyom
p966
ssVtitle
p967
VPython, opposite function urllib.urlencode
p968
sVlast_edit_date
p969
I1464518684
sVquestion_id
p970
I3542881
sa(dp971
Vclosed_date
p972
I1343159796
sVis_answered
p973
I01
sVprotected_date
p974
I1343158444
sVclosed_reason
p975
Vnot constructive
p976
sVview_count
p977
I90675
sVtags
p978
(lp979
Vpython
p980
aVimage
p981
aVimage-processing
p982
aVimage-manipulation
p983
asVbody
p984
V<p>I've recently come across a problem which requires at least a basic degree of image processing, can I do this in Python, and if so, with what?</p>\u000a
p985
sVlast_activity_date
p986
I1361983379
sVaccepted_answer_id
p987
I94955
sVcreation_date
p988
I1221760024
sVscore
p989
I77
sVlink
p990
Vhttp://stackoverflow.com/questions/94875/image-processing-in-python
p991
sVanswer_count
p992
I8
sVowner
p993
(dp994
Vuser_id
p995
I145
sVprofile_image
p996
Vhttps://www.gravatar.com/avatar/112fa979b32463e3b54e098d1b3b0324?s=128&d=identicon&r=PG
p997
sVuser_type
p998
Vregistered
p999
sVreputation
p1000
I10216
sVlink
p1001
Vhttp://stackoverflow.com/users/145/akdom
p1002
sVaccept_rate
p1003
I33
sVdisplay_name
p1004
Vakdom
p1005
ssVtitle
p1006
VImage Processing, In Python?
p1007
sVquestion_id
p1008
I94875
sa(dp1009
Vbody
p1010
V<p>I am interested in knowing how to convert a pandas dataframe into a numpy array, including the index, and set the dtypes.</p>\u000a\u000a<p>dataframe:</p>\u000a\u000a<pre><code>label   A    B    C\u000aID                                 \u000a1   NaN  0.2  NaN\u000a2   NaN  NaN  0.5\u000a3   NaN  0.2  0.5\u000a4   0.1  0.2  NaN\u000a5   0.1  0.2  0.5\u000a6   0.1  NaN  0.5\u000a7   0.1  NaN  NaN\u000a</code></pre>\u000a\u000a<p>convert df to array returns:</p>\u000a\u000a<pre><code>array([[ nan,  0.2,  nan],\u000a       [ nan,  nan,  0.5],\u000a       [ nan,  0.2,  0.5],\u000a       [ 0.1,  0.2,  nan],\u000a       [ 0.1,  0.2,  0.5],\u000a       [ 0.1,  nan,  0.5],\u000a       [ 0.1,  nan,  nan]])\u000a</code></pre>\u000a\u000a<p>However, I would like:</p>\u000a\u000a<pre><code>array([[ 1, nan,  0.2,  nan],\u000a       [ 2, nan,  nan,  0.5],\u000a       [ 3, nan,  0.2,  0.5],\u000a       [ 4, 0.1,  0.2,  nan],\u000a       [ 5, 0.1,  0.2,  0.5],\u000a       [ 6, 0.1,  nan,  0.5],\u000a       [ 7, 0.1,  nan,  nan]],\u000a     dtype=[('ID', '&lt;i4'), ('A', '&lt;f8'), ('B', '&lt;f8'), ('B', '&lt;f8')])\u000a</code></pre>\u000a\u000a<p>(or similar)</p>\u000a\u000a<p>Any suggestions on how to accomplish this? (I don't know if I need 1D or 2D array at this point.) I've seen a few posts that touch on this, but nothing dealing specifically with the dataframe.index.</p>\u000a\u000a<p>I am writing the dataframe disk using to_csv (and reading it back in to create array) as a workaround, but would prefer something more eloquent than my new-to-pandas kludging. </p>\u000a
p1011
sVis_answered
p1012
I01
sVview_count
p1013
I124008
sVtags
p1014
(lp1015
Vpython
p1016
aVarrays
p1017
aVnumpy
p1018
aVpandas
p1019
aVtype-conversion
p1020
asVlast_activity_date
p1021
I1462426191
sVanswer_count
p1022
I6
sVcreation_date
p1023
I1351817853
sVscore
p1024
I77
sVlink
p1025
Vhttp://stackoverflow.com/questions/13187778/convert-pandas-dataframe-to-numpy-array-preserving-index
p1026
sVowner
p1027
(dp1028
Vuser_id
p1029
I1792954
sVprofile_image
p1030
Vhttps://www.gravatar.com/avatar/df95a48620c8bb945f251ded9d3c6968?s=128&d=identicon&r=PG
p1031
sVuser_type
p1032
Vregistered
p1033
sVreputation
p1034
I386
sVlink
p1035
Vhttp://stackoverflow.com/users/1792954/mister-nobody-nz
p1036
sVdisplay_name
p1037
Vmister.nobody.nz
p1038
ssVtitle
p1039
VConvert pandas dataframe to numpy array, preserving index
p1040
sVlast_edit_date
p1041
I1434495972
sVquestion_id
p1042
I13187778
sa(dp1043
Vclosed_date
p1044
I1465913641
sVis_answered
p1045
I01
sVclosed_reason
p1046
Voff-topic
p1047
sVview_count
p1048
I82890
sVtags
p1049
(lp1050
Vjava
p1051
aVpython
p1052
asVbody
p1053
V<p>What is the best way to call java from python?\u000a(jython and RPC are not an option for me).</p>\u000a\u000a<p>I've heard of JCC: <a href="http://pypi.python.org/pypi/JCC/1.9" rel="noreferrer">http://pypi.python.org/pypi/JCC/1.9</a>\u000aa C++ code generator for calling Java from C++/Python\u000aBut this requires compiling every possible call; I would prefer another solution.</p>\u000a\u000a<p>I've hear about JPype: <a href="http://jpype.sourceforge.net/" rel="noreferrer">http://jpype.sourceforge.net/</a> \u000atutorial: <a href="http://www.slideshare.net/onyame/mixing-python-and-java" rel="noreferrer">http://www.slideshare.net/onyame/mixing-python-and-java</a></p>\u000a\u000a<pre><code>import jpype \u000ajpype.startJVM(path to jvm.dll, "-ea") \u000ajavaPackage = jpype.JPackage("JavaPackageName") \u000ajavaClass = javaPackage.JavaClassName \u000ajavaObject = javaClass() \u000ajavaObject.JavaMethodName() \u000ajpype.shutdownJVM() \u000a</code></pre>\u000a\u000a<p>This looks like what I need.\u000aHowever, the last release is from Jan 2009 and I see people failing to compile JPype.</p>\u000a\u000a<p>Is JPype a dead project?</p>\u000a\u000a<p>Are there any other alternatives?</p>\u000a\u000a<p>Regards,\u000aDavid</p>\u000a
p1054
sVlast_activity_date
p1055
I1495279738
sVaccepted_answer_id
p1056
I24438324
sVcreation_date
p1057
I1283786364
sVscore
p1058
I77
sVlink
p1059
Vhttp://stackoverflow.com/questions/3652554/calling-java-from-python
p1060
sVanswer_count
p1061
I9
sVowner
p1062
(dp1063
Vuser_id
p1064
I280393
sVprofile_image
p1065
Vhttps://www.gravatar.com/avatar/9ae02b72d668ef2b26a80e4596123eb4?s=128&d=identicon&r=PG
p1066
sVuser_type
p1067
Vregistered
p1068
sVreputation
p1069
I4099
sVlink
p1070
Vhttp://stackoverflow.com/users/280393/david-portabella
p1071
sVaccept_rate
p1072
I64
sVdisplay_name
p1073
VDavid Portabella
p1074
ssVtitle
p1075
VCalling Java from Python
p1076
sVquestion_id
p1077
I3652554
sa(dp1078
Vbody
p1079
V<p>Given:</p>\u000a\u000a<pre><code>import argparse\u000a\u000apa = argparse.ArgumentParser()\u000apa.add_argument('--foo')\u000apa.add_argument('--bar')\u000a\u000aprint pa.parse_args('--foo 1'.split())\u000a</code></pre>\u000a\u000a<p>how do I</p>\u000a\u000a<ul>\u000a<li>make at least one of "foo, bar" mandatory: <code>--foo x</code>, <code>--bar y</code> and <code>--foo x --bar y</code> are fine</li>\u000a<li>make at most one of "foo, bar" mandatory: <code>--foo x</code> or <code>--bar y</code> are fine, <code>--foo x --bar y</code> is not</li>\u000a</ul>\u000a
p1080
sVis_answered
p1081
I01
sVview_count
p1082
I16639
sVtags
p1083
(lp1084
Vpython
p1085
aVargparse
p1086
asVlast_activity_date
p1087
I1484501774
sVanswer_count
p1088
I2
sVcreation_date
p1089
I1340362924
sVscore
p1090
I77
sVlink
p1091
Vhttp://stackoverflow.com/questions/11154946/require-either-of-two-arguments-using-argparse
p1092
sVaccepted_answer_id
p1093
I11155124
sVowner
p1094
(dp1095
Vuser_id
p1096
I989121
sVprofile_image
p1097
Vhttps://i.stack.imgur.com/1Cvf7.png?s=128&g=1
p1098
sVuser_type
p1099
Vregistered
p1100
sVreputation
p1101
I107744
sVlink
p1102
Vhttp://stackoverflow.com/users/989121/georg
p1103
sVaccept_rate
p1104
I93
sVdisplay_name
p1105
Vgeorg
p1106
ssVtitle
p1107
VRequire either of two arguments using argparse
p1108
sVlast_edit_date
p1109
I1484501774
sVquestion_id
p1110
I11154946
sa(dp1111
Vbody
p1112
V<p>I've heard of redis-cache but how exactly does it work? Is it used as a layer between django and my rdbms, by caching the rdbms queries somehow? </p>\u000a\u000a<p>Or is it supposed to be used directly as the database? Which I doubt, since that github page doesn't cover any login details, no setup.. just tells you to set some config property.</p>\u000a
p1113
sVis_answered
p1114
I01
sVview_count
p1115
I47422
sVtags
p1116
(lp1117
Vpython
p1118
aVdjango
p1119
aVredis
p1120
asVlast_activity_date
p1121
I1482760451
sVanswer_count
p1122
I4
sVcreation_date
p1123
I1285566522
sVscore
p1124
I77
sVlink
p1125
Vhttp://stackoverflow.com/questions/3801379/how-can-i-use-redis-with-django
p1126
sVaccepted_answer_id
p1127
I3805221
sVowner
p1128
(dp1129
Vuser_id
p1130
I145190
sVprofile_image
p1131
Vhttps://i.stack.imgur.com/AueYj.jpg?s=128&g=1
p1132
sVuser_type
p1133
Vregistered
p1134
sVreputation
p1135
I117290
sVlink
p1136
Vhttp://stackoverflow.com/users/145190/meder-omuraliev
p1137
sVaccept_rate
p1138
I77
sVdisplay_name
p1139
Vmeder omuraliev
p1140
ssVtitle
p1141
VHow can I use redis with Django?
p1142
sVlast_edit_date
p1143
I1463680900
sVquestion_id
p1144
I3801379
sa(dp1145
Vbody
p1146
V<p>I work in an environment in which computational resources are shared, i.e., we have a few server machines equipped with a few Nvidia Titan X GPUs each.</p>\u000a\u000a<p>For small to moderate size models, the 12GB of the Titan X are usually enough for 2-3 people to run training concurrently on the same GPU. If the models are small enough that a single model does not take full advantage of all the computational units of the Titan X, this can actually result in a speedup compared with running one training process after the other. Even in cases where the concurrent access to the GPU does slow down the individual training time, it is still nice to have the flexibility of having several users running things on the GPUs at once.</p>\u000a\u000a<p>The problem with TensorFlow is that, by default, it allocates the full amount of available memory on the GPU when it is launched. Even for a small 2-layer Neural Network, I see that the 12 GB of the Titan X are used up.</p>\u000a\u000a<p>Is there a way to make TensorFlow only allocate, say, 4GB of GPU memory, if one knows that that amount is enough for a given model?</p>\u000a
p1147
sVis_answered
p1148
I01
sVview_count
p1149
I22294
sVtags
p1150
(lp1151
Vpython
p1152
aVtensorflow
p1153
asVlast_activity_date
p1154
I1464839711
sVanswer_count
p1155
I2
sVcreation_date
p1156
I1449742791
sVscore
p1157
I77
sVlink
p1158
Vhttp://stackoverflow.com/questions/34199233/how-to-prevent-tensorflow-from-allocating-the-totality-of-a-gpu-memory
p1159
sVaccepted_answer_id
p1160
I34200194
sVowner
p1161
(dp1162
Vuser_id
p1163
I1841986
sVprofile_image
p1164
Vhttps://www.gravatar.com/avatar/f3cd14fbd9d03aaa7706e8fee507956c?s=128&d=identicon&r=PG
p1165
sVuser_type
p1166
Vregistered
p1167
sVreputation
p1168
I505
sVlink
p1169
Vhttp://stackoverflow.com/users/1841986/fabien-c
p1170
sVdisplay_name
p1171
VFabien C.
p1172
ssVtitle
p1173
VHow to prevent tensorflow from allocating the totality of a GPU memory?
p1174
sVlast_edit_date
p1175
I1464839711
sVquestion_id
p1176
I34199233
sa(dp1177
Vbody
p1178
V<p>I don't quite understand the syntax behind the <code>sorted()</code> argument:</p>\u000a\u000a<pre><code>key=lambda variable: variable[0]\u000a</code></pre>\u000a\u000a<p>Isn't <code>lambda</code> arbitrary? Why is <code>variable</code> stated twice in what looks like a <code>dict</code>?</p>\u000a
p1179
sVis_answered
p1180
I01
sVview_count
p1181
I67196
sVtags
p1182
(lp1183
Vpython
p1184
aVsorting
p1185
aVlambda
p1186
asVlast_activity_date
p1187
I1493033748
sVanswer_count
p1188
I6
sVcreation_date
p1189
I1327284558
sVscore
p1190
I77
sVlink
p1191
Vhttp://stackoverflow.com/questions/8966538/syntax-behind-sortedkey-lambda
p1192
sVaccepted_answer_id
p1193
I8966627
sVowner
p1194
(dp1195
Vuser_id
p1196
I1154847
sVprofile_image
p1197
Vhttps://www.gravatar.com/avatar/4fa81a013f37bd2e7cd4e31b4070914e?s=128&d=identicon&r=PG
p1198
sVuser_type
p1199
Vregistered
p1200
sVreputation
p1201
I1588
sVlink
p1202
Vhttp://stackoverflow.com/users/1154847/christopher-markieta
p1203
sVaccept_rate
p1204
I83
sVdisplay_name
p1205
VChristopher Markieta
p1206
ssVtitle
p1207
VSyntax behind sorted(key=lambda :)
p1208
sVlast_edit_date
p1209
I1327351327
sVquestion_id
p1210
I8966538
sa(dp1211
Vclosed_date
p1212
I1433703238
sVis_answered
p1213
I01
sVclosed_reason
p1214
Vduplicate
p1215
sVview_count
p1216
I145785
sVtags
p1217
(lp1218
Vpython
p1219
aVmatplotlib
p1220
aVplot
p1221
asVbody
p1222
V<p>I would like to limit the X and Y axis in matplotlib but for a speific subplot. As I can see\u000asubplot figure itself doesn't have any axis property. I want for example to change only the limits for the second plot!</p>\u000a\u000a<pre><code>import matplotlib.pyplot as plt\u000afig=plt.subplot(131)\u000aplt.scatter([1,2],[3,4])\u000afig=plt.subplot(132)\u000aplt.scatter([10,20],[30,40])\u000afig=plt.subplot(133)\u000aplt.scatter([15,23],[35,43])\u000aplt.show()\u000a</code></pre>\u000a
p1223
sVlast_activity_date
p1224
I1436046574
sVaccepted_answer_id
p1225
I15858264
sVcreation_date
p1226
I1365301254
sVscore
p1227
I77
sVlink
p1228
Vhttp://stackoverflow.com/questions/15858192/how-to-set-xlim-and-ylim-for-a-subplot-in-matplotlib
p1229
sVanswer_count
p1230
I1
sVowner
p1231
(dp1232
Vuser_id
p1233
I257640
sVprofile_image
p1234
Vhttps://www.gravatar.com/avatar/439fc6aa0ac5e57a146f5a0367fa422d?s=128&d=identicon&r=PG
p1235
sVuser_type
p1236
Vregistered
p1237
sVreputation
p1238
I2150
sVlink
p1239
Vhttp://stackoverflow.com/users/257640/cupitor
p1240
sVaccept_rate
p1241
I83
sVdisplay_name
p1242
VCupitor
p1243
ssVtitle
p1244
VHow to set xlim and ylim for a subplot in matplotlib
p1245
sVlast_edit_date
p1246
I1436046574
sVquestion_id
p1247
I15858192
sa(dp1248
Vbody
p1249
V<p>While optimising my code I realised the following:</p>\u000a\u000a<pre><code>&gt;&gt;&gt; from timeit import Timer as T\u000a&gt;&gt;&gt; T(lambda : 1234567890 / 4.0).repeat()\u000a[0.22256922721862793, 0.20560789108276367, 0.20530295372009277]\u000a&gt;&gt;&gt; from __future__ import division\u000a&gt;&gt;&gt; T(lambda : 1234567890 / 4).repeat()\u000a[0.14969301223754883, 0.14155197143554688, 0.14141488075256348]\u000a&gt;&gt;&gt; T(lambda : 1234567890 * 0.25).repeat()\u000a[0.13619112968444824, 0.1281130313873291, 0.12830305099487305]\u000a</code></pre>\u000a\u000a<p>and also:</p>\u000a\u000a<pre><code>&gt;&gt;&gt; from math import sqrt\u000a&gt;&gt;&gt; T(lambda : sqrt(1234567890)).repeat()\u000a[0.2597470283508301, 0.2498021125793457, 0.24994492530822754]\u000a&gt;&gt;&gt; T(lambda : 1234567890 ** 0.5).repeat()\u000a[0.15409398078918457, 0.14059877395629883, 0.14049601554870605]\u000a</code></pre>\u000a\u000a<p>I assume it has to do with the way python is implemented in C, but I wonder if anybody would care to explain why is so?</p>\u000a
p1250
sVis_answered
p1251
I01
sVview_count
p1252
I4520
sVtags
p1253
(lp1254
Vpython
p1255
aVc
p1256
aVperformance
p1257
aVpython-2.7
p1258
aVpython-internals
p1259
asVlast_activity_date
p1260
I1394007522
sVanswer_count
p1261
I1
sVcreation_date
p1262
I1320855618
sVscore
p1263
I77
sVlink
p1264
Vhttp://stackoverflow.com/questions/8068019/python-why-are-and-faster-than-and-sqrt
p1265
sVaccepted_answer_id
p1266
I8068248
sVowner
p1267
(dp1268
Vuser_id
p1269
I146792
sVprofile_image
p1270
Vhttps://www.gravatar.com/avatar/d321b6a6a9c8aeb609111c4ceb516e42?s=128&d=identicon&r=PG
p1271
sVuser_type
p1272
Vregistered
p1273
sVreputation
p1274
I24033
sVlink
p1275
Vhttp://stackoverflow.com/users/146792/mac
p1276
sVaccept_rate
p1277
I88
sVdisplay_name
p1278
Vmac
p1279
ssVtitle
p1280
VPython: why are * and ** faster than / and sqrt()?
p1281
sVlast_edit_date
p1282
I1394007522
sVquestion_id
p1283
I8068019
sa(dp1284
Vbody
p1285
V<p>Can anyone explain why passing a generator as the only positional argument to a function seems to have special rules?</p>\u000a\u000a<p>If we have: </p>\u000a\u000a<pre><code>&gt;&gt;&gt; def f(*args):\u000a&gt;&gt;&gt;    print "Success!"\u000a&gt;&gt;&gt;    print args\u000a</code></pre>\u000a\u000a<ol>\u000a<li><p>This works, as expected.</p>\u000a\u000a<pre><code>&gt;&gt;&gt; f(1, *[2])\u000aSuccess!\u000a(1, 2)\u000a</code></pre></li>\u000a<li><p>This does not work, as expected.</p>\u000a\u000a<pre><code>&gt;&gt;&gt; f(*[2], 1)\u000a  File "&lt;stdin&gt;", line 1\u000aSyntaxError: only named arguments may follow *expression\u000a</code></pre></li>\u000a<li><p>This works, as expected</p>\u000a\u000a<pre><code>&gt;&gt;&gt; f(1 for x in [1], *[2])\u000aSuccess! \u000a(generator object &lt;genexpr&gt; at 0x7effe06bdcd0&gt;, 2)\u000a</code></pre></li>\u000a<li><p>This works, but I don't understand why. Shouldn't it fail in the same way as 2)</p>\u000a\u000a<pre><code>&gt;&gt;&gt; f(*[2], 1 for x in [1])                                               \u000aSuccess!\u000a(generator object &lt;genexpr&gt; at 0x7effe06bdcd0&gt;, 2)\u000a</code></pre></li>\u000a</ol>\u000a
p1286
sVis_answered
p1287
I01
sVview_count
p1288
I4117
sVtags
p1289
(lp1290
Vpython
p1291
aVpython-2.7
p1292
aVsyntax
p1293
aVgenerator-expression
p1294
asVlast_activity_date
p1295
I1487206147
sVanswer_count
p1296
I1
sVcreation_date
p1297
I1441966874
sVscore
p1298
I77
sVlink
p1299
Vhttp://stackoverflow.com/questions/32521140/generator-as-function-argument
p1300
sVaccepted_answer_id
p1301
I32521643
sVowner
p1302
(dp1303
Vuser_id
p1304
I5324845
sVprofile_image
p1305
Vhttps://www.gravatar.com/avatar/1c376d6d8dbf9b09f4033f830365fe1f?s=128&d=identicon&r=PG&f=1
p1306
sVuser_type
p1307
Vregistered
p1308
sVreputation
p1309
I530
sVlink
p1310
Vhttp://stackoverflow.com/users/5324845/deterer
p1311
sVdisplay_name
p1312
VDeTeReR
p1313
ssVtitle
p1314
VGenerator as function argument
p1315
sVlast_edit_date
p1316
I1441986814
sVquestion_id
p1317
I32521140
sa(dp1318
Vbody
p1319
V<p>I'm trying to install opencv for python through anaconda, but I can't seem to figure this out.</p>\u000a\u000a<p>I tried</p>\u000a\u000a<pre><code>conda install opencv\u000aconda install cv2\u000a</code></pre>\u000a\u000a<p>I also tried searching</p>\u000a\u000a<pre><code>conda search cv\u000a</code></pre>\u000a\u000a<p>No cigar. I ran across this which lists opencv as an included package:</p>\u000a\u000a<p><a href="http://docs.continuum.io/anaconda/pkgs.html">http://docs.continuum.io/anaconda/pkgs.html</a></p>\u000a\u000a<p>After running <code>conda info</code> I noticed my version is 3.4.1 but I couldn't seem to find any information about this version online.  I'm pretty confused about this.</p>\u000a\u000a<p>Am I missing something pretty obvious here? If opencv was available for a previous version of anaconda, then why wouldn't it be available for the newer version? And why does that link only show me docs for version 1.9.2?</p>\u000a
p1320
sVis_answered
p1321
I01
sVview_count
p1322
I134480
sVtags
p1323
(lp1324
Vpython
p1325
aVopencv
p1326
aVanaconda
p1327
aVconda
p1328
asVlast_activity_date
p1329
I1494230908
sVanswer_count
p1330
I25
sVcreation_date
p1331
I1397679799
sVscore
p1332
I76
sVlink
p1333
Vhttp://stackoverflow.com/questions/23119413/how-to-install-python-opencv-through-conda
p1334
sVowner
p1335
(dp1336
Vuser_id
p1337
I1191551
sVprofile_image
p1338
Vhttps://www.gravatar.com/avatar/97ced8a229689b73b098a542636052e8?s=128&d=identicon&r=PG
p1339
sVuser_type
p1340
Vregistered
p1341
sVreputation
p1342
I3870
sVlink
p1343
Vhttp://stackoverflow.com/users/1191551/chet
p1344
sVaccept_rate
p1345
I46
sVdisplay_name
p1346
VChet
p1347
ssVtitle
p1348
VHow to install python opencv through Conda?
p1349
sVquestion_id
p1350
I23119413
sa(dp1351
Vbody
p1352
V<p>I have a django form with a <code>RegexField</code> (which is very similar to a normal text input field). In my view, under certain conditions I want to hide this from the user, and trying to keep the form as similar as possible.</p>\u000a\u000a<p>What's the best way to turn this field into a <code>HiddenInput</code> field? I know I can set attributes on the field with <code>form['fieldname'].field.widget.attr['readonly'] = 'readonly'</code>, and I can set the desired initial value with <code>form.initial['fieldname'] = 'mydesiredvalue'</code>. However that won't change the form of the widget.</p>\u000a\u000a<p>What's the best/most django-y/least hacky way to make this field a <code>&lt;input type="hidden"</code> field?</p>\u000a
p1353
sVis_answered
p1354
I01
sVview_count
p1355
I82883
sVtags
p1356
(lp1357
Vpython
p1358
aVhtml
p1359
aVdjango
p1360
aVdjango-forms
p1361
asVlast_activity_date
p1362
I1439908666
sVanswer_count
p1363
I4
sVcreation_date
p1364
I1311869979
sVscore
p1365
I76
sVlink
p1366
Vhttp://stackoverflow.com/questions/6862250/change-a-django-form-field-to-a-hidden-field
p1367
sVaccepted_answer_id
p1368
I6862413
sVowner
p1369
(dp1370
Vuser_id
p1371
I161922
sVprofile_image
p1372
Vhttps://www.gravatar.com/avatar/16e12e337f6edc3750681492656097ed?s=128&d=identicon&r=PG
p1373
sVuser_type
p1374
Vregistered
p1375
sVreputation
p1376
I15954
sVlink
p1377
Vhttp://stackoverflow.com/users/161922/rory
p1378
sVaccept_rate
p1379
I68
sVdisplay_name
p1380
VRory
p1381
ssVtitle
p1382
VChange a django form field to a hidden field
p1383
sVquestion_id
p1384
I6862250
sa(dp1385
Vbody
p1386
V<p>I need to write a function that takes\u000aa <strong>list</strong> of numbers and <strong>multiplies</strong> them together. Example:\u000a<code>[1,2,3,4,5,6]</code> will give me <code>1*2*3*4*5*6</code>. I could really use your help.</p>\u000a
p1387
sVis_answered
p1388
I01
sVview_count
p1389
I93648
sVtags
p1390
(lp1391
Vpython
p1392
aVlist
p1393
aVmultiplication
p1394
asVlast_activity_date
p1395
I1484299574
sVanswer_count
p1396
I8
sVcreation_date
p1397
I1355317214
sVscore
p1398
I76
sVlink
p1399
Vhttp://stackoverflow.com/questions/13840379/how-can-i-multiply-all-items-in-a-list-together-with-python
p1400
sVowner
p1401
(dp1402
Vuser_id
p1403
I1897814
sVprofile_image
p1404
Vhttps://www.gravatar.com/avatar/cb64e6de945dc7a2b72d7e3ede2dcf6f?s=128&d=identicon&r=PG
p1405
sVuser_type
p1406
Vregistered
p1407
sVreputation
p1408
I384
sVlink
p1409
Vhttp://stackoverflow.com/users/1897814/user1897814
p1410
sVdisplay_name
p1411
Vuser1897814
p1412
ssVtitle
p1413
VHow can I multiply all items in a list together with Python?
p1414
sVlast_edit_date
p1415
I1484299574
sVquestion_id
p1416
I13840379
sa(dp1417
Vbody
p1418
V<p>Here's the output.  These are utf-8 strings I believe... some of these can be NoneType but it fails immediately, before ones like that...</p>\u000a\u000a<pre><code>instr = "'%s', '%s', '%d', '%s', '%s', '%s', '%s'" % softname, procversion, int(percent), exe, description, company, procurl\u000a</code></pre>\u000a\u000a<p>TypeError: not enough arguments for format string</p>\u000a\u000a<p>Its 7 for 7 though?</p>\u000a
p1419
sVis_answered
p1420
I01
sVview_count
p1421
I100893
sVtags
p1422
(lp1423
Vpython
p1424
aVstring
p1425
aVformat
p1426
aVtypeerror
p1427
asVlast_activity_date
p1428
I1476527723
sVanswer_count
p1429
I2
sVcreation_date
p1430
I1340310324
sVscore
p1431
I76
sVlink
p1432
Vhttp://stackoverflow.com/questions/11146190/python-typeerror-not-enough-arguments-for-format-string
p1433
sVaccepted_answer_id
p1434
I11146329
sVowner
p1435
(dp1436
Vuser_id
p1437
I206504
sVprofile_image
p1438
Vhttps://www.gravatar.com/avatar/b6a63b3808f15037e9044a43f0620ffd?s=128&d=identicon&r=PG
p1439
sVuser_type
p1440
Vregistered
p1441
sVreputation
p1442
I14093
sVlink
p1443
Vhttp://stackoverflow.com/users/206504/y2k
p1444
sVaccept_rate
p1445
I81
sVdisplay_name
p1446
Vy2k
p1447
ssVtitle
p1448
VPython TypeError: not enough arguments for format string
p1449
sVquestion_id
p1450
I11146190
sa(dp1451
Vbody
p1452
V<p>It is recommended to not to use <code>import *</code> in Python. </p>\u000a\u000a<p>Can anyone please share the reason for that, so that I can avoid it doing next time?</p>\u000a
p1453
sVis_answered
p1454
I01
sVview_count
p1455
I20719
sVtags
p1456
(lp1457
Vpython
p1458
aVpython-import
p1459
asVlast_activity_date
p1460
I1493775694
sVanswer_count
p1461
I11
sVcreation_date
p1462
I1267792841
sVscore
p1463
I76
sVlink
p1464
Vhttp://stackoverflow.com/questions/2386714/why-is-import-bad
p1465
sVaccepted_answer_id
p1466
I2386740
sVowner
p1467
(dp1468
Vuser_id
p1469
I97526
sVprofile_image
p1470
Vhttps://www.gravatar.com/avatar/0dc0d9cddfc966520565699d979d523a?s=128&d=identicon&r=PG
p1471
sVuser_type
p1472
Vregistered
p1473
sVreputation
p1474
I5051
sVlink
p1475
Vhttp://stackoverflow.com/users/97526/software-enthusiastic
p1476
sVaccept_rate
p1477
I58
sVdisplay_name
p1478
VSoftware Enthusiastic
p1479
ssVtitle
p1480
VWhy is &quot;import *&quot; bad?
p1481
sVlast_edit_date
p1482
I1461175189
sVquestion_id
p1483
I2386714
sa(dp1484
Vbody
p1485
V<p>I am trying to request.user for a form's clean method, but how can I access the request object? Can I modify the clean method to allow variables input?</p>\u000a
p1486
sVis_answered
p1487
I01
sVview_count
p1488
I41030
sVtags
p1489
(lp1490
Vpython
p1491
aVdjango
p1492
asVlast_activity_date
p1493
I1451305014
sVanswer_count
p1494
I10
sVcreation_date
p1495
I1246265385
sVscore
p1496
I76
sVlink
p1497
Vhttp://stackoverflow.com/questions/1057252/how-do-i-access-the-request-object-or-any-other-variable-in-a-forms-clean-met
p1498
sVaccepted_answer_id
p1499
I1057640
sVowner
p1500
(dp1501
Vuser_id
p1502
I118644
sVprofile_image
p1503
Vhttps://www.gravatar.com/avatar/773932622381f87d558a0a28d478fc59?s=128&d=identicon&r=PG
p1504
sVuser_type
p1505
Vregistered
p1506
sVreputation
p1507
I4049
sVlink
p1508
Vhttp://stackoverflow.com/users/118644/nubela
p1509
sVaccept_rate
p1510
I75
sVdisplay_name
p1511
Vnubela
p1512
ssVtitle
p1513
VHow do I access the request object or any other variable in a form&#39;s clean() method?
p1514
sVlast_edit_date
p1515
I1336785123
sVquestion_id
p1516
I1057252
sa(dp1517
Vbody
p1518
V<p>Windows XP, Python 2.5:</p>\u000a\u000a<pre><code>hash('http://stackoverflow.com') Result: 1934711907\u000a</code></pre>\u000a\u000a<p>Google App Engine (<a href="http://shell.appspot.com/" rel="noreferrer">http://shell.appspot.com/</a>):</p>\u000a\u000a<pre><code>hash('http://stackoverflow.com') Result: -5768830964305142685\u000a</code></pre>\u000a\u000a<p>Why is that? How can I have a hash function which will give me same results across different platforms (Windows, Linux, Mac)? </p>\u000a
p1519
sVis_answered
p1520
I01
sVview_count
p1521
I93544
sVtags
p1522
(lp1523
Vpython
p1524
aVgoogle-app-engine
p1525
aVhash
p1526
asVlast_activity_date
p1527
I1471991226
sVanswer_count
p1528
I11
sVcreation_date
p1529
I1240842660
sVscore
p1530
I76
sVlink
p1531
Vhttp://stackoverflow.com/questions/793761/built-in-python-hash-function
p1532
sVaccepted_answer_id
p1533
I793772
sVowner
p1534
(dp1535
Vdisplay_name
p1536
Vsm1
p1537
sVuser_type
p1538
Vdoes_not_exist
p1539
ssVtitle
p1540
VBuilt in python hash() function
p1541
sVquestion_id
p1542
I793761
sa(dp1543
Vbody
p1544
V<p>How can I count the number of elements in an array, because contrary to logic array.count(string) does not count all the elements in the array, it just searches for the number of occurrences of string.</p>\u000a
p1545
sVis_answered
p1546
I01
sVview_count
p1547
I179198
sVtags
p1548
(lp1549
Vpython
p1550
aVarrays
p1551
asVlast_activity_date
p1552
I1467235110
sVanswer_count
p1553
I5
sVcreation_date
p1554
I1223561575
sVscore
p1555
I76
sVlink
p1556
Vhttp://stackoverflow.com/questions/187455/counting-array-elements-in-python
p1557
sVaccepted_answer_id
p1558
I187463
sVowner
p1559
(dp1560
Vuser_id
p1561
I115
sVprofile_image
p1562
Vhttps://www.gravatar.com/avatar/198d6d4fed2012d939b47e63e561082f?s=128&d=identicon&r=PG
p1563
sVuser_type
p1564
Vregistered
p1565
sVreputation
p1566
I34089
sVlink
p1567
Vhttp://stackoverflow.com/users/115/unkwntech
p1568
sVaccept_rate
p1569
I97
sVdisplay_name
p1570
VUnkwnTech
p1571
ssVtitle
p1572
VCounting array elements in Python
p1573
sVquestion_id
p1574
I187455
sa(dp1575
Vbody
p1576
V<p>Python does not warrant the use of semicolons to end statements.\u000aSo why is this (below) allowed?</p>\u000a\u000a<pre><code>import pdb; pdb.set_trace()\u000a</code></pre>\u000a
p1577
sVis_answered
p1578
I01
sVview_count
p1579
I50774
sVtags
p1580
(lp1581
Vpython
p1582
asVlast_activity_date
p1583
I1426579650
sVanswer_count
p1584
I11
sVcreation_date
p1585
I1322012909
sVscore
p1586
I76
sVlink
p1587
Vhttp://stackoverflow.com/questions/8236380/why-is-semicolon-allowed-in-this-python-snippet
p1588
sVaccepted_answer_id
p1589
I8236402
sVowner
p1590
(dp1591
Vuser_id
p1592
I834839
sVprofile_image
p1593
Vhttps://www.gravatar.com/avatar/3846bd89a1d8366cd1b6b1cc40fd69d9?s=128&d=identicon&r=PG
p1594
sVuser_type
p1595
Vregistered
p1596
sVreputation
p1597
I2168
sVlink
p1598
Vhttp://stackoverflow.com/users/834839/canadadry
p1599
sVaccept_rate
p1600
I82
sVdisplay_name
p1601
Vcanadadry
p1602
ssVtitle
p1603
VWhy is semicolon allowed in this python snippet?
p1604
sVquestion_id
p1605
I8236380
sa(dp1606
Vbody
p1607
V<p>The following code checks if <code>x</code> and <code>y</code> are distinct values (the variables <code>x</code>, <code>y</code>, <code>z</code> can only have values <code>a</code>, <code>b</code>, or <code>c</code>) and if so, sets <code>z</code> to the third character:</p>\u000a\u000a<pre><code>if x == 'a' and y == 'b' or x == 'b' and y == 'a':\u000a    z = 'c'\u000aelif x == 'b' and y == 'c' or x == 'c' and y == 'b':\u000a    z = 'a'\u000aelif x == 'a' and y == 'c' or x == 'c' and y == 'a':\u000a    z = 'b'\u000a</code></pre>\u000a\u000a<p>Is is possible to do this in a more, concise, readable and efficient way?</p>\u000a
p1608
sVis_answered
p1609
I01
sVview_count
p1610
I3208
sVtags
p1611
(lp1612
Vpython
p1613
aVbenchmarking
p1614
aVmicrobenchmark
p1615
asVlast_activity_date
p1616
I1327570041
sVanswer_count
p1617
I11
sVcreation_date
p1618
I1326129691
sVscore
p1619
I76
sVlink
p1620
Vhttp://stackoverflow.com/questions/8792440/how-can-i-find-the-missing-value-more-concisely
p1621
sVaccepted_answer_id
p1622
I8792467
sVowner
p1623
(dp1624
Vuser_id
p1625
I236106
sVprofile_image
p1626
Vhttps://www.gravatar.com/avatar/46ea107d3eb130cdea38bece3f7d3c26?s=128&d=identicon&r=PG
p1627
sVuser_type
p1628
Vregistered
p1629
sVreputation
p1630
I3080
sVlink
p1631
Vhttp://stackoverflow.com/users/236106/bunny-rabbit
p1632
sVaccept_rate
p1633
I75
sVdisplay_name
p1634
VBunny Rabbit
p1635
ssVtitle
p1636
VHow can I find the missing value more concisely?
p1637
sVlast_edit_date
p1638
I1326181684
sVquestion_id
p1639
I8792440
sa(dp1640
Vbody
p1641
V<p>I installed Spark using the AWS EC2 guide and I can launch the program fine using the <code>bin/pyspark</code> script to get to the spark prompt and can also do the Quick Start quide successfully.</p>\u000a\u000a<p>However, I cannot for the life of me figure out how to stop all of the verbose <code>INFO</code> logging after each command.</p>\u000a\u000a<p>I have tried nearly every possible scenario in the below code (commenting out, setting to OFF) within my <code>log4j.properties</code> file in the <code>conf</code> folder in where I launch the application from as well as on each node and nothing is doing anything. I still get the logging <code>INFO</code> statements printing after executing each statement.</p>\u000a\u000a<p>I am very confused with how this is supposed to work. </p>\u000a\u000a<pre><code>#Set everything to be logged to the console log4j.rootCategory=INFO, console                                                                        \u000alog4j.appender.console=org.apache.log4j.ConsoleAppender \u000alog4j.appender.console.target=System.err     \u000alog4j.appender.console.layout=org.apache.log4j.PatternLayout \u000alog4j.appender.console.layout.ConversionPattern=%d{yy/MM/dd HH:mm:ss} %p %c{1}: %m%n\u000a\u000a# Settings to quiet third party logs that are too verbose\u000alog4j.logger.org.eclipse.jetty=WARN\u000alog4j.logger.org.apache.spark.repl.SparkIMain$exprTyper=INFO\u000alog4j.logger.org.apache.spark.repl.SparkILoop$SparkILoopInterpreter=INFO\u000a</code></pre>\u000a\u000a<p>Here is my full classpath when I use <code>SPARK_PRINT_LAUNCH_COMMAND</code>:</p>\u000a\u000a<blockquote>\u000a  <p>Spark Command:\u000a  /Library/Java/JavaVirtualMachines/jdk1.8.0_05.jdk/Contents/Home/bin/java\u000a  -cp    :/root/spark-1.0.1-bin-hadoop2/conf:/root/spark-1.0.1-bin-hadoop2/conf:/root/spark-1.0.1-bin-hadoop2/lib/spark-assembly-1.0.1-hadoop2.2.0.jar:/root/spark-1.0.1-bin-hadoop2/lib/datanucleus-api-jdo-3.2.1.jar:/root/spark-1.0.1-bin-hadoop2/lib/datanucleus-core-3.2.2.jar:/root/spark-1.0.1-bin-hadoop2/lib/datanucleus-rdbms-3.2.1.jar\u000a  -XX:MaxPermSize=128m -Djava.library.path= -Xms512m -Xmx512m org.apache.spark.deploy.SparkSubmit spark-shell --class\u000a  org.apache.spark.repl.Main</p>\u000a</blockquote>\u000a\u000a<p>contents of <code>spark-env.sh</code>:</p>\u000a\u000a<pre><code>#!/usr/bin/env bash\u000a\u000a# This file is sourced when running various Spark programs.\u000a# Copy it as spark-env.sh and edit that to configure Spark for your site.\u000a\u000a# Options read when launching programs locally with \u000a# ./bin/run-example or ./bin/spark-submit\u000a# - HADOOP_CONF_DIR, to point Spark towards Hadoop configuration files\u000a# - SPARK_LOCAL_IP, to set the IP address Spark binds to on this node\u000a# - SPARK_PUBLIC_DNS, to set the public dns name of the driver program\u000a# - SPARK_CLASSPATH=/root/spark-1.0.1-bin-hadoop2/conf/\u000a\u000a# Options read by executors and drivers running inside the cluster\u000a# - SPARK_LOCAL_IP, to set the IP address Spark binds to on this node\u000a# - SPARK_PUBLIC_DNS, to set the public DNS name of the driver program\u000a# - SPARK_CLASSPATH, default classpath entries to append\u000a# - SPARK_LOCAL_DIRS, storage directories to use on this node for shuffle and RDD data\u000a# - MESOS_NATIVE_LIBRARY, to point to your libmesos.so if you use Mesos\u000a\u000a# Options read in YARN client mode\u000a# - HADOOP_CONF_DIR, to point Spark towards Hadoop configuration files\u000a# - SPARK_EXECUTOR_INSTANCES, Number of workers to start (Default: 2)\u000a# - SPARK_EXECUTOR_CORES, Number of cores for the workers (Default: 1).\u000a# - SPARK_EXECUTOR_MEMORY, Memory per Worker (e.g. 1000M, 2G) (Default: 1G)\u000a# - SPARK_DRIVER_MEMORY, Memory for Master (e.g. 1000M, 2G) (Default: 512 Mb)\u000a# - SPARK_YARN_APP_NAME, The name of your application (Default: Spark)\u000a# - SPARK_YARN_QUEUE, The hadoop queue to use for allocation requests (Default: \u2018default\u2019)\u000a# - SPARK_YARN_DIST_FILES, Comma separated list of files to be distributed with the job.\u000a# - SPARK_YARN_DIST_ARCHIVES, Comma separated list of archives to be distributed with the job.\u000a\u000a# Options for the daemons used in the standalone deploy mode:\u000a# - SPARK_MASTER_IP, to bind the master to a different IP address or hostname\u000a# - SPARK_MASTER_PORT / SPARK_MASTER_WEBUI_PORT, to use non-default ports for the master\u000a# - SPARK_MASTER_OPTS, to set config properties only for the master (e.g. "-Dx=y")\u000a# - SPARK_WORKER_CORES, to set the number of cores to use on this machine\u000a# - SPARK_WORKER_MEMORY, to set how much total memory workers have to give executors (e.g. 1000m, 2g)\u000a# - SPARK_WORKER_PORT / SPARK_WORKER_WEBUI_PORT, to use non-default ports for the worker\u000a# - SPARK_WORKER_INSTANCES, to set the number of worker processes per node\u000a# - SPARK_WORKER_DIR, to set the working directory of worker processes\u000a# - SPARK_WORKER_OPTS, to set config properties only for the worker (e.g. "-Dx=y")\u000a# - SPARK_HISTORY_OPTS, to set config properties only for the history server (e.g. "-Dx=y")\u000a# - SPARK_DAEMON_JAVA_OPTS, to set config properties for all daemons (e.g. "-Dx=y")\u000a# - SPARK_PUBLIC_DNS, to set the public dns name of the master or workers\u000a\u000aexport SPARK_SUBMIT_CLASSPATH="$FWDIR/conf"\u000a</code></pre>\u000a
p1642
sVis_answered
p1643
I01
sVview_count
p1644
I41245
sVtags
p1645
(lp1646
Vpython
p1647
aVhadoop
p1648
aVapache-spark
p1649
aVyarn
p1650
asVlast_activity_date
p1651
I1485216655
sVanswer_count
p1652
I10
sVcreation_date
p1653
I1407451738
sVscore
p1654
I76
sVlink
p1655
Vhttp://stackoverflow.com/questions/25193488/how-to-turn-off-info-logging-in-pyspark
p1656
sVaccepted_answer_id
p1657
I26123496
sVowner
p1658
(dp1659
Vuser_id
p1660
I2329714
sVprofile_image
p1661
Vhttps://www.gravatar.com/avatar/01f5f1c008f1221b3d5f8090751c13b1?s=128&d=identicon&r=PG
p1662
sVuser_type
p1663
Vregistered
p1664
sVreputation
p1665
I1250
sVlink
p1666
Vhttp://stackoverflow.com/users/2329714/horatio1701d
p1667
sVaccept_rate
p1668
I55
sVdisplay_name
p1669
Vhoratio1701d
p1670
ssVtitle
p1671
VHow to turn off INFO logging in PySpark?
p1672
sVlast_edit_date
p1673
I1485216655
sVquestion_id
p1674
I25193488
sa(dp1675
Vbody
p1676
V<p>I'm really confused. I tried to encode but the error said <code>can't decode...</code>. What is Python doing under the hood?</p>\u000a\u000a<pre><code>&gt;&gt;&gt; "\u4f60\u597d".encode("utf8")\u000aTraceback (most recent call last):\u000aFile "&lt;stdin&gt;", line 1, in &lt;module&gt;\u000aUnicodeDecodeError: 'ascii' codec can't decode byte 0xe4 in position 0: ordinal not in range(128)\u000a</code></pre>\u000a
p1677
sVis_answered
p1678
I01
sVview_count
p1679
I163096
sVtags
p1680
(lp1681
Vpython
p1682
aVunicode
p1683
aVpython-2.x
p1684
aVpython-unicode
p1685
asVlast_activity_date
p1686
I1488119375
sVanswer_count
p1687
I5
sVcreation_date
p1688
I1331356246
sVscore
p1689
I76
sVlink
p1690
Vhttp://stackoverflow.com/questions/9644099/python-ascii-codec-cant-decode-byte
p1691
sVaccepted_answer_id
p1692
I9644206
sVowner
p1693
(dp1694
Vuser_id
p1695
I523517
sVprofile_image
p1696
Vhttps://www.gravatar.com/avatar/9cfac53d3d29c8b6486a0ae73c77b8bf?s=128&d=identicon&r=PG
p1697
sVuser_type
p1698
Vregistered
p1699
sVreputation
p1700
I1561
sVlink
p1701
Vhttp://stackoverflow.com/users/523517/thoslin
p1702
sVaccept_rate
p1703
I89
sVdisplay_name
p1704
Vthoslin
p1705
ssVtitle
p1706
VPython - &#39;ascii&#39; codec can&#39;t decode byte
p1707
sVlast_edit_date
p1708
I1481849900
sVquestion_id
p1709
I9644099
sa(dp1710
Vbody
p1711
V<p>So I have a little problem. I have a data set in scipy that is already in the histogram format, so I have the center of the bins and the number of events per bin. How can I now plot is as a histogram. I tried just doing </p>\u000a\u000a<pre><code>bins, n=hist()\u000a</code></pre>\u000a\u000a<p>but it didn't like that. Any recommendations?</p>\u000a
p1712
sVis_answered
p1713
I01
sVview_count
p1714
I101550
sVtags
p1715
(lp1716
Vpython
p1717
aVnumpy
p1718
aVmatplotlib
p1719
aVscipy
p1720
asVlast_activity_date
p1721
I1494086153
sVanswer_count
p1722
I5
sVcreation_date
p1723
I1300293512
sVscore
p1724
I76
sVlink
p1725
Vhttp://stackoverflow.com/questions/5328556/histogram-matplotlib
p1726
sVaccepted_answer_id
p1727
I5328669
sVowner
p1728
(dp1729
Vuser_id
p1730
I662888
sVprofile_image
p1731
Vhttps://www.gravatar.com/avatar/cbe622446cecc2288aa5745ebd2e0cfa?s=128&d=identicon&r=PG
p1732
sVuser_type
p1733
Vregistered
p1734
sVreputation
p1735
I900
sVlink
p1736
Vhttp://stackoverflow.com/users/662888/madtowneast
p1737
sVaccept_rate
p1738
I50
sVdisplay_name
p1739
Vmadtowneast
p1740
ssVtitle
p1741
VHistogram Matplotlib
p1742
sVlast_edit_date
p1743
I1361910120
sVquestion_id
p1744
I5328556
sa(dp1745
Vbody
p1746
V<p>I need to find out how to format numbers as strings. My code is here:</p>\u000a\u000a<pre><code>return str(hours)+":"+str(minutes)+":"+str(seconds)+" "+ampm\u000a</code></pre>\u000a\u000a<p>Hours and minutes are integers, and seconds is a float.  the str() function will convert all of these numbers to the tenths (0.1) place.  So instead of my string outputting "5:30:59.07 pm", it would display something like "5.0:30.0:59.1 pm".</p>\u000a\u000a<p>Bottom line, what library / function do I need to do this for me?</p>\u000a
p1747
sVis_answered
p1748
I01
sVprotected_date
p1749
I1485902104
sVview_count
p1750
I237430
sVtags
p1751
(lp1752
Vpython
p1753
aVstring-formatting
p1754
asVlast_activity_date
p1755
I1482875471
sVaccepted_answer_id
p1756
I22624
sVcreation_date
p1757
I1219417846
sVscore
p1758
I76
sVlink
p1759
Vhttp://stackoverflow.com/questions/22617/format-numbers-to-strings-in-python
p1760
sVanswer_count
p1761
I7
sVowner
p1762
(dp1763
Vuser_id
p1764
I2504
sVprofile_image
p1765
Vhttps://www.gravatar.com/avatar/9e24f8116c535ffff582c497511220b0?s=128&d=identicon&r=PG
p1766
sVuser_type
p1767
Vregistered
p1768
sVreputation
p1769
I6584
sVlink
p1770
Vhttp://stackoverflow.com/users/2504/david-ackerman
p1771
sVaccept_rate
p1772
I100
sVdisplay_name
p1773
VDavid Ackerman
p1774
ssVtitle
p1775
VFormat numbers to strings in Python
p1776
sVlast_edit_date
p1777
I1280159382
sVquestion_id
p1778
I22617
sa(dp1779
Vbody
p1780
V<p>I C# we do it through reflection. In Javascript it is simple as:</p>\u000a\u000a<pre><code>for(var propertyName in objectName)\u000a    var currentPropertyValue = objectName[propertyName];\u000a</code></pre>\u000a\u000a<p>How to do it in Python?</p>\u000a
p1781
sVis_answered
p1782
I01
sVview_count
p1783
I77643
sVtags
p1784
(lp1785
Vpython
p1786
aVreflection
p1787
aVproperties
p1788
asVlast_activity_date
p1789
I1485210827
sVanswer_count
p1790
I6
sVcreation_date
p1791
I1249835582
sVscore
p1792
I76
sVlink
p1793
Vhttp://stackoverflow.com/questions/1251692/how-to-enumerate-an-objects-properties-in-python
p1794
sVaccepted_answer_id
p1795
I1251702
sVowner
p1796
(dp1797
Vuser_id
p1798
I48465
sVprofile_image
p1799
Vhttps://www.gravatar.com/avatar/66b52189c307758fa3274977505ad4d2?s=128&d=identicon&r=PG&f=1
p1800
sVuser_type
p1801
Vregistered
p1802
sVreputation
p1803
I35451
sVlink
p1804
Vhttp://stackoverflow.com/users/48465/jader-dias
p1805
sVaccept_rate
p1806
I98
sVdisplay_name
p1807
VJader Dias
p1808
ssVtitle
p1809
VHow to enumerate an object&#39;s properties in Python?
p1810
sVquestion_id
p1811
I1251692
sa(dp1812
Vbody
p1813
V<p>I'm using itertools.chain to "flatten" a list of lists in this fashion:</p>\u000a\u000a<pre><code>uniqueCrossTabs = list(itertools.chain(*uniqueCrossTabs))\u000a</code></pre>\u000a\u000a<p>how is this different than saying:</p>\u000a\u000a<pre><code>uniqueCrossTabs = list(itertools.chain(uniqueCrossTabs))\u000a</code></pre>\u000a
p1814
sVis_answered
p1815
I01
sVview_count
p1816
I28619
sVtags
p1817
(lp1818
Vpython
p1819
aVoperators
p1820
asVlast_activity_date
p1821
I1444028547
sVanswer_count
p1822
I3
sVcreation_date
p1823
I1299628727
sVscore
p1824
I76
sVlink
p1825
Vhttp://stackoverflow.com/questions/5239856/foggy-on-asterisk-in-python
p1826
sVaccepted_answer_id
p1827
I5239873
sVowner
p1828
(dp1829
Vuser_id
p1830
I226473
sVprofile_image
p1831
Vhttps://www.gravatar.com/avatar/f639c91d1fb06120d12e3169e532d441?s=128&d=identicon&r=PG
p1832
sVuser_type
p1833
Vregistered
p1834
sVreputation
p1835
I6213
sVlink
p1836
Vhttp://stackoverflow.com/users/226473/ramy
p1837
sVaccept_rate
p1838
I91
sVdisplay_name
p1839
VRamy
p1840
ssVtitle
p1841
Vfoggy on asterisk in python
p1842
sVlast_edit_date
p1843
I1356869997
sVquestion_id
p1844
I5239856
sa(dp1845
Vbody
p1846
V<p>Is there a way in Python to list all installed packages and their versions?</p>\u000a\u000a<p>I know I can go inside <code>python/Lib/site-packages</code> and see what files and directories exist, but I find this very awkward. What I'm looking for something that is similar to <code>npm list</code> <a href="https://npmjs.org/doc/list.html">[1]</a>.</p>\u000a
p1847
sVis_answered
p1848
I01
sVview_count
p1849
I123750
sVtags
p1850
(lp1851
Vpython
p1852
asVlast_activity_date
p1853
I1459772878
sVanswer_count
p1854
I7
sVcreation_date
p1855
I1350494989
sVscore
p1856
I76
sVlink
p1857
Vhttp://stackoverflow.com/questions/12939975/how-to-list-all-installed-packages-and-their-versions-in-python
p1858
sVaccepted_answer_id
p1859
I12940002
sVowner
p1860
(dp1861
Vuser_id
p1862
I117919
sVprofile_image
p1863
Vhttps://www.gravatar.com/avatar/71f458589f80dab6ff43f0c6c3f62eb9?s=128&d=identicon&r=PG
p1864
sVuser_type
p1865
Vregistered
p1866
sVreputation
p1867
I16228
sVlink
p1868
Vhttp://stackoverflow.com/users/117919/jsalonen
p1869
sVaccept_rate
p1870
I92
sVdisplay_name
p1871
Vjsalonen
p1872
ssVtitle
p1873
VHow to list all installed packages and their versions in Python?
p1874
sVlast_edit_date
p1875
I1407489592
sVquestion_id
p1876
I12939975
sa(dp1877
Vbody
p1878
V<p>I have the need to take a string argument and create an object of the class named in that string in Python.  In Java, I would use <code>Class.forName().newInstance()</code>.  Is there an equivalent in Python?</p>\u000a\u000a<hr>\u000a\u000a<p>Thanks for the responses.  To answer those who want to know what I'm doing: I want to use a command line argument as the class name, and instantiate it.  I'm actually programming in Jython and instantiating Java classes, hence the Java-ness of the question.  <code>getattr()</code> works great.  Thanks much.</p>\u000a
p1879
sVis_answered
p1880
I01
sVview_count
p1881
I30842
sVtags
p1882
(lp1883
Vjava
p1884
aVpython
p1885
aVclass
p1886
aVinstantiation
p1887
asVlast_activity_date
p1888
I1446759722
sVanswer_count
p1889
I6
sVcreation_date
p1890
I1232179848
sVscore
p1891
I76
sVlink
p1892
Vhttp://stackoverflow.com/questions/452969/does-python-have-an-equivalent-to-java-class-forname
p1893
sVaccepted_answer_id
p1894
I452981
sVowner
p1895
(dp1896
Vuser_id
p1897
I9133
sVprofile_image
p1898
Vhttps://www.gravatar.com/avatar/84352f57cec27c3d5324e2ce5b0f9cc1?s=128&d=identicon&r=PG
p1899
sVuser_type
p1900
Vregistered
p1901
sVreputation
p1902
I648
sVlink
p1903
Vhttp://stackoverflow.com/users/9133/jason
p1904
sVdisplay_name
p1905
VJason
p1906
ssVtitle
p1907
VDoes python have an equivalent to Java Class.forName()?
p1908
sVlast_edit_date
p1909
I1380392201
sVquestion_id
p1910
I452969
sa(dp1911
Vbody
p1912
V<p>I have an Ubuntu 14.04 system, on which I want to install OpenCV and use it with Python 2.x.</p>\u000a\u000a<p>I installed OpenCV using the instructions here:\u000a<a href="https://help.ubuntu.com/community/OpenCV" rel="noreferrer">https://help.ubuntu.com/community/OpenCV</a></p>\u000a\u000a<p>The install seemed to run properly, no errors, the script ended with output </p>\u000a\u000a<pre><code>OpenCV 2.4.9 ready to be used\u000a</code></pre>\u000a\u000a<p>When I try to run the sample Python script, I get the following:</p>\u000a\u000a<pre><code>$ python opencv.py\u000aTraceback (most recent call last):\u000a  File "opencv.py", line 1, in &lt;module&gt;\u000a    from cv2.cv import *\u000aImportError: No module named cv2.cv\u000a</code></pre>\u000a\u000a<p>I suspect I know why, I just don't know how to fix it. OpenCV installed to the current directory I was in when I ran the install script, it's a subdirectory of my home folder. </p>\u000a\u000a<p>Others who get this import error after install seem to be having a path issue, and have luck adding this to their code:</p>\u000a\u000a<pre><code>import sys\u000asys.path.append('/usr/local/lib/python2.7/site-packages')\u000a</code></pre>\u000a\u000a<p>or updating their PYTHONPATH with that same directory. I tried adding that code, it doesn't make a difference. I don't see any files in the "site-packages" directory. Should I have done the install in that directory? I imagine the installation instructions would have spelled that out. I suspect that my problem has to do with Python not finding the OpenCV install, but I'm not sure how to proceed.</p>\u000a\u000a<p>Please help me get a usable install of OpenCV as simply as possible.</p>\u000a
p1913
sVis_answered
p1914
I01
sVview_count
p1915
I157970
sVtags
p1916
(lp1917
Vpython
p1918
aVopencv
p1919
aVubuntu
p1920
aVimporterror
p1921
asVlast_activity_date
p1922
I1489900247
sVanswer_count
p1923
I15
sVcreation_date
p1924
I1407556902
sVscore
p1925
I76
sVlink
p1926
Vhttp://stackoverflow.com/questions/25215102/installing-opencv-for-python-on-ubuntu-getting-importerror-no-module-named-cv2
p1927
sVowner
p1928
(dp1929
Vuser_id
p1930
I2245874
sVprofile_image
p1931
Vhttps://www.gravatar.com/avatar/ab54501c1e2c6a5d355b2dfe9000499b?s=128&d=identicon&r=PG
p1932
sVuser_type
p1933
Vregistered
p1934
sVreputation
p1935
I526
sVlink
p1936
Vhttp://stackoverflow.com/users/2245874/robm
p1937
sVdisplay_name
p1938
Vrobm
p1939
ssVtitle
p1940
VInstalling OpenCV for Python on Ubuntu, getting ImportError: No module named cv2.cv
p1941
sVquestion_id
p1942
I25215102
sa(dp1943
Vbody
p1944
V<p>If I define a class method with a keyword argument thus:</p>\u000a\u000a<pre><code>class foo(object):\u000a  def foodo(thing=None, thong='not underwear'):\u000a    print thing if thing else "nothing" \u000a    print 'a thong is',thong\u000a</code></pre>\u000a\u000a<p>calling the method generates a <code>TypeError</code>:</p>\u000a\u000a<pre><code>myfoo = foo()\u000amyfoo.foodo(thing="something")\u000a\u000a...\u000aTypeError: foodo() got multiple values for keyword argument 'thing'\u000a</code></pre>\u000a\u000a<p>What's going on?</p>\u000a
p1945
sVis_answered
p1946
I01
sVview_count
p1947
I55773
sVtags
p1948
(lp1949
Vpython
p1950
aVclass
p1951
aVpython-2.7
p1952
aVmethods
p1953
asVlast_activity_date
p1954
I1476100582
sVanswer_count
p1955
I6
sVcreation_date
p1956
I1379894925
sVscore
p1957
I76
sVlink
p1958
Vhttp://stackoverflow.com/questions/18950054/class-method-generates-typeerror-got-multiple-values-for-keyword-argument
p1959
sVaccepted_answer_id
p1960
I18950055
sVowner
p1961
(dp1962
Vuser_id
p1963
I420867
sVprofile_image
p1964
Vhttps://i.stack.imgur.com/d3eFg.jpg?s=128&g=1
p1965
sVuser_type
p1966
Vregistered
p1967
sVreputation
p1968
I5525
sVlink
p1969
Vhttp://stackoverflow.com/users/420867/drevicko
p1970
sVaccept_rate
p1971
I67
sVdisplay_name
p1972
Vdrevicko
p1973
ssVtitle
p1974
Vclass method generates &quot;TypeError: ... got multiple values for keyword argument ...&quot;
p1975
sVlast_edit_date
p1976
I1421254222
sVquestion_id
p1977
I18950054
sa(dp1978
Vbody
p1979
V<p>I prefer Python over Scala. But, as Spark is natively written in Scala, I was expecting my code to run faster in the Scala than the Python version for obvious reasons.</p>\u000a\u000a<p>With that assumption, I thought to learn &amp; write the Scala version of some very common preprocessing code for some 1&nbsp;GB of data. Data is picked from the SpringLeaf competition on <a href="https://en.wikipedia.org/wiki/Kaggle" rel="noreferrer">Kaggle</a>. Just to give an overview of the data (it contains 1936 dimensions and 145232 rows). Data is composed of various types e.g. int, float, string, boolean. I am using 6 cores out of 8 for Spark processing; that's why I used minPartitions=6 so that every core has something to process.</p>\u000a\u000a<p><strong>Scala Code</strong></p>\u000a\u000a<pre><code>val input = sc.textFile("train.csv", minPartitions=6)\u000a\u000aval input2 = input.mapPartitionsWithIndex { (idx, iter) =&gt; if (idx == 0) iter.drop(1) else iter }\u000aval delim1 = "\u005c001"\u000a\u000adef separateCols(line: String): Array[String] = {\u000a  val line2 = line.replaceAll("true", "1")\u000a  val line3 = line2.replaceAll("false", "0")\u000a  val vals: Array[String] = line3.split(",")\u000a\u000a  for((x,i) &lt;- vals.view.zipWithIndex) {\u000a    vals(i) = "VAR_%04d".format(i) + delim1 + x\u000a  }\u000a  vals\u000a}\u000a\u000aval input3 = input2.flatMap(separateCols)\u000a\u000adef toKeyVal(line: String): (String, String) = {\u000a  val vals = line.split(delim1)\u000a  (vals(0), vals(1))\u000a}\u000a\u000aval input4 = input3.map(toKeyVal)\u000a\u000adef valsConcat(val1: String, val2: String): String = {\u000a  val1 + "," + val2\u000a}\u000a\u000aval input5 = input4.reduceByKey(valsConcat)\u000a\u000ainput5.saveAsTextFile("output")\u000a</code></pre>\u000a\u000a<p><strong>Python Code</strong></p>\u000a\u000a<pre><code>input = sc.textFile('train.csv', minPartitions=6)\u000aDELIM_1 = '\u005c001'\u000a\u000a\u000adef drop_first_line(index, itr):\u000a  if index == 0:\u000a    return iter(list(itr)[1:])\u000a  else:\u000a    return itr\u000a\u000ainput2 = input.mapPartitionsWithIndex(drop_first_line)\u000a\u000adef separate_cols(line):\u000a  line = line.replace('true', '1').replace('false', '0')\u000a  vals = line.split(',')\u000a  vals2 = ['VAR_%04d%s%s' %(e, DELIM_1, val.strip('\u005c"')) for e, val in enumerate(vals)]\u000a  return vals2\u000a\u000a\u000ainput3 = input2.flatMap(separate_cols)\u000a\u000adef to_key_val(kv):\u000a  key, val = kv.split(DELIM_1)\u000a  return (key, val)\u000ainput4 = input3.map(to_key_val)\u000a\u000adef vals_concat(v1, v2):\u000a  return v1 + ',' + v2\u000a\u000ainput5 = input4.reduceByKey(vals_concat)\u000ainput5.saveAsTextFile('output')\u000a</code></pre>\u000a\u000a<p><strong>Scala Performance</strong>\u000aStage 0 (38 mins), Stage 1 (18 sec)\u000a<a href="https://i.stack.imgur.com/uDJ30.png" rel="noreferrer"><img src="https://i.stack.imgur.com/uDJ30.png" alt="enter image description here"></a></p>\u000a\u000a<p><strong>Python Performance</strong>\u000aStage 0 (11 mins), Stage 1 (7 sec)\u000a<a href="https://i.stack.imgur.com/3wwcQ.png" rel="noreferrer"><img src="https://i.stack.imgur.com/3wwcQ.png" alt="enter image description here"></a></p>\u000a\u000a<p>Both produces different DAG visualisation graphs (due to which both pics show different stage 0 functions for Scala (map) and Python (reduceByKey))</p>\u000a\u000a<p>But, essentially both code tries to transform data into (dimension_id, string of list of values) RDD and save to disk. The output will be used to compute various statistics for each dimension.</p>\u000a\u000a<p>Performance wise, Scala code for this real data like this seems to run <strong>4 times slower</strong> than the Python version.\u000aGood news for me is that it gave me good motivation to stay with Python. Bad news is I didn't quite understand why?</p>\u000a
p1980
sVis_answered
p1981
I01
sVview_count
p1982
I18694
sVtags
p1983
(lp1984
Vpython
p1985
aVperformance
p1986
aVscala
p1987
aVapache-spark
p1988
asVlast_activity_date
p1989
I1491008394
sVanswer_count
p1990
I1
sVcreation_date
p1991
I1441734362
sVscore
p1992
I76
sVlink
p1993
Vhttp://stackoverflow.com/questions/32464122/spark-performance-for-scala-vs-python
p1994
sVowner
p1995
(dp1996
Vuser_id
p1997
I1812141
sVprofile_image
p1998
Vhttps://www.gravatar.com/avatar/c3cb835a12bdbcdb8c69aca976fa4ccd?s=128&d=identicon&r=PG
p1999
sVuser_type
p2000
Vregistered
p2001
sVreputation
p2002
I386
sVlink
p2003
Vhttp://stackoverflow.com/users/1812141/mrityunjay
p2004
sVdisplay_name
p2005
VMrityunjay
p2006
ssVtitle
p2007
VSpark performance for Scala vs Python
p2008
sVlast_edit_date
p2009
I1488580550
sVquestion_id
p2010
I32464122
sa(dp2011
Vbody
p2012
V<p>What's the best way to set a creation date for an object automatically, and also a field that will record when the object was last updated?</p>\u000a\u000a<p>In my model I have:</p>\u000a\u000a<pre><code>created_at = models.DateTimeField(False, True, editable=False)\u000aupdated_at = models.DateTimeField(True, True, editable=False)\u000a</code></pre>\u000a\u000a<p>and in my view:</p>\u000a\u000a<pre><code>if request.method == 'POST':\u000a    form = MyForm(request.POST)\u000a    if form.is_valid():\u000a        obj = form.save(commit=False)\u000a        obj.user = request.user\u000a        obj.save()\u000a        return HttpResponseRedirect('obj_list')\u000a</code></pre>\u000a\u000a<p>I get the error:</p>\u000a\u000a<pre><code>objects_object.created_at may not be NULL\u000a</code></pre>\u000a\u000a<p>Do I have to manually set this value myself? I thought that was the point of the parameters passed to the DateTimeFields (or are they just defaults, and since I've set 'editable=False' they don't get displayed on the form, hence don't get submitted in the request, and therefore don't get put into the form?).</p>\u000a\u000a<p>What's the best way of doing this? An <strong>init</strong> method? </p>\u000a\u000a<p>Thanks</p>\u000a\u000a<p>ps - I'm a django and Python newbie...</p>\u000a
p2013
sVis_answered
p2014
I01
sVview_count
p2015
I36389
sVtags
p2016
(lp2017
Vpython
p2018
aVdjango
p2019
asVlast_activity_date
p2020
I1384114202
sVanswer_count
p2021
I1
sVcreation_date
p2022
I1281172888
sVscore
p2023
I76
sVlink
p2024
Vhttp://stackoverflow.com/questions/3429878/automatic-creation-date-for-django-model-form-objects
p2025
sVaccepted_answer_id
p2026
I3429915
sVowner
p2027
(dp2028
Vuser_id
p2029
I347999
sVprofile_image
p2030
Vhttps://www.gravatar.com/avatar/d5b187e36de81cc373ea17ed6db34026?s=128&d=identicon&r=PG
p2031
sVuser_type
p2032
Vunregistered
p2033
sVreputation
p2034
I1671
sVlink
p2035
Vhttp://stackoverflow.com/users/347999/roger
p2036
sVaccept_rate
p2037
I61
sVdisplay_name
p2038
VRoger
p2039
ssVtitle
p2040
VAutomatic creation date for django model form objects?
p2041
sVquestion_id
p2042
I3429878
sa(dp2043
Vbody
p2044
V<p>this code is get the templates/blog1/page.html  in b.py:</p>\u000a\u000a<pre><code>path = os.path.join(os.path.dirname(__file__), os.path.join('templates', 'blog1/page.html'))\u000a</code></pre>\u000a\u000a<p>but i want to get the parent dir location:</p>\u000a\u000a<pre><code>aParent\u000a   |--a\u000a   |  |---b.py\u000a   |      |---templates\u000a   |              |--------blog1\u000a   |                         |-------page.html\u000a   |--templates\u000a          |--------blog1\u000a                     |-------page.html\u000a</code></pre>\u000a\u000a<p>and  how to get the aParent location</p>\u000a\u000a<p>thanks</p>\u000a\u000a<p><strong>updated:</strong></p>\u000a\u000a<p>this is right:</p>\u000a\u000a<pre><code>dirname=os.path.dirname\u000apath = os.path.join(dirname(dirname(__file__)), os.path.join('templates', 'blog1/page.html'))\u000a</code></pre>\u000a\u000a<p>or </p>\u000a\u000a<pre><code>path = os.path.abspath(os.path.join(os.path.dirname(__file__),".."))\u000a</code></pre>\u000a
p2045
sVis_answered
p2046
I01
sVview_count
p2047
I72674
sVtags
p2048
(lp2049
Vpython
p2050
aVpath
p2051
asVlast_activity_date
p2052
I1474537287
sVanswer_count
p2053
I11
sVcreation_date
p2054
I1273654665
sVscore
p2055
I76
sVlink
p2056
Vhttp://stackoverflow.com/questions/2817264/how-to-get-the-parent-dir-location
p2057
sVaccepted_answer_id
p2058
I2817302
sVowner
p2059
(dp2060
Vuser_id
p2061
I234322
sVprofile_image
p2062
Vhttps://www.gravatar.com/avatar/474edaacceec677e0919b16f8cb8b67e?s=128&d=identicon&r=PG
p2063
sVuser_type
p2064
Vregistered
p2065
sVreputation
p2066
I12659
sVlink
p2067
Vhttp://stackoverflow.com/users/234322/zjm1126
p2068
sVaccept_rate
p2069
I78
sVdisplay_name
p2070
Vzjm1126
p2071
ssVtitle
p2072
VHow to get the parent dir location
p2073
sVlast_edit_date
p2074
I1399442776
sVquestion_id
p2075
I2817264
sa(dp2076
Vbody
p2077
V<p>I'm storing some additional per-user information using the <a href="http://docs.djangoproject.com/en/dev/topics/auth/#storing-additional-information-about-users" rel="noreferrer"><code>AUTH_PROFILE_MODULE</code></a>.</p>\u000a\u000a<p>We can access the user in a Django template using <code>{{ request.user }}</code> but how do we access fields in the profile since the profile is only accessible via a function <code>user.get_profile()</code> ?</p>\u000a\u000a<p>Is it really required to explicitly pass the profile into the template every time?</p>\u000a
p2078
sVis_answered
p2079
I01
sVview_count
p2080
I36934
sVtags
p2081
(lp2082
Vpython
p2083
aVdjango
p2084
aVdjango-templates
p2085
asVlast_activity_date
p2086
I1495117577
sVanswer_count
p2087
I4
sVcreation_date
p2088
I1231363153
sVscore
p2089
I76
sVlink
p2090
Vhttp://stackoverflow.com/questions/422140/how-to-access-the-user-profile-in-a-django-template
p2091
sVaccepted_answer_id
p2092
I422153
sVowner
p2093
(dp2094
Vuser_id
p2095
I4869
sVprofile_image
p2096
Vhttps://www.gravatar.com/avatar/7804a955e69b43b820a3e248c2fa6642?s=128&d=identicon&r=PG
p2097
sVuser_type
p2098
Vregistered
p2099
sVreputation
p2100
I9991
sVlink
p2101
Vhttp://stackoverflow.com/users/4869/swaroop-c-h
p2102
sVaccept_rate
p2103
I73
sVdisplay_name
p2104
VSwaroop C H
p2105
ssVtitle
p2106
VHow to access the user profile in a Django template?
p2107
sVlast_edit_date
p2108
I1462781399
sVquestion_id
p2109
I422140
sa(dp2110
Vbody
p2111
V<p>Is there a rationale to decide which one of <code>try</code> or <code>if</code> constructs to use, when testing variable to have a value?  </p>\u000a\u000a<p>For example, there is a function that returns either a list or doesn't return a value. I want to check result before processing it. Which of the following would be more preferable and why?</p>\u000a\u000a<pre><code>result = function();\u000aif (result):\u000a    for r in result:\u000a        #process items\u000a</code></pre>\u000a\u000a<p>or</p>\u000a\u000a<pre><code>result = function();\u000atry:\u000a    for r in result:\u000a        #process items\u000aexcept TypeError:\u000a    pass;\u000a</code></pre>\u000a\u000a<h3>Related discussion:</h3>\u000a\u000a<p><a href="http://stackoverflow.com/questions/204308/">Checking for member existence in Python</a></p>\u000a
p2112
sVis_answered
p2113
I01
sVview_count
p2114
I23680
sVtags
p2115
(lp2116
Vpython
p2117
asVlast_activity_date
p2118
I1446573034
sVanswer_count
p2119
I9
sVcreation_date
p2120
I1259787517
sVscore
p2121
I76
sVlink
p2122
Vhttp://stackoverflow.com/questions/1835756/using-try-vs-if-in-python
p2123
sVaccepted_answer_id
p2124
I1835844
sVowner
p2125
(dp2126
Vuser_id
p2127
I214178
sVprofile_image
p2128
Vhttps://www.gravatar.com/avatar/8213626e4c66700c3e7354a70b3ac5e1?s=128&d=identicon&r=PG
p2129
sVuser_type
p2130
Vregistered
p2131
sVreputation
p2132
I2405
sVlink
p2133
Vhttp://stackoverflow.com/users/214178/artdanil
p2134
sVaccept_rate
p2135
I100
sVdisplay_name
p2136
Vartdanil
p2137
ssVtitle
p2138
VUsing try vs if in python
p2139
sVlast_edit_date
p2140
I1273613565
sVquestion_id
p2141
I1835756
sa(dp2142
Vbody
p2143
V<p>How can I find the row for which the value of a specific column is <strong>maximal</strong>?</p>\u000a\u000a<p><code>df.max()</code> will give me the maximal value for each column, I don't know how to get the corresponding row.</p>\u000a
p2144
sVis_answered
p2145
I01
sVview_count
p2146
I63766
sVtags
p2147
(lp2148
Vpython
p2149
aVpandas
p2150
asVlast_activity_date
p2151
I1483568556
sVanswer_count
p2152
I3
sVcreation_date
p2153
I1334721595
sVscore
p2154
I76
sVlink
p2155
Vhttp://stackoverflow.com/questions/10202570/pandas-dataframe-find-row-where-values-for-column-is-maximal
p2156
sVaccepted_answer_id
p2157
I10202789
sVowner
p2158
(dp2159
Vuser_id
p2160
I7650
sVprofile_image
p2161
Vhttps://www.gravatar.com/avatar/052338b3d753f00bb7724f2d2ca060a4?s=128&d=identicon&r=PG
p2162
sVuser_type
p2163
Vregistered
p2164
sVreputation
p2165
I6593
sVlink
p2166
Vhttp://stackoverflow.com/users/7650/lazy1
p2167
sVaccept_rate
p2168
I64
sVdisplay_name
p2169
Vlazy1
p2170
ssVtitle
p2171
VPandas DataFrame - Find row where values for column is maximal
p2172
sVlast_edit_date
p2173
I1483568556
sVquestion_id
p2174
I10202570
sa(dp2175
Vbody
p2176
V<p>In Python, how do I create a numpy array of arbitrary shape filled with all True or all False?</p>\u000a
p2177
sVis_answered
p2178
I01
sVview_count
p2179
I46873
sVtags
p2180
(lp2181
Vpython
p2182
aVarrays
p2183
aVnumpy
p2184
asVlast_activity_date
p2185
I1492258590
sVanswer_count
p2186
I5
sVcreation_date
p2187
I1389914521
sVscore
p2188
I76
sVlink
p2189
Vhttp://stackoverflow.com/questions/21174961/how-to-create-a-numpy-array-of-all-true-or-all-false
p2190
sVaccepted_answer_id
p2191
I21174962
sVowner
p2192
(dp2193
Vuser_id
p2194
I1832942
sVprofile_image
p2195
Vhttps://i.stack.imgur.com/VeMux.jpg?s=128&g=1
p2196
sVuser_type
p2197
Vregistered
p2198
sVreputation
p2199
I3662
sVlink
p2200
Vhttp://stackoverflow.com/users/1832942/michael-currie
p2201
sVaccept_rate
p2202
I77
sVdisplay_name
p2203
VMichael Currie
p2204
ssVtitle
p2205
VHow to create a numpy array of all True or all False?
p2206
sVlast_edit_date
p2207
I1440747684
sVquestion_id
p2208
I21174961
sa(dp2209
Vbody
p2210
V<p>I am attempting to filter users by a custom field in each users profile called profile. This field is called level and is an integer between 0-3.</p>\u000a\u000a<p>If I filter using equals, I get a list of users with the chosen level as expected:</p>\u000a\u000a<pre><code>user_list = User.objects.filter(userprofile__level = 0)\u000a</code></pre>\u000a\u000a<p>When I try to filter using less than:</p>\u000a\u000a<pre><code>user_list = User.objects.filter(userprofile__level &lt; 3)\u000a</code></pre>\u000a\u000a<p>I get the error:</p>\u000a\u000a<blockquote>\u000a  <p>global name 'userprofile__level' is not defined</p>\u000a</blockquote>\u000a\u000a<p>Is there away to filter by &lt; or >, or am I barking up the wrong tree.</p>\u000a
p2211
sVis_answered
p2212
I01
sVview_count
p2213
I55730
sVtags
p2214
(lp2215
Vpython
p2216
aVdjango
p2217
aVdjango-queryset
p2218
asVlast_activity_date
p2219
I1419037504
sVanswer_count
p2220
I1
sVcreation_date
p2221
I1333694972
sVscore
p2222
I76
sVlink
p2223
Vhttp://stackoverflow.com/questions/10040143/how-to-do-a-less-than-or-equal-to-filter-in-django-queryset
p2224
sVaccepted_answer_id
p2225
I10040165
sVowner
p2226
(dp2227
Vuser_id
p2228
I787645
sVprofile_image
p2229
Vhttps://www.gravatar.com/avatar/3f8971c0e27e360d1b9b4fba7b820d2d?s=128&d=identicon&r=PG
p2230
sVuser_type
p2231
Vregistered
p2232
sVreputation
p2233
I2096
sVlink
p2234
Vhttp://stackoverflow.com/users/787645/finglish
p2235
sVaccept_rate
p2236
I70
sVdisplay_name
p2237
VFinglish
p2238
ssVtitle
p2239
VHow to do a less than or equal to filter in Django queryset?
p2240
sVlast_edit_date
p2241
I1419037504
sVquestion_id
p2242
I10040143
sa(dp2243
Vbody
p2244
V<p>I can't seem to figure out how to setup a "default" logger for my Django installation. I would like to use Django 1.3's new <code>LOGGING</code> setting in <code>settings.py</code>.</p>\u000a\u000a<p>I've looked at the <a href="http://docs.djangoproject.com/en/1.3/topics/logging/#an-example" rel="noreferrer">Django Logging Doc's example</a>, but it looks to me like they only setup handlers which will do logging for particular loggers. In the case of their example they setup handler for the loggers named 'django','django.request', and 'myproject.custom'.</p>\u000a\u000a<p>All I want to do is setup a default <code>logging.handlers.RotatingFileHandler</code> which will handle all loggers by default. i.e., if I make a new module somewhere in my project and it is denoted by something like: <code>my_app_name.my_new_module</code>, I should be able to do this and have all logging goto the rotating file logs.</p>\u000a\u000a<pre><code># In file './my_app_name/my_new_module.py'\u000aimport logging\u000alogger = logging.getLogger('my_app_name.my_new_module')\u000alogger.debug('Hello logs!') # &lt;-- This should get logged to my RotatingFileHandler that I setup in `settings.py`!\u000a</code></pre>\u000a
p2245
sVis_answered
p2246
I01
sVview_count
p2247
I31851
sVtags
p2248
(lp2249
Vpython
p2250
aVdjango
p2251
aVlogging
p2252
asVlast_activity_date
p2253
I1494439118
sVanswer_count
p2254
I3
sVcreation_date
p2255
I1301090820
sVscore
p2256
I76
sVlink
p2257
Vhttp://stackoverflow.com/questions/5438642/django-setup-default-logging
p2258
sVaccepted_answer_id
p2259
I5439502
sVowner
p2260
(dp2261
Vuser_id
p2262
I273637
sVprofile_image
p2263
Vhttps://www.gravatar.com/avatar/89b9c456e8b6945d1e5fd87addf4f739?s=128&d=identicon&r=PG
p2264
sVuser_type
p2265
Vregistered
p2266
sVreputation
p2267
I13723
sVlink
p2268
Vhttp://stackoverflow.com/users/273637/chris-w
p2269
sVaccept_rate
p2270
I89
sVdisplay_name
p2271
VChris W.
p2272
ssVtitle
p2273
VDjango Setup Default Logging
p2274
sVquestion_id
p2275
I5438642
sa(dp2276
Vbody
p2277
V<p>What's the usage of the tilde operator in Python?</p>\u000a\u000a<p>One thing I can think about is do something in both sides of a string or list, such as check if a string is palindromic or not:</p>\u000a\u000a<pre><code>def is_palindromic(s):\u000a    return all(s[i] == s[~i] for i in range(len(s) / 2)) \u000a</code></pre>\u000a\u000a<p>Any other good usage?</p>\u000a
p2278
sVis_answered
p2279
I01
sVview_count
p2280
I28892
sVtags
p2281
(lp2282
Vpython
p2283
aVoperators
p2284
asVlast_activity_date
p2285
I1472970795
sVanswer_count
p2286
I3
sVcreation_date
p2287
I1322534636
sVscore
p2288
I76
sVlink
p2289
Vhttp://stackoverflow.com/questions/8305199/the-tilde-operator-in-python
p2290
sVaccepted_answer_id
p2291
I8305291
sVowner
p2292
(dp2293
Vuser_id
p2294
I477865
sVprofile_image
p2295
Vhttps://i.stack.imgur.com/thOfN.gif?s=128&g=1
p2296
sVuser_type
p2297
Vregistered
p2298
sVreputation
p2299
I4943
sVlink
p2300
Vhttp://stackoverflow.com/users/477865/clwen
p2301
sVaccept_rate
p2302
I89
sVdisplay_name
p2303
Vclwen
p2304
ssVtitle
p2305
VThe tilde operator in Python
p2306
sVquestion_id
p2307
I8305199
sa(dp2308
Vclosed_date
p2309
I1373248503
sVis_answered
p2310
I01
sVclosed_reason
p2311
Vduplicate
p2312
sVview_count
p2313
I44539
sVtags
p2314
(lp2315
Vpython
p2316
aVarguments
p2317
asVbody
p2318
V<p>Is there syntax that allows you to expand a list into the arguments of a function call?</p>\u000a\u000a<p>Example:</p>\u000a\u000a<pre><code># Trivial example function, not meant to do anything useful.\u000adef foo(x,y,z):\u000a   return "%d, %d, %d" %(x,y,z)\u000a\u000a# List of values that I want to pass into foo.\u000avalues = [1,2,3]\u000a\u000a# I want to do something like this, and get the result "1, 2, 3":\u000afoo( values.howDoYouExpandMe() )\u000a</code></pre>\u000a
p2319
sVlast_activity_date
p2320
I1489054465
sVaccepted_answer_id
p2321
I7745986
sVcreation_date
p2322
I1318450265
sVscore
p2323
I76
sVlink
p2324
Vhttp://stackoverflow.com/questions/7745952/how-to-expand-a-list-to-function-arguments-in-python
p2325
sVanswer_count
p2326
I4
sVowner
p2327
(dp2328
Vuser_id
p2329
I942746
sVprofile_image
p2330
Vhttps://www.gravatar.com/avatar/34cf9eae5d595c0b480a7cb42f3722b1?s=128&d=identicon&r=PG
p2331
sVuser_type
p2332
Vregistered
p2333
sVreputation
p2334
I3806
sVlink
p2335
Vhttp://stackoverflow.com/users/942746/brian-mcfarland
p2336
sVaccept_rate
p2337
I83
sVdisplay_name
p2338
VBrian McFarland
p2339
ssVtitle
p2340
VHow to expand a list to function arguments in Python
p2341
sVlast_edit_date
p2342
I1489054465
sVquestion_id
p2343
I7745952
sa(dp2344
Vbody
p2345
V<p>From my understanding :</p>\u000a\u000a<p><strong>Interpreted</strong> : <em>A high level language run and executed by an Interpreter(a program which converts the high-level language to machine code and then executing) on the go; It processes the program a little at a time.</em></p>\u000a\u000a<p><strong>Compiled</strong> : <em>A high level language whose code is first converted to machine-code by a compiler(a programming which converts the high-level language to machine code) and then executed by Executor(another program for running the code).</em></p>\u000a\u000a<p><em><strong>Correct me, if my definitions are wrong</em></strong></p>\u000a\u000a<p>Now, coming back to python, i am bit confused about this. Every where you can learn that python is an interpreted language but it's not interpreted to the machine code, instead to some intermediate code(like byte-code or IL). So which program then executes the IM code. Please help me understand how is a python script handled and run.  </p>\u000a
p2346
sVis_answered
p2347
I01
sVview_count
p2348
I63527
sVtags
p2349
(lp2350
Vpython
p2351
aVinterpreted-language
p2352
asVlast_activity_date
p2353
I1485268365
sVanswer_count
p2354
I5
sVcreation_date
p2355
I1312119111
sVscore
p2356
I76
sVlink
p2357
Vhttp://stackoverflow.com/questions/6889747/is-python-interpreted-or-compiled-or-both
p2358
sVaccepted_answer_id
p2359
I6889798
sVowner
p2360
(dp2361
Vuser_id
p2362
I570928
sVprofile_image
p2363
Vhttps://www.gravatar.com/avatar/5661dc303d334cf11df27592f4c0811a?s=128&d=identicon&r=PG
p2364
sVuser_type
p2365
Vregistered
p2366
sVreputation
p2367
I5152
sVlink
p2368
Vhttp://stackoverflow.com/users/570928/pankaj-upadhyay
p2369
sVaccept_rate
p2370
I93
sVdisplay_name
p2371
VPankaj Upadhyay
p2372
ssVtitle
p2373
VIs Python interpreted or compiled or both?
p2374
sVlast_edit_date
p2375
I1400707156
sVquestion_id
p2376
I6889747
sa(dp2377
Vbody
p2378
V<p>In shells like the interactive python shell, you can usually use the arrow keys to move around in the current line or get previous commands (with arrow-up) etc.</p>\u000a\u000a<p>But after I ssh into another machine and start <code>python</code> there, I get sessions like:</p>\u000a\u000a<pre><code>&gt;&gt;&gt; import os \u000a&gt;&gt;&gt; ^[[A    \u000a</code></pre>\u000a\u000a<p>where the last character comes from arrow-up. Or, using arrow-left:</p>\u000a\u000a<pre><code>&gt;&gt;&gt; impor^[[D\u000a</code></pre>\u000a\u000a<p>How can I fix this?</p>\u000a\u000a<p>In the regular bash, arrow keys work fine. The weird behavior is just in the interactive python (or perl etc.) shell.</p>\u000a
p2379
sVis_answered
p2380
I01
sVview_count
p2381
I25319
sVtags
p2382
(lp2383
Vpython
p2384
aVshell
p2385
aVssh
p2386
aVarrow-keys
p2387
asVlast_activity_date
p2388
I1489123547
sVanswer_count
p2389
I14
sVcreation_date
p2390
I1242914132
sVscore
p2391
I76
sVlink
p2392
Vhttp://stackoverflow.com/questions/893053/seeing-escape-characters-when-pressing-the-arrow-keys-in-python-shell
p2393
sVaccepted_answer_id
p2394
I893200
sVowner
p2395
(dp2396
Vuser_id
p2397
I60628
sVprofile_image
p2398
Vhttps://www.gravatar.com/avatar/837d78446554c800d404141dd0172ccc?s=128&d=identicon&r=PG
p2399
sVuser_type
p2400
Vregistered
p2401
sVreputation
p2402
I24422
sVlink
p2403
Vhttp://stackoverflow.com/users/60628/frank
p2404
sVaccept_rate
p2405
I74
sVdisplay_name
p2406
VFrank
p2407
ssVtitle
p2408
VSeeing escape characters when pressing the arrow keys in python shell
p2409
sVlast_edit_date
p2410
I1425841802
sVquestion_id
p2411
I893053
sa(dp2412
Vbody
p2413
V<p>If I want to use the results of <code>argparse.ArgumentParser()</code>, which is a <code>Namespace</code> object, with a method that expects a dictionary or mapping-like object (see <a href="http://docs.python.org/2/library/collections.html#collections.Mapping" rel="noreferrer">collections.Mapping</a>), what is the right way to do it?</p>\u000a\u000a<pre><code>C:\u005c&gt;python\u000aPython 2.7.3 (default, Apr 10 2012, 23:31:26) [MSC v.1500 32 bit (Intel)] on win\u000a32\u000aType "help", "copyright", "credits" or "license" for more information.\u000a&gt;&gt;&gt; import argparse\u000a&gt;&gt;&gt; args = argparse.Namespace()\u000a&gt;&gt;&gt; args.foo = 1\u000a&gt;&gt;&gt; args.bar = [1,2,3]\u000a&gt;&gt;&gt; args.baz = 'yippee'\u000a&gt;&gt;&gt; args['baz']\u000aTraceback (most recent call last):\u000a  File "&lt;stdin&gt;", line 1, in &lt;module&gt;\u000aTypeError: 'Namespace' object has no attribute '__getitem__'\u000a&gt;&gt;&gt; dir(args)\u000a['__class__', '__contains__', '__delattr__', '__dict__', '__doc__', '__eq__', '_\u000a_format__', '__getattribute__', '__hash__', '__init__', '__module__', '__ne__',\u000a'__new__', '__reduce__', '__reduce_ex__', '__repr__', '__setattr__', '__sizeof__\u000a', '__str__', '__subclasshook__', '__weakref__', '_get_args', '_get_kwargs', 'ba\u000ar', 'baz', 'foo']\u000a</code></pre>\u000a\u000a<p><strong>Is it proper to "reach into" an object and use its <code>__dict__</code> property?</strong></p>\u000a\u000a<p>I would think the answer is no: <code>__dict__</code> smells like a convention for implementation, but not for an interface, the way <code>__getattribute__</code> or <code>__setattr__</code> or <code>__contains__</code> seem to be.</p>\u000a
p2414
sVis_answered
p2415
I01
sVview_count
p2416
I32616
sVtags
p2417
(lp2418
Vpython
p2419
aVdictionary
p2420
aVduck-typing
p2421
asVlast_activity_date
p2422
I1424107032
sVanswer_count
p2423
I3
sVcreation_date
p2424
I1370129636
sVscore
p2425
I76
sVlink
p2426
Vhttp://stackoverflow.com/questions/16878315/what-is-the-right-way-to-treat-python-argparse-namespace-as-a-dictionary
p2427
sVaccepted_answer_id
p2428
I16878364
sVowner
p2429
(dp2430
Vuser_id
p2431
I44330
sVprofile_image
p2432
Vhttps://www.gravatar.com/avatar/dd5a7ef1476fb01998a215b1642dfd07?s=128&d=identicon&r=PG
p2433
sVuser_type
p2434
Vregistered
p2435
sVreputation
p2436
I91631
sVlink
p2437
Vhttp://stackoverflow.com/users/44330/jason-s
p2438
sVaccept_rate
p2439
I70
sVdisplay_name
p2440
VJason S
p2441
ssVtitle
p2442
Vwhat is the right way to treat Python argparse.Namespace() as a dictionary?
p2443
sVquestion_id
p2444
I16878315
sa(dp2445
Vbody
p2446
V<p>There is a tutorial in the IDEA docs on how to add a Python interpreter in PyCharm, which involves accessing the "Project Interpreter" page. Even after installing the Python plugin, I don't see that setting anywhere.</p>\u000a\u000a<p>Am I missing something obvious?</p>\u000a
p2447
sVis_answered
p2448
I01
sVview_count
p2449
I26396
sVtags
p2450
(lp2451
Vpython
p2452
aVintellij-idea
p2453
asVlast_activity_date
p2454
I1438367760
sVanswer_count
p2455
I1
sVcreation_date
p2456
I1405462710
sVscore
p2457
I76
sVlink
p2458
Vhttp://stackoverflow.com/questions/24769117/how-do-i-configure-a-python-interpreter-in-intellij-idea-with-the-pycharm-plugin
p2459
sVowner
p2460
(dp2461
Vuser_id
p2462
I160137
sVprofile_image
p2463
Vhttps://www.gravatar.com/avatar/432fcf0d43d64c1189d9672716ac679d?s=128&d=identicon&r=PG
p2464
sVuser_type
p2465
Vregistered
p2466
sVreputation
p2467
I1069
sVlink
p2468
Vhttp://stackoverflow.com/users/160137/kousen
p2469
sVaccept_rate
p2470
I42
sVdisplay_name
p2471
Vkousen
p2472
ssVtitle
p2473
VHow do I configure a Python interpreter in IntelliJ IDEA with the PyCharm plugin?
p2474
sVquestion_id
p2475
I24769117
sa(dp2476
Vbody
p2477
V<p>What is exactly the function of Python's Global Interpreter Lock?\u000aDo other languages that are compiled to bytecode employ a similar mechanism?</p>\u000a
p2478
sVis_answered
p2479
I01
sVview_count
p2480
I13831
sVtags
p2481
(lp2482
Vpython
p2483
aVmultithreading
p2484
aVscripting
p2485
aVlocking
p2486
aVbytecode
p2487
asVlast_activity_date
p2488
I1466088003
sVanswer_count
p2489
I6
sVcreation_date
p2490
I1225902228
sVscore
p2491
I76
sVlink
p2492
Vhttp://stackoverflow.com/questions/265687/why-the-global-interpreter-lock
p2493
sVowner
p2494
(dp2495
Vuser_id
p2496
I18770
sVprofile_image
p2497
Vhttps://www.gravatar.com/avatar/bf7da0bc3f01f63e4f19c421b331e786?s=128&d=identicon&r=PG
p2498
sVuser_type
p2499
Vregistered
p2500
sVreputation
p2501
I30806
sVlink
p2502
Vhttp://stackoverflow.com/users/18770/federico-a-ramponi
p2503
sVaccept_rate
p2504
I63
sVdisplay_name
p2505
VFederico A. Ramponi
p2506
ssVtitle
p2507
VWhy the Global Interpreter Lock?
p2508
sVlast_edit_date
p2509
I1225915657
sVquestion_id
p2510
I265687
sa(dp2511
Vbody
p2512
V<p>I'm having trouble understanding <code>__file__</code>. From what I understand, <code>__file__</code> returns the absolute path from which the module was loaded. </p>\u000a\u000a<p>I'm having problem producing this: I have a <code>abc.py</code> with one statement <code>print __file__</code>, running from <code>/d/projects/</code> <code>python abc.py</code> returns <code>abc.py</code>. running from <code>/d/</code> returns <code>projects/abc.py</code>. Any reasons why?</p>\u000a
p2513
sVis_answered
p2514
I01
sVview_count
p2515
I72927
sVtags
p2516
(lp2517
Vpython
p2518
asVlast_activity_date
p2519
I1478470292
sVanswer_count
p2520
I4
sVcreation_date
p2521
I1313727488
sVscore
p2522
I76
sVlink
p2523
Vhttp://stackoverflow.com/questions/7116889/python-file-attribute-absolute-or-relative
p2524
sVaccepted_answer_id
p2525
I7116925
sVowner
p2526
(dp2527
Vuser_id
p2528
I357236
sVprofile_image
p2529
Vhttps://www.gravatar.com/avatar/6bdfd8b1fab6e88177b5064115418734?s=128&d=identicon&r=PG
p2530
sVuser_type
p2531
Vregistered
p2532
sVreputation
p2533
I5639
sVlink
p2534
Vhttp://stackoverflow.com/users/357236/goh
p2535
sVaccept_rate
p2536
I67
sVdisplay_name
p2537
Vgoh
p2538
ssVtitle
p2539
VPython __file__ attribute absolute or relative?
p2540
sVlast_edit_date
p2541
I1313730882
sVquestion_id
p2542
I7116889
sa(dp2543
Vbody
p2544
V<p>What's a correct and good way to implement <code>__hash__()</code>?</p>\u000a\u000a<p>I am talking about the function that returns a hashcode that is then used to insert objects into hashtables aka dictionaries.</p>\u000a\u000a<p>As <code>__hash__()</code> returns an integer and is used for "binning" objects into hashtables I assume that the values of the returned integer should be uniformly distributed for common data (to minimize collisions).\u000aWhat's a good practice to get such values? Are collisions a problem?\u000aIn my case I have a small class which acts as a container class holding some ints, some floats and a string.</p>\u000a
p2545
sVis_answered
p2546
I01
sVview_count
p2547
I32297
sVtags
p2548
(lp2549
Vpython
p2550
aVhashtable
p2551
aVhashcode
p2552
aVdictionary
p2553
asVlast_activity_date
p2554
I1486653090
sVanswer_count
p2555
I5
sVcreation_date
p2556
I1274828206
sVscore
p2557
I76
sVlink
p2558
Vhttp://stackoverflow.com/questions/2909106/whats-a-correct-and-good-way-to-implement-hash
p2559
sVaccepted_answer_id
p2560
I2909119
sVowner
p2561
(dp2562
Vuser_id
p2563
I229898
sVprofile_image
p2564
Vhttps://www.gravatar.com/avatar/38f267797c171f396329410c7bb817d9?s=128&d=identicon&r=PG
p2565
sVuser_type
p2566
Vregistered
p2567
sVreputation
p2568
I532
sVlink
p2569
Vhttp://stackoverflow.com/users/229898/user229898
p2570
sVdisplay_name
p2571
Vuser229898
p2572
ssVtitle
p2573
VWhat&#39;s a correct and good way to implement __hash__()?
p2574
sVlast_edit_date
p2575
I1486653090
sVquestion_id
p2576
I2909106
sa(dp2577
Vbody
p2578
V<p>For example, I have a string like this(return value of <code>subprocess.check_output</code>):</p>\u000a\u000a<pre><code>&gt;&gt;&gt; b'a string'\u000ab'a string'\u000a</code></pre>\u000a\u000a<p>Whatever I did to it, it is always printed with the annoying <code>b'</code> before the string:</p>\u000a\u000a<pre><code>&gt;&gt;&gt; print(b'a string')\u000ab'a string'\u000a&gt;&gt;&gt; print(str(b'a string'))\u000ab'a string'\u000a</code></pre>\u000a\u000a<p>Does anyone have any ideas about how to use it as a normal string or convert it into a normal string? </p>\u000a
p2579
sVis_answered
p2580
I01
sVview_count
p2581
I63128
sVtags
p2582
(lp2583
Vpython
p2584
aVstring
p2585
aVpython-3.x
p2586
aVbinary
p2587
asVlast_activity_date
p2588
I1486172581
sVanswer_count
p2589
I2
sVcreation_date
p2590
I1373633706
sVscore
p2591
I76
sVlink
p2592
Vhttp://stackoverflow.com/questions/17615414/how-to-convert-binary-string-to-normal-string-in-python3
p2593
sVaccepted_answer_id
p2594
I17615424
sVowner
p2595
(dp2596
Vuser_id
p2597
I1272683
sVprofile_image
p2598
Vhttps://www.gravatar.com/avatar/6ea2bbebf39d8f4d9ba654471289d576?s=128&d=identicon&r=PG
p2599
sVuser_type
p2600
Vregistered
p2601
sVreputation
p2602
I13523
sVlink
p2603
Vhttp://stackoverflow.com/users/1272683/hanfei-sun
p2604
sVaccept_rate
p2605
I81
sVdisplay_name
p2606
VHanfei Sun
p2607
ssVtitle
p2608
VHow to convert &#39;binary string&#39; to normal string in Python3?
p2609
sVquestion_id
p2610
I17615414
sa(dp2611
Vbody
p2612
V<p>Okay, bear with me on this, I know it's going to look horribly convoluted, but please help me understand what's happening.</p>\u000a\u000a<pre><code>from functools import partial\u000a\u000aclass Cage(object):\u000a    def __init__(self, animal):\u000a        self.animal = animal\u000a\u000adef gotimes(do_the_petting):\u000a    do_the_petting()\u000a\u000adef get_petters():\u000a    for animal in ['cow', 'dog', 'cat']:\u000a        cage = Cage(animal)\u000a\u000a        def pet_function():\u000a            print "Mary pets the " + cage.animal + "."\u000a\u000a        yield (animal, partial(gotimes, pet_function))\u000a\u000afuns = list(get_petters())\u000a\u000afor name, f in funs:\u000a    print name + ":", \u000a    f()\u000a</code></pre>\u000a\u000a<p>Gives:</p>\u000a\u000a<pre><code>cow: Mary pets the cat.\u000adog: Mary pets the cat.\u000acat: Mary pets the cat.\u000a</code></pre>\u000a\u000a<p>So basically, why am I not getting three different animals? Isn't the <code>cage</code> 'packaged' into the local scope of the nested function? If not, how does a call to the nested function look up the local variables?</p>\u000a\u000a<p>I know that running into these kind of problems usually means one is 'doing it wrong', but I'd like to understand what happens.</p>\u000a
p2613
sVis_answered
p2614
I01
sVview_count
p2615
I6021
sVtags
p2616
(lp2617
Vpython
p2618
aVscope
p2619
aVclosures
p2620
aVnested-function
p2621
asVlast_activity_date
p2622
I1490794057
sVanswer_count
p2623
I3
sVcreation_date
p2624
I1347622090
sVscore
p2625
I76
sVlink
p2626
Vhttp://stackoverflow.com/questions/12423614/local-variables-in-python-nested-functions
p2627
sVaccepted_answer_id
p2628
I12423750
sVowner
p2629
(dp2630
Vuser_id
p2631
I224949
sVprofile_image
p2632
Vhttps://www.gravatar.com/avatar/cf7d83c01bbbe577e594bcf35ba3fecc?s=128&d=identicon&r=PG
p2633
sVuser_type
p2634
Vregistered
p2635
sVreputation
p2636
I2459
sVlink
p2637
Vhttp://stackoverflow.com/users/224949/noio
p2638
sVaccept_rate
p2639
I94
sVdisplay_name
p2640
Vnoio
p2641
ssVtitle
p2642
VLocal variables in Python nested functions
p2643
sVlast_edit_date
p2644
I1490605921
sVquestion_id
p2645
I12423614
sa(dp2646
Vbody
p2647
V<p>What I want is this behavior:</p>\u000a\u000a<pre><code>class a:\u000a    list=[]\u000a\u000ay=a()\u000ax=a()\u000a\u000a\u000ax.list.append(1)\u000ay.list.append(2)\u000ax.list.append(3)\u000ay.list.append(4)\u000a\u000aprint x.list\u000a    [1,3]\u000aprint y.list\u000a    [2,4]\u000a</code></pre>\u000a\u000a<p>of course, what really happens when I print is:</p>\u000a\u000a<pre><code>print x.list\u000a    [1,2,3,4]\u000aprint y.list\u000a    [1,2,3,4]\u000a</code></pre>\u000a\u000a<p>clearly they are sharing the data in class <code>a</code>. how do I get separate instances to achieve the behavior I desire?</p>\u000a
p2648
sVis_answered
p2649
I01
sVview_count
p2650
I11212
sVtags
p2651
(lp2652
Vpython
p2653
aVclass
p2654
asVlast_activity_date
p2655
I1484593390
sVanswer_count
p2656
I7
sVcreation_date
p2657
I1257427195
sVscore
p2658
I76
sVlink
p2659
Vhttp://stackoverflow.com/questions/1680528/how-do-i-avoid-having-class-data-shared-among-instances
p2660
sVaccepted_answer_id
p2661
I1680555
sVowner
p2662
(dp2663
Vuser_id
p2664
I150564
sVprofile_image
p2665
Vhttps://www.gravatar.com/avatar/0b27e0735cdb87222f2342f5f97875a5?s=128&d=identicon&r=PG
p2666
sVuser_type
p2667
Vregistered
p2668
sVreputation
p2669
I625
sVlink
p2670
Vhttp://stackoverflow.com/users/150564/8steve8
p2671
sVaccept_rate
p2672
I62
sVdisplay_name
p2673
V8steve8
p2674
ssVtitle
p2675
VHow do I avoid having class data shared among instances?
p2676
sVlast_edit_date
p2677
I1476279306
sVquestion_id
p2678
I1680528
sa(dp2679
Vbody
p2680
V<p>I'm learning how to use mplot3d to produce nice plots of 3d data and I'm pretty happy so far. What I am trying to do at the moment is a little animation of a rotating surface. For that purpose, I need to set a camera position for the 3D projection. I guess this must be possible since a surface can be rotated using the mouse when using matplotlib interactively. But how can I do this from a script?\u000aI found a lot of transforms in mpl_toolkits.mplot3d.proj3d but I could not find out how to use these for my purpose and I didn't find any example for what I'm trying to do.</p>\u000a
p2681
sVis_answered
p2682
I01
sVview_count
p2683
I36828
sVtags
p2684
(lp2685
Vpython
p2686
aVmatplotlib
p2687
aVmplot3d
p2688
asVlast_activity_date
p2689
I1475869660
sVanswer_count
p2690
I2
sVcreation_date
p2691
I1350339918
sVscore
p2692
I76
sVlink
p2693
Vhttp://stackoverflow.com/questions/12904912/how-to-set-camera-position-for-3d-plots-using-python-matplotlib
p2694
sVaccepted_answer_id
p2695
I12905458
sVowner
p2696
(dp2697
Vuser_id
p2698
I1748371
sVprofile_image
p2699
Vhttps://www.gravatar.com/avatar/3a8384d233244912b2b8a0060d4756ff?s=128&d=identicon&r=PG
p2700
sVuser_type
p2701
Vregistered
p2702
sVreputation
p2703
I493
sVlink
p2704
Vhttp://stackoverflow.com/users/1748371/andreas-bleuler
p2705
sVdisplay_name
p2706
VAndreas Bleuler
p2707
ssVtitle
p2708
Vhow to set &quot;camera position&quot; for 3d plots using python/matplotlib?
p2709
sVquestion_id
p2710
I12904912
sa(dp2711
Vbody
p2712
V<p>I am trying to write a wrapper script for a command line program (svnadmin verify) that will display a nice progress indicator for the operation.  This requires me to be able to see each line of output from the wrapped program as soon as it is output.</p>\u000a\u000a<p>I figured that I'd just execute the program using <code>subprocess.Popen</code>, use <code>stdout=PIPE</code>, then read each line as it came in and act on it accordingly.  However, when I ran the following code, the output appeared to be buffered somewhere, causing it to appear in two chunks, lines 1 through 332, then 333 through 439 (the last line of output)</p>\u000a\u000a<pre><code>from subprocess import Popen, PIPE, STDOUT\u000a\u000ap = Popen('svnadmin verify /var/svn/repos/config', stdout = PIPE, \u000a        stderr = STDOUT, shell = True)\u000afor line in p.stdout:\u000a    print line.replace('\u005cn', '')\u000a</code></pre>\u000a\u000a<p>After looking at the documentation on subprocess a little, I discovered the <code>bufsize</code> parameter to <code>Popen</code>, so I tried setting bufsize to 1 (buffer each line) and 0 (no buffer), but neither value seemed to change the way the lines were being delivered.</p>\u000a\u000a<p>At this point I was starting to grasp for straws, so I wrote the following output loop:</p>\u000a\u000a<pre><code>while True:\u000a    try:\u000a        print p.stdout.next().replace('\u005cn', '')\u000a    except StopIteration:\u000a        break\u000a</code></pre>\u000a\u000a<p>but got the same result.</p>\u000a\u000a<p>Is it possible to get 'realtime' program output of a program executed using subprocess?  Is there some other option in Python that is forward-compatible (not <code>exec*</code>)?</p>\u000a
p2713
sVis_answered
p2714
I01
sVview_count
p2715
I49064
sVtags
p2716
(lp2717
Vpython
p2718
aVsubprocess
p2719
asVlast_activity_date
p2720
I1494945650
sVanswer_count
p2721
I10
sVcreation_date
p2722
I1241023548
sVscore
p2723
I76
sVlink
p2724
Vhttp://stackoverflow.com/questions/803265/getting-realtime-output-using-subprocess
p2725
sVaccepted_answer_id
p2726
I803421
sVowner
p2727
(dp2728
Vuser_id
p2729
I5624
sVprofile_image
p2730
Vhttps://www.gravatar.com/avatar/231c7e3ae22e214c562cdff1acd41f89?s=128&d=identicon&r=PG
p2731
sVuser_type
p2732
Vregistered
p2733
sVreputation
p2734
I1161
sVlink
p2735
Vhttp://stackoverflow.com/users/5624/chris-lieb
p2736
sVaccept_rate
p2737
I83
sVdisplay_name
p2738
VChris Lieb
p2739
ssVtitle
p2740
VGetting realtime output using subprocess
p2741
sVlast_edit_date
p2742
I1494945650
sVquestion_id
p2743
I803265
sa(dp2744
Vbody
p2745
V<p>Suppose I have written a decorator that does something very generic. For example, it might convert all arguments to a specific type, perform logging, implement memoization, etc.</p>\u000a\u000a<p>Here is an example:</p>\u000a\u000a<pre><code>def args_as_ints(f):\u000a    def g(*args, **kwargs):\u000a        args = [int(x) for x in args]\u000a        kwargs = dict((k, int(v)) for k, v in kwargs.items())\u000a        return f(*args, **kwargs)\u000a    return g\u000a\u000a@args_as_ints\u000adef funny_function(x, y, z=3):\u000a    """Computes x*y + 2*z"""\u000a    return x*y + 2*z\u000a\u000a&gt;&gt;&gt; funny_function("3", 4.0, z="5")\u000a22\u000a</code></pre>\u000a\u000a<p>Everything well so far. There is one problem, however. The decorated function does not retain the documentation of the original function:</p>\u000a\u000a<pre><code>&gt;&gt;&gt; help(funny_function)\u000aHelp on function g in module __main__:\u000a\u000ag(*args, **kwargs)\u000a</code></pre>\u000a\u000a<p>Fortunately, there is a workaround:</p>\u000a\u000a<pre><code>def args_as_ints(f):\u000a    def g(*args, **kwargs):\u000a        args = [int(x) for x in args]\u000a        kwargs = dict((k, int(v)) for k, v in kwargs.items())\u000a        return f(*args, **kwargs)\u000a    g.__name__ = f.__name__\u000a    g.__doc__ = f.__doc__\u000a    return g\u000a\u000a@args_as_ints\u000adef funny_function(x, y, z=3):\u000a    """Computes x*y + 2*z"""\u000a    return x*y + 2*z\u000a</code></pre>\u000a\u000a<p>This time, the function name and documentation are correct:</p>\u000a\u000a<pre><code>&gt;&gt;&gt; help(funny_function)\u000aHelp on function funny_function in module __main__:\u000a\u000afunny_function(*args, **kwargs)\u000a    Computes x*y + 2*z\u000a</code></pre>\u000a\u000a<p>But there is still a problem: the function signature is wrong. The information "*args, **kwargs" is next to useless.</p>\u000a\u000a<p>What to do? I can think of two simple but flawed workarounds:</p>\u000a\u000a<p>1 -- Include the correct signature in the docstring:</p>\u000a\u000a<pre><code>def funny_function(x, y, z=3):\u000a    """funny_function(x, y, z=3) -- computes x*y + 2*z"""\u000a    return x*y + 2*z\u000a</code></pre>\u000a\u000a<p>This is bad because of the duplication. The signature will still not be shown properly in automatically generated documentation. It's easy to update the function and forget about changing the docstring, or to make a typo. [<i>And yes, I'm aware of the fact that the docstring already duplicates the function body. Please ignore this; funny_function is just a random example.</i>]</p>\u000a\u000a<p>2 -- Not use a decorator, or use a special-purpose decorator for every specific signature:</p>\u000a\u000a<pre><code>def funny_functions_decorator(f):\u000a    def g(x, y, z=3):\u000a        return f(int(x), int(y), z=int(z))\u000a    g.__name__ = f.__name__\u000a    g.__doc__ = f.__doc__\u000a    return g\u000a</code></pre>\u000a\u000a<p>This works fine for a set of functions that have identical signature, but it's useless in general. As I said in the beginning, I want to be able to use decorators entirely generically.</p>\u000a\u000a<p>I'm looking for a solution that is fully general, and automatic.</p>\u000a\u000a<p>So the question is: is there a way to edit the decorated function signature after it has been created?</p>\u000a\u000a<p>Otherwise, can I write a decorator that extracts the function signature and uses that information instead of "*kwargs, **kwargs" when constructing the decorated function? How do I extract that information? How should I construct the decorated function -- with exec?</p>\u000a\u000a<p>Any other approaches?</p>\u000a
p2746
sVis_answered
p2747
I01
sVview_count
p2748
I5896
sVtags
p2749
(lp2750
Vpython
p2751
aVdecorator
p2752
asVlast_activity_date
p2753
I1453636791
sVanswer_count
p2754
I5
sVcreation_date
p2755
I1222673575
sVscore
p2756
I76
sVlink
p2757
Vhttp://stackoverflow.com/questions/147816/preserving-signatures-of-decorated-functions
p2758
sVaccepted_answer_id
p2759
I147878
sVowner
p2760
(dp2761
Vuser_id
p2762
I1163767
sVprofile_image
p2763
Vhttps://www.gravatar.com/avatar/9175248d9183522cc0d95ef6d3705cce?s=128&d=identicon&r=PG
p2764
sVuser_type
p2765
Vregistered
p2766
sVreputation
p2767
I10553
sVlink
p2768
Vhttp://stackoverflow.com/users/1163767/fredrik-johansson
p2769
sVdisplay_name
p2770
VFredrik Johansson
p2771
ssVtitle
p2772
VPreserving signatures of decorated functions
p2773
sVlast_edit_date
p2774
I1453636791
sVquestion_id
p2775
I147816
sa(dp2776
Vbody
p2777
V<p>I always read that I should use</p>\u000a\u000a<pre><code>model = Model(a=5, b=6)\u000amodel.save()\u000a</code></pre>\u000a\u000a<p>But I just saw there is a manager function create, because I saw an opensource django app using it.</p>\u000a\u000a<pre><code>model = Model.objects.create(a=5, b=6)\u000aprint model.pk\u000a1\u000a</code></pre>\u000a\u000a<p>So is it suggested to use it? Or is it still preferred to use the .save method. I'm guessing that objects.create will try to create it no matter what, whereas save may save an existing object if the pk is specified.</p>\u000a\u000a<p>These are the docs that I found: <a href="https://docs.djangoproject.com/en/dev/topics/db/queries/#creating-objects" rel="noreferrer">https://docs.djangoproject.com/en/dev/topics/db/queries/#creating-objects</a></p>\u000a
p2778
sVis_answered
p2779
I01
sVview_count
p2780
I28366
sVtags
p2781
(lp2782
Vpython
p2783
aVdjango
p2784
asVlast_activity_date
p2785
I1457430464
sVanswer_count
p2786
I4
sVcreation_date
p2787
I1333101062
sVscore
p2788
I76
sVlink
p2789
Vhttp://stackoverflow.com/questions/9940674/django-model-manager-objects-create-where-is-the-documentation
p2790
sVaccepted_answer_id
p2791
I9940729
sVowner
p2792
(dp2793
Vuser_id
p2794
I376445
sVprofile_image
p2795
Vhttps://www.gravatar.com/avatar/3a9a11160be7bdca365c163a732e6188?s=128&d=identicon&r=PG
p2796
sVuser_type
p2797
Vregistered
p2798
sVreputation
p2799
I2350
sVlink
p2800
Vhttp://stackoverflow.com/users/376445/sam-stoelinga
p2801
sVaccept_rate
p2802
I89
sVdisplay_name
p2803
VSam Stoelinga
p2804
ssVtitle
p2805
VDjango model manager objects.create where is the documentation?
p2806
sVquestion_id
p2807
I9940674
sa(dp2808
Vbody
p2809
V<p>I am looking for best practices for function/class/module documentation, i.e. comments in the code itself. Ideally I would like a comment template which is both human readable and consumable by Python documentation utilities.</p>\u000a\u000a<p>I have read the <a href="http://docs.python.org/tutorial/controlflow.html" rel="noreferrer">Python documentation on docstrings</a>.</p>\u000a\u000a<p>I understand this part:</p>\u000a\u000a<blockquote>\u000a  <p>The first line should always be a short, concise summary of the object\u2019s purpose. For brevity, it should not explicitly state the object\u2019s name or type, since these are available by other means (except if the name happens to be a verb describing a function\u2019s operation). This line should begin with a capital letter and end with a period.</p>\u000a  \u000a  <p>If there are more lines in the documentation string, the second line should be blank, visually separating the summary from the rest of the description.</p>\u000a</blockquote>\u000a\u000a<p>This sentence needs a bit more explanation:</p>\u000a\u000a<blockquote>\u000a  <p>The following lines should be one or more paragraphs describing the object\u2019s calling conventions, its side effects, etc.</p>\u000a</blockquote>\u000a\u000a<p>Specifically, I am looking for examples of well-commented functions and classes.</p>\u000a
p2810
sVis_answered
p2811
I01
sVview_count
p2812
I55219
sVtags
p2813
(lp2814
Vpython
p2815
aVdocumentation
p2816
aVcoding-style
p2817
asVlast_activity_date
p2818
I1434960999
sVanswer_count
p2819
I4
sVcreation_date
p2820
I1230849039
sVscore
p2821
I76
sVlink
p2822
Vhttp://stackoverflow.com/questions/405582/function-and-class-documentation-best-practices-for-python
p2823
sVaccepted_answer_id
p2824
I405710
sVowner
p2825
(dp2826
Vuser_id
p2827
I32558
sVprofile_image
p2828
Vhttps://www.gravatar.com/avatar/22b196cffc5bb4bdd247140ae97d72ca?s=128&d=identicon&r=PG
p2829
sVuser_type
p2830
Vregistered
p2831
sVreputation
p2832
I1984
sVlink
p2833
Vhttp://stackoverflow.com/users/32558/doug
p2834
sVaccept_rate
p2835
I79
sVdisplay_name
p2836
VDoug
p2837
ssVtitle
p2838
VFunction and class documentation best practices for Python
p2839
sVlast_edit_date
p2840
I1430321915
sVquestion_id
p2841
I405582
sa(dp2842
Vbody
p2843
V<p>I've been testing out Selenium with Chromedriver and I noticed that some pages can detect that you're using Selenium even though there's no automation at all. Even when I'm just browsing manually just using chrome through Selenium and Xephyr I often get a page saying that suspicious activity was detected. I've checked my user agent, and my browser fingerprint, and they are all exactly identical to the normal chrome browser.</p>\u000a\u000a<p>When I browse to these sites in normal chrome everything works fine, but the moment I use Selenium I'm detected.</p>\u000a\u000a<p>In theory chromedriver and chrome should look literally exactly the same to any webserver, but somehow they can detect it. </p>\u000a\u000a<p>If you want some testcode try out this:</p>\u000a\u000a<pre><code>from pyvirtualdisplay import Display\u000afrom selenium import webdriver\u000a\u000adisplay = Display(visible=1, size=(1600, 902))\u000adisplay.start()\u000achrome_options = webdriver.ChromeOptions()\u000achrome_options.add_argument('--disable-extensions')\u000achrome_options.add_argument('--profile-directory=Default')\u000achrome_options.add_argument("--incognito")\u000achrome_options.add_argument("--disable-plugins-discovery");\u000achrome_options.add_argument("--start-maximized")\u000adriver = webdriver.Chrome(chrome_options=chrome_options)\u000adriver.delete_all_cookies()\u000adriver.set_window_size(800,800)\u000adriver.set_window_position(0,0)\u000aprint 'arguments done'\u000adriver.get('http://stubhub.com')\u000a</code></pre>\u000a\u000a<p>If you browse around stubhub you'll get redirected and 'blocked' within one or two requests. I've been investigating this and I can't figure out how they can tell that a user is using Selenium. </p>\u000a\u000a<p>How do they do it?</p>\u000a\u000a<p>EDIT UPDATE:</p>\u000a\u000a<p>I installed the Selenium IDE plugin in Firefox and I got banned when I went to stubhub.com in the normal firefox browser with only the additional plugin.</p>\u000a\u000a<p>EDIT:</p>\u000a\u000a<p>When I use Fiddler to view the HTTP requests being sent back and forth I've noticed that the 'fake browser\u005c's' requests often have 'no-cache' in the response header.</p>\u000a\u000a<p>EDIT:</p>\u000a\u000a<p>results like this <a href="http://stackoverflow.com/questions/3614472/is-there-a-way-to-detect-that-im-in-a-selenium-webdriver-page-from-javascript">Is there a way to detect that I&#39;m in a Selenium Webdriver page from Javascript</a> suggest that there should be no way to detect when you are using a webdriver. But this evidence suggests otherwise.</p>\u000a\u000a<p>EDIT:</p>\u000a\u000a<p>The site uploads a fingerprint to their servers, but I checked and the fingerprint of selenium is identical to the fingerprint when using chrome.</p>\u000a\u000a<p>EDIT:</p>\u000a\u000a<p>This is one of the fingerprint payloads that they send to their servers</p>\u000a\u000a<pre><code>{"appName":"Netscape","platform":"Linuxx86_64","cookies":1,"syslang":"en-US","userlang":"en-US","cpu":"","productSub":"20030107","setTimeout":1,"setInterval":1,"plugins":{"0":"ChromePDFViewer","1":"ShockwaveFlash","2":"WidevineContentDecryptionModule","3":"NativeClient","4":"ChromePDFViewer"},"mimeTypes":{"0":"application/pdf","1":"ShockwaveFlashapplication/x-shockwave-flash","2":"FutureSplashPlayerapplication/futuresplash","3":"WidevineContentDecryptionModuleapplication/x-ppapi-widevine-cdm","4":"NativeClientExecutableapplication/x-nacl","5":"PortableNativeClientExecutableapplication/x-pnacl","6":"PortableDocumentFormatapplication/x-google-chrome-pdf"},"screen":{"width":1600,"height":900,"colorDepth":24},"fonts":{"0":"monospace","1":"DejaVuSerif","2":"Georgia","3":"DejaVuSans","4":"TrebuchetMS","5":"Verdana","6":"AndaleMono","7":"DejaVuSansMono","8":"LiberationMono","9":"NimbusMonoL","10":"CourierNew","11":"Courier"}}\u000a</code></pre>\u000a\u000a<p>Its identical in selenium and in chrome</p>\u000a\u000a<p>EDIT:</p>\u000a\u000a<p>VPNs work for a single use but get detected after I load the first page. Clearly some javascript is being run to detect Selenium.</p>\u000a
p2844
sVis_answered
p2845
I01
sVview_count
p2846
I16813
sVtags
p2847
(lp2848
Vjavascript
p2849
aVpython
p2850
aVgoogle-chrome
p2851
aVselenium
p2852
aVselenium-chromedriver
p2853
asVlast_activity_date
p2854
I1488317788
sVanswer_count
p2855
I10
sVcreation_date
p2856
I1445299737
sVscore
p2857
I76
sVlink
p2858
Vhttp://stackoverflow.com/questions/33225947/can-a-website-detect-when-you-are-using-selenium-with-chromedriver
p2859
sVaccepted_answer_id
p2860
I41220267
sVowner
p2861
(dp2862
Vuser_id
p2863
I2955312
sVprofile_image
p2864
Vhttps://www.gravatar.com/avatar/1249951c24840c64d8c32951e967170a?s=128&d=identicon&r=PG&f=1
p2865
sVuser_type
p2866
Vregistered
p2867
sVreputation
p2868
I615
sVlink
p2869
Vhttp://stackoverflow.com/users/2955312/ryan-weinstein
p2870
sVaccept_rate
p2871
I100
sVdisplay_name
p2872
VRyan Weinstein
p2873
ssVtitle
p2874
VCan a website detect when you are using selenium with chromedriver?
p2875
sVlast_edit_date
p2876
I1445880867
sVquestion_id
p2877
I33225947
sa(dp2878
Vbody
p2879
V<p>Is there a nice Pythonic way to loop over a list, retuning a pair of elements? The last element should be paired with the first.</p>\u000a\u000a<p>So for instance, if I have the list [1, 2, 3], I would like to get the following pairs:</p>\u000a\u000a<ul>\u000a<li>1 - 2</li>\u000a<li>2 - 3</li>\u000a<li>3 - 1</li>\u000a</ul>\u000a
p2880
sVis_answered
p2881
I01
sVview_count
p2882
I4881
sVtags
p2883
(lp2884
Vpython
p2885
asVlast_activity_date
p2886
I1482459636
sVanswer_count
p2887
I17
sVcreation_date
p2888
I1461852176
sVscore
p2889
I75
sVlink
p2890
Vhttp://stackoverflow.com/questions/36917042/pairwise-circular-python-for-loop
p2891
sVaccepted_answer_id
p2892
I36917579
sVowner
p2893
(dp2894
Vuser_id
p2895
I987706
sVprofile_image
p2896
Vhttps://www.gravatar.com/avatar/f9c778f2ae5f4b5fde46d5f1720b4a7c?s=128&d=identicon&r=PG
p2897
sVuser_type
p2898
Vregistered
p2899
sVreputation
p2900
I2133
sVlink
p2901
Vhttp://stackoverflow.com/users/987706/the-oddler
p2902
sVaccept_rate
p2903
I93
sVdisplay_name
p2904
VThe Oddler
p2905
ssVtitle
p2906
VPairwise circular Python &#39;for&#39; loop
p2907
sVlast_edit_date
p2908
I1461882842
sVquestion_id
p2909
I36917042
sa(dp2910
Vclosed_date
p2911
I1434988934
sVis_answered
p2912
I01
sVprotected_date
p2913
I1372623431
sVclosed_reason
p2914
Vduplicate
p2915
sVview_count
p2916
I5486
sVtags
p2917
(lp2918
Vpython
p2919
aVstring
p2920
aVlist
p2921
asVbody
p2922
V<p>in this code I am trying to create a function anti_vowel that will remove all vowels (aeiouAEIOU) from a string. I think it <em>should</em> work ok, but when I run it, the sample text "Hey look Words!" is returned as "Hy lk Words!". It  "forgets" to remove the last 'o'. How can this be?</p>\u000a\u000a<pre><code>text = "Hey look Words!"\u000a\u000adef anti_vowel(text):\u000a\u000a    textlist = list(text)\u000a\u000a    for char in textlist:\u000a        if char.lower() in 'aeiou':\u000a            textlist.remove(char)\u000a\u000a    return "".join(textlist)\u000a\u000aprint anti_vowel(text)\u000a</code></pre>\u000a
p2923
sVlast_activity_date
p2924
I1432574649
sVaccepted_answer_id
p2925
I17299676
sVcreation_date
p2926
I1372169355
sVscore
p2927
I75
sVlink
p2928
Vhttp://stackoverflow.com/questions/17299581/loop-forgets-to-remove-some-items
p2929
sVanswer_count
p2930
I10
sVowner
p2931
(dp2932
Vuser_id
p2933
I2520385
sVprofile_image
p2934
Vhttps://www.gravatar.com/avatar/c58d540f9eab717596edfc1ca4bfaa85?s=128&d=identicon&r=PG
p2935
sVuser_type
p2936
Vregistered
p2937
sVreputation
p2938
I667
sVlink
p2939
Vhttp://stackoverflow.com/users/2520385/user2520385
p2940
sVaccept_rate
p2941
I68
sVdisplay_name
p2942
Vuser2520385
p2943
ssVtitle
p2944
VLoop &quot;Forgets&quot; to Remove Some Items
p2945
sVlast_edit_date
p2946
I1403082317
sVquestion_id
p2947
I17299581
sa(dp2948
Vclosed_date
p2949
I1399753768
sVis_answered
p2950
I01
sVclosed_reason
p2951
Vduplicate
p2952
sVview_count
p2953
I53590
sVtags
p2954
(lp2955
Vpython
p2956
asVbody
p2957
V<p>Somebody was nice enough to explain to me that __method() mangles but instead of bothering him further since there are a lot of other people who need help I was wondering if somebody could elaborate the differences further.</p>\u000a\u000a<p>For example I don't need mangling but does _ stay private so somebody couldn't do instance._method()? Or does it just keep it from overwriting another variable by making it unique?  I don't need my internal methods "hidden" but since they are specific to use I don't want them being used outside of the class.</p>\u000a
p2958
sVlast_activity_date
p2959
I1442609735
sVaccepted_answer_id
p2960
I6930223
sVcreation_date
p2961
I1312390334
sVscore
p2962
I75
sVlink
p2963
Vhttp://stackoverflow.com/questions/6930144/underscore-vs-double-underscore-with-variables-and-methods
p2964
sVanswer_count
p2965
I3
sVowner
p2966
(dp2967
Vuser_id
p2968
I376678
sVprofile_image
p2969
Vhttps://www.gravatar.com/avatar/37bf689f37c69732158e782020db84f9?s=128&d=identicon&r=PG
p2970
sVuser_type
p2971
Vregistered
p2972
sVreputation
p2973
I1465
sVlink
p2974
Vhttp://stackoverflow.com/users/376678/jordon-bedwell
p2975
sVaccept_rate
p2976
I96
sVdisplay_name
p2977
VJordon Bedwell
p2978
ssVtitle
p2979
VUnderscore vs Double underscore with variables and methods
p2980
sVquestion_id
p2981
I6930144
sa(dp2982
Vbody
p2983
V<p>Can anyone tell me why this isn't working?</p>\u000a\u000a<pre><code>&gt;&gt;&gt; import mock\u000a&gt;&gt;&gt; @mock.patch('datetime.date.today')\u000a... def today(cls):\u000a...  return date(2010, 1, 1)\u000a...\u000a&gt;&gt;&gt; from datetime import date\u000a&gt;&gt;&gt; date.today()\u000adatetime.date(2010, 12, 19)\u000a</code></pre>\u000a\u000a<p>Perhaps someone could suggest a better way?</p>\u000a
p2984
sVis_answered
p2985
I01
sVview_count
p2986
I32404
sVtags
p2987
(lp2988
Vpython
p2989
aVtesting
p2990
aVdatetime
p2991
aVmocking
p2992
asVlast_activity_date
p2993
I1493908175
sVanswer_count
p2994
I10
sVcreation_date
p2995
I1292741678
sVscore
p2996
I75
sVlink
p2997
Vhttp://stackoverflow.com/questions/4481954/python-trying-to-mock-datetime-date-today-but-not-working
p2998
sVaccepted_answer_id
p2999
I4482067
sVowner
p3000
(dp3001
Vuser_id
p3002
I441923
sVprofile_image
p3003
Vhttps://i.stack.imgur.com/aq9Ax.jpg?s=128&g=1
p3004
sVuser_type
p3005
Vregistered
p3006
sVreputation
p3007
I2909
sVlink
p3008
Vhttp://stackoverflow.com/users/441923/belmin-fernandez
p3009
sVaccept_rate
p3010
I89
sVdisplay_name
p3011
VBelmin Fernandez
p3012
ssVtitle
p3013
VPython: Trying to mock datetime.date.today() but not working
p3014
sVquestion_id
p3015
I4481954
sa(dp3016
Vbody
p3017
V<p>For some reason I can't find a way to get the equivalents of sqlite's interactive shell commands:</p>\u000a\u000a<pre><code>.tables\u000a.dump\u000a</code></pre>\u000a\u000a<p>using the Python sqlite3 API. </p>\u000a\u000a<p>Is there anything like that?</p>\u000a
p3018
sVis_answered
p3019
I01
sVview_count
p3020
I77259
sVtags
p3021
(lp3022
Vpython
p3023
aVapi
p3024
aVsqlite
p3025
aVdump
p3026
asVlast_activity_date
p3027
I1481068934
sVanswer_count
p3028
I10
sVcreation_date
p3029
I1227189623
sVscore
p3030
I75
sVlink
p3031
Vhttp://stackoverflow.com/questions/305378/list-of-tables-db-schema-dump-etc-using-the-python-sqlite3-api
p3032
sVaccepted_answer_id
p3033
I305639
sVowner
p3034
(dp3035
Vuser_id
p3036
I38557
sVprofile_image
p3037
Vhttps://www.gravatar.com/avatar/7b7a393bcf80e228c331ad9f102869dd?s=128&d=identicon&r=PG
p3038
sVuser_type
p3039
Vregistered
p3040
sVreputation
p3041
I3304
sVlink
p3042
Vhttp://stackoverflow.com/users/38557/noamtm
p3043
sVaccept_rate
p3044
I57
sVdisplay_name
p3045
Vnoamtm
p3046
ssVtitle
p3047
VList of tables, db schema, dump etc using the Python sqlite3 API
p3048
sVlast_edit_date
p3049
I1459907640
sVquestion_id
p3050
I305378
sa(dp3051
Vbody
p3052
V<p>When installing scipy through pip with :</p>\u000a\u000a<pre><code>pip install scipy\u000a</code></pre>\u000a\u000a<p>Pip fails to build scipy and throws the following error:</p>\u000a\u000a<pre><code>Cleaning up...\u000aCommand /Users/administrator/dev/KaggleAux/env/bin/python2.7 -c "import setuptools, tokenize;__file__='/Users/administrator/dev/KaggleAux/env/build/scipy/setup.py';exec(compile(getattr(tokenize, 'open', open)(__file__).read().replace('\u005cr\u005cn', '\u005cn'), __file__, 'exec'))" install --record /var/folders/zl/7698ng4d4nxd49q1845jd9340000gn/T/pip-eO8gua-record/install-record.txt --single-version-externally-managed --compile --install-headers /Users/administrator/dev/KaggleAux/env/bin/../include/site/python2.7 failed with error code 1 in /Users/administrator/dev/KaggleAux/env/build/scipy\u000aStoring debug log for failure in /Users/administrator/.pip/pip.log\u000a</code></pre>\u000a\u000a<p>How can I get scipy to build successfully? This may be a new issue with OSX Yosemite since I just upgraded and haven't had issues installing scipy before.</p>\u000a\u000a<hr>\u000a\u000a<p>Debug log:</p>\u000a\u000a<pre><code>Cleaning up...\u000a  Removing temporary dir /Users/administrator/dev/KaggleAux/env/build...\u000aCommand /Users/administrator/dev/KaggleAux/env/bin/python2.7 -c "import setuptools, tokenize;__file__='/Users/administrator/dev/KaggleAux/env/build/scipy/setup.py';exec(compile(getattr(tokenize, 'open', open)(__file__).read().replace('\u005cr\u005cn', '\u005cn'), __file__, 'exec'))" install --record /var/folders/zl/7698ng4d4nxd49q1845jd9340000gn/T/pip-eO8gua-record/install-record.txt --single-version-externally-managed --compile --install-headers /Users/administrator/dev/KaggleAux/env/bin/../include/site/python2.7 failed with error code 1 in /Users/administrator/dev/KaggleAux/env/build/scipy\u000aException information:\u000aTraceback (most recent call last):\u000a  File "/Users/administrator/dev/KaggleAux/env/lib/python2.7/site-packages/pip/basecommand.py", line 122, in main\u000a    status = self.run(options, args)\u000a  File "/Users/administrator/dev/KaggleAux/env/lib/python2.7/site-packages/pip/commands/install.py", line 283, in run\u000a    requirement_set.install(install_options, global_options, root=options.root_path)\u000a  File "/Users/administrator/dev/KaggleAux/env/lib/python2.7/site-packages/pip/req.py", line 1435, in install\u000a    requirement.install(install_options, global_options, *args, **kwargs)\u000a  File "/Users/administrator/dev/KaggleAux/env/lib/python2.7/site-packages/pip/req.py", line 706, in install\u000a    cwd=self.source_dir, filter_stdout=self._filter_install, show_stdout=False)\u000a  File "/Users/administrator/dev/KaggleAux/env/lib/python2.7/site-packages/pip/util.py", line 697, in call_subprocess\u000a    % (command_desc, proc.returncode, cwd))\u000aInstallationError: Command /Users/administrator/dev/KaggleAux/env/bin/python2.7 -c "import setuptools, tokenize;__file__='/Users/administrator/dev/KaggleAux/env/build/scipy/setup.py';exec(compile(getattr(tokenize, 'open', open)(__file__).read().replace('\u005cr\u005cn', '\u005cn'), __file__, 'exec'))" install --record /var/folders/zl/7698ng4d4nxd49q1845jd9340000gn/T/pip-eO8gua-record/install-record.txt --single-version-externally-managed --compile --install-headers /Users/administrator/dev/KaggleAux/env/bin/../include/site/python2.7 failed with error code 1 in /Users/administrator/dev/KaggleAux/env/build/scipy\u000a</code></pre>\u000a
p3053
sVis_answered
p3054
I01
sVview_count
p3055
I107309
sVtags
p3056
(lp3057
Vpython
p3058
aVscipy
p3059
asVlast_activity_date
p3060
I1494807568
sVanswer_count
p3061
I16
sVcreation_date
p3062
I1414343112
sVscore
p3063
I75
sVlink
p3064
Vhttp://stackoverflow.com/questions/26575587/cant-install-scipy-through-pip
p3065
sVaccepted_answer_id
p3066
I26964891
sVowner
p3067
(dp3068
Vuser_id
p3069
I2259303
sVprofile_image
p3070
Vhttps://www.gravatar.com/avatar/8a74184e56d2bb143abe0cf2d0cf5162?s=128&d=identicon&r=PG
p3071
sVuser_type
p3072
Vregistered
p3073
sVreputation
p3074
I9636
sVlink
p3075
Vhttp://stackoverflow.com/users/2259303/agconti
p3076
sVaccept_rate
p3077
I85
sVdisplay_name
p3078
Vagconti
p3079
ssVtitle
p3080
VCan&#39;t install Scipy through pip
p3081
sVlast_edit_date
p3082
I1414345815
sVquestion_id
p3083
I26575587
sa(dp3084
Vbody
p3085
V<p>I am using <code>matplotlib</code> to create the plots. I have to identify each plot with a different color which should be automatically generated by Python.</p>\u000a\u000a<p>Can you please give me a method to put different colors for different plots in the same figure? </p>\u000a
p3086
sVis_answered
p3087
I01
sVview_count
p3088
I111256
sVtags
p3089
(lp3090
Vpython
p3091
aVcolors
p3092
aVmatplotlib
p3093
asVlast_activity_date
p3094
I1479779549
sVanswer_count
p3095
I3
sVcreation_date
p3096
I1296048310
sVscore
p3097
I75
sVlink
p3098
Vhttp://stackoverflow.com/questions/4805048/how-to-get-different-colored-lines-for-different-plots-in-a-single-figure
p3099
sVowner
p3100
(dp3101
Vuser_id
p3102
I587525
sVprofile_image
p3103
Vhttps://www.gravatar.com/avatar/2e28a4d2652bcfca0b2802777b6ec944?s=128&d=identicon&r=PG
p3104
sVuser_type
p3105
Vunregistered
p3106
sVreputation
p3107
I379
sVlink
p3108
Vhttp://stackoverflow.com/users/587525/pottigopi
p3109
sVdisplay_name
p3110
Vpottigopi
p3111
ssVtitle
p3112
VHow to get different colored lines for different plots in a single figure?
p3113
sVlast_edit_date
p3114
I1479779549
sVquestion_id
p3115
I4805048
sa(dp3116
Vbody
p3117
V<p>Suppose I was given a URL.<br>\u000aIt might already have GET parameters (e.g. <code>http://example.com/search?q=question</code>) or it might not (e.g. <code>http://example.com/</code>).</p>\u000a\u000a<p>And now I need to add some parameters to it like <code>{'lang':'en','tag':'python'}</code>. In the first case I'm going to have <code>http://example.com/search?q=question&amp;lang=en&amp;tag=python</code> and in the second \u2014 <code>http://example.com/search?lang=en&amp;tag=python</code>.</p>\u000a\u000a<p>Is there any standard way to do this?</p>\u000a
p3118
sVis_answered
p3119
I01
sVview_count
p3120
I48003
sVtags
p3121
(lp3122
Vpython
p3123
aVurl
p3124
asVlast_activity_date
p3125
I1494849751
sVanswer_count
p3126
I12
sVcreation_date
p3127
I1269421581
sVscore
p3128
I75
sVlink
p3129
Vhttp://stackoverflow.com/questions/2506379/add-params-to-given-url-in-python
p3130
sVaccepted_answer_id
p3131
I2506477
sVowner
p3132
(dp3133
Vuser_id
p3134
I231412
sVprofile_image
p3135
Vhttps://www.gravatar.com/avatar/115e0f0e4b15ef18e409c995ef102cb2?s=128&d=identicon&r=PG
p3136
sVuser_type
p3137
Vregistered
p3138
sVreputation
p3139
I728
sVlink
p3140
Vhttp://stackoverflow.com/users/231412/z4y4ts
p3141
sVaccept_rate
p3142
I85
sVdisplay_name
p3143
Vz4y4ts
p3144
ssVtitle
p3145
VAdd params to given URL in Python
p3146
sVlast_edit_date
p3147
I1393876226
sVquestion_id
p3148
I2506379
sa(dp3149
Vbody
p3150
V<p>How do I repeat the last command? The usual keys: Up, Ctrl+Up, Alt-p don't work. They produce nonsensical characters.</p>\u000a\u000a<pre><code>(ve)[kakarukeys@localhost ve]$ python\u000aPython 2.6.6 (r266:84292, Nov 15 2010, 21:48:32) \u000a[GCC 4.4.4 20100630 (Red Hat 4.4.4-10)] on linux2\u000aType "help", "copyright", "credits" or "license" for more information.\u000a&gt;&gt;&gt; print "hello world"\u000ahello world\u000a&gt;&gt;&gt; ^[[A\u000a  File "&lt;stdin&gt;", line 1\u000a    ^\u000aSyntaxError: invalid syntax\u000a&gt;&gt;&gt; ^[[1;5A\u000a  File "&lt;stdin&gt;", line 1\u000a    [1;5A\u000a    ^\u000aSyntaxError: invalid syntax\u000a&gt;&gt;&gt; ^[p\u000a  File "&lt;stdin&gt;", line 1\u000a    p\u000a    ^\u000aSyntaxError: invalid syntax\u000a&gt;&gt;&gt; \u000a</code></pre>\u000a
p3151
sVis_answered
p3152
I01
sVview_count
p3153
I86520
sVtags
p3154
(lp3155
Vpython
p3156
aVshell
p3157
aVvirtualenv
p3158
aVinterpreter
p3159
aVpython-idle
p3160
asVlast_activity_date
p3161
I1490962986
sVanswer_count
p3162
I22
sVcreation_date
p3163
I1290827379
sVscore
p3164
I75
sVlink
p3165
Vhttp://stackoverflow.com/questions/4289937/how-to-repeat-last-command-in-python-interpreter-shell
p3166
sVaccepted_answer_id
p3167
I4289945
sVowner
p3168
(dp3169
Vuser_id
p3170
I496852
sVprofile_image
p3171
Vhttps://www.gravatar.com/avatar/6c911ba8341c2b209d8788aeffe26711?s=128&d=identicon&r=PG
p3172
sVuser_type
p3173
Vregistered
p3174
sVreputation
p3175
I3602
sVlink
p3176
Vhttp://stackoverflow.com/users/496852/kakarukeys
p3177
sVaccept_rate
p3178
I67
sVdisplay_name
p3179
Vkakarukeys
p3180
ssVtitle
p3181
VHow to repeat last command in python interpreter shell?
p3182
sVlast_edit_date
p3183
I1385145560
sVquestion_id
p3184
I4289937
sa(dp3185
Vbody
p3186
V<p>What are my options if I want to create a simple XML file in python? (library wise)</p>\u000a\u000a<p>The xml I want looks like:</p>\u000a\u000a<pre><code>&lt;root&gt;\u000a &lt;doc&gt;\u000a     &lt;field1 name="blah"&gt;some value1&lt;/field1&gt;\u000a     &lt;field2 name="asdfasd"&gt;some vlaue2&lt;/field2&gt;\u000a &lt;/doc&gt;\u000a\u000a&lt;/root&gt;\u000a</code></pre>\u000a
p3187
sVis_answered
p3188
I01
sVview_count
p3189
I138643
sVtags
p3190
(lp3191
Vpython
p3192
aVxml
p3193
asVlast_activity_date
p3194
I1481401140
sVanswer_count
p3195
I4
sVcreation_date
p3196
I1283222303
sVscore
p3197
I75
sVlink
p3198
Vhttp://stackoverflow.com/questions/3605680/creating-a-simple-xml-file-using-python
p3199
sVaccepted_answer_id
p3200
I3605831
sVowner
p3201
(dp3202
Vuser_id
p3203
I39677
sVprofile_image
p3204
Vhttps://www.gravatar.com/avatar/77aa7bc1ace6e4b0b49a2102e4fa4059?s=128&d=identicon&r=PG
p3205
sVuser_type
p3206
Vregistered
p3207
sVreputation
p3208
I72967
sVlink
p3209
Vhttp://stackoverflow.com/users/39677/blankman
p3210
sVaccept_rate
p3211
I58
sVdisplay_name
p3212
VBlankman
p3213
ssVtitle
p3214
VCreating a simple XML file using python
p3215
sVquestion_id
p3216
I3605680
sa(dp3217
Vbody
p3218
V<p>I am getting an error when I try to run this simple python script:</p>\u000a\u000a<pre><code>input_variable = input ("Enter your name: ")\u000aprint ("your name is" + input_variable)\u000a</code></pre>\u000a\u000a<p>Lets say I type in "dude", the error I am getting is:</p>\u000a\u000a<pre><code>line 1, in &lt;module&gt;\u000ainput_variable = input ("Enter your name: ")\u000aFile "&lt;string&gt;", line 1, in &lt;module&gt;\u000aNameError: name 'dude' is not defined\u000a</code></pre>\u000a\u000a<p>I am running Mac OS X 10.9.1 and I am using the Python Launcher app that came with the install of python 3.3 to run the script.</p>\u000a\u000a<p>Edit: I realized I am somehow running these scripts with 2.7. I guess the real question is how do I run my scripts with version 3.3? I thought if I dragged and dropped my scripts on top of the Python Launcher app that is inside the Python 3.3 folder in my applications folder that it would launch my scripts using 3.3. I guess this method still launches scripts with 2.7. So How do I use 3.3?</p>\u000a
p3219
sVis_answered
p3220
I01
sVprotected_date
p3221
I1470701394
sVview_count
p3222
I247604
sVtags
p3223
(lp3224
Vpython
p3225
aVpython-2.7
p3226
aVpython-3.x
p3227
aVinput
p3228
aVnameerror
p3229
asVlast_activity_date
p3230
I1484767262
sVanswer_count
p3231
I4
sVcreation_date
p3232
I1389728654
sVscore
p3233
I75
sVlink
p3234
Vhttp://stackoverflow.com/questions/21122540/input-error-nameerror-name-is-not-defined
p3235
sVowner
p3236
(dp3237
Vuser_id
p3238
I2254887
sVprofile_image
p3239
Vhttps://www.gravatar.com/avatar/0e3f9056d2dfcfadc9194a45df0cb06d?s=128&d=identicon&r=PG
p3240
sVuser_type
p3241
Vregistered
p3242
sVreputation
p3243
I531
sVlink
p3244
Vhttp://stackoverflow.com/users/2254887/chillpenguin
p3245
sVaccept_rate
p3246
I47
sVdisplay_name
p3247
Vchillpenguin
p3248
ssVtitle
p3249
Vinput() error - NameError: name &#39;...&#39; is not defined
p3250
sVlast_edit_date
p3251
I1476279638
sVquestion_id
p3252
I21122540
sa(dp3253
Vbody
p3254
V<p>Assume I have a pandas DataFrame with two columns, A and B. I'd like to modify this DataFrame (or create a copy) so that B is always NaN whenever A is 0. How would I achieve that?</p>\u000a\u000a<p>I tried the following</p>\u000a\u000a<pre><code>df['A'==0]['B'] = np.nan\u000a</code></pre>\u000a\u000a<p>and</p>\u000a\u000a<pre><code>df['A'==0]['B'].values.fill(np.nan)\u000a</code></pre>\u000a\u000a<p>without success.</p>\u000a
p3255
sVis_answered
p3256
I01
sVview_count
p3257
I41459
sVtags
p3258
(lp3259
Vpython
p3260
aVpandas
p3261
asVlast_activity_date
p3262
I1478876768
sVanswer_count
p3263
I2
sVcreation_date
p3264
I1346959945
sVscore
p3265
I75
sVlink
p3266
Vhttp://stackoverflow.com/questions/12307099/modifying-a-subset-of-rows-in-a-pandas-dataframe
p3267
sVaccepted_answer_id
p3268
I12307162
sVowner
p3269
(dp3270
Vuser_id
p3271
I645212
sVprofile_image
p3272
Vhttps://www.gravatar.com/avatar/f6861276a07a4dca092ac33d1a67bea2?s=128&d=identicon&r=PG
p3273
sVuser_type
p3274
Vregistered
p3275
sVreputation
p3276
I882
sVlink
p3277
Vhttp://stackoverflow.com/users/645212/arthur-b
p3278
sVaccept_rate
p3279
I60
sVdisplay_name
p3280
VArthur B.
p3281
ssVtitle
p3282
VModifying a subset of rows in a pandas dataframe
p3283
sVquestion_id
p3284
I12307099
sa(dp3285
Vbody
p3286
V<p>If I have a Django form such as:</p>\u000a\u000a<pre><code>class ContactForm(forms.Form):\u000a    subject = forms.CharField(max_length=100)\u000a    message = forms.CharField()\u000a    sender = forms.EmailField()\u000a</code></pre>\u000a\u000a<p>And I call the as_table() method of an instance of this form, Django will render the fields as the same order as specified above.</p>\u000a\u000a<p>My question is how does Django know the order that class variables where defined?  </p>\u000a\u000a<p>(Also how do I override this order, for example when I want to add a field from the classe's <strong>init</strong> method?)</p>\u000a
p3287
sVis_answered
p3288
I01
sVview_count
p3289
I26856
sVtags
p3290
(lp3291
Vpython
p3292
aVdjango
p3293
aVclass
p3294
aVdjango-forms
p3295
aVcontacts
p3296
asVlast_activity_date
p3297
I1491322164
sVanswer_count
p3298
I14
sVcreation_date
p3299
I1228768664
sVscore
p3300
I75
sVlink
p3301
Vhttp://stackoverflow.com/questions/350799/how-does-django-know-the-order-to-render-form-fields
p3302
sVaccepted_answer_id
p3303
I350913
sVowner
p3304
(dp3305
Vuser_id
p3306
I13009
sVprofile_image
p3307
Vhttps://www.gravatar.com/avatar/6cc09155d4a43cc770bf1e77fd87867a?s=128&d=identicon&r=PG
p3308
sVuser_type
p3309
Vregistered
p3310
sVreputation
p3311
I13653
sVlink
p3312
Vhttp://stackoverflow.com/users/13009/greg
p3313
sVaccept_rate
p3314
I79
sVdisplay_name
p3315
VGreg
p3316
ssVtitle
p3317
VHow does Django Know the Order to Render Form Fields?
p3318
sVquestion_id
p3319
I350799
sa(dp3320
Vclosed_date
p3321
I1311951377
sVis_answered
p3322
I01
sVclosed_reason
p3323
Vnot constructive
p3324
sVview_count
p3325
I23196
sVtags
p3326
(lp3327
Vpython
p3328
aVmachine-learning
p3329
asVbody
p3330
V<p>Is there a recommended package for machine learning in Python?</p>\u000a\u000a<p>I have previous experience in implementing a variety of machine learning and statistical algorithms in C++ and <a href="http://en.wikipedia.org/wiki/MATLAB" rel="noreferrer">MATLAB</a>, but having done some work in Python I'm curious about the available packages for Python.</p>\u000a
p3331
sVlast_activity_date
p3332
I1386975397
sVaccepted_answer_id
p3333
I1290968
sVcreation_date
p3334
I1250537467
sVscore
p3335
I75
sVlink
p3336
Vhttp://stackoverflow.com/questions/1289920/is-there-a-recommended-package-for-machine-learning-in-python
p3337
sVanswer_count
p3338
I14
sVowner
p3339
(dp3340
Vuser_id
p3341
I81051
sVprofile_image
p3342
Vhttps://www.gravatar.com/avatar/7f1b9463a8e3c8abbbf993a1f59048c6?s=128&d=identicon&r=PG
p3343
sVuser_type
p3344
Vregistered
p3345
sVreputation
p3346
I535
sVlink
p3347
Vhttp://stackoverflow.com/users/81051/ori-folger
p3348
sVdisplay_name
p3349
VOri Folger
p3350
ssVtitle
p3351
VIs there a recommended package for machine learning in Python?
p3352
sVlast_edit_date
p3353
I1261954801
sVquestion_id
p3354
I1289920
sasVquota_max
p3355
I300
sVquota_remaining
p3356
I218
s.